GAS LISTING C:\Users\21030\AppData\Local\Temp/ccCMDFwY.s 			page 1


   1               		.file	"ps2main.c"
   2               	__SREG__ = 0x3f
   3               	__SP_H__ = 0x3e
   4               	__SP_L__ = 0x3d
   5               	__CCP__  = 0x34
   6               	__tmp_reg__ = 0
   7               	__zero_reg__ = 1
   8               		.section	.debug_abbrev,"",@progbits
   9               	.Ldebug_abbrev0:
  10               		.section	.debug_info,"",@progbits
  11               	.Ldebug_info0:
  12               		.section	.debug_line,"",@progbits
  13               	.Ldebug_line0:
  14               		.text
  15               	.Ltext0:
  16               	.global	push
  17               		.type	push, @function
  18               	push:
  19               	.LFB7:
  20               	.LM1:
  21               	.LVL0:
  22               	/* prologue: function */
  23               	/* frame size = 0 */
  24 0000 282F      		mov r18,r24
  25               	.LM2:
  26 0002 8F3F      		cpi r24,lo8(-1)
  27 0004 01F4      		brne .L2
  28               	.LM3:
  29 0006 1092 0000 		sts lastMAKE_SIZE,__zero_reg__
  30               	.LM4:
  31 000a 81E0      		ldi r24,lo8(1)
  32               	.LVL1:
  33 000c 8093 0000 		sts record.2028,r24
  34 0010 0895      		ret
  35               	.LVL2:
  36               	.L2:
  37               	.LM5:
  38 0012 8E3F      		cpi r24,lo8(-2)
  39 0014 01F0      		breq .L11
  40               	.L4:
  41               	.LM6:
  42 0016 8D3F      		cpi r24,lo8(-3)
  43 0018 01F4      		brne .L5
  44               	.LM7:
  45 001a 1092 0000 		sts lastMAKE_SIZE,__zero_reg__
  46               	.L11:
  47               	.LM8:
  48 001e 1092 0000 		sts record.2028,__zero_reg__
  49 0022 0895      		ret
  50               	.L5:
  51               	.LM9:
  52 0024 8091 0000 		lds r24,record.2028
  53               	.LVL3:
  54 0028 8823      		tst r24
  55 002a 01F0      		breq .L6
  56               	.LM10:
  57 002c 8091 0000 		lds r24,lastMAKE_SIZE
GAS LISTING C:\Users\21030\AppData\Local\Temp/ccCMDFwY.s 			page 2


  58 0030 E82F      		mov r30,r24
  59 0032 F0E0      		ldi r31,lo8(0)
  60 0034 E050      		subi r30,lo8(-(lastMAKE))
  61 0036 F040      		sbci r31,hi8(-(lastMAKE))
  62 0038 2083      		st Z,r18
  63 003a 8F5F      		subi r24,lo8(-(1))
  64 003c 8093 0000 		sts lastMAKE_SIZE,r24
  65               	.L6:
  66               	.LM11:
  67 0040 8091 0000 		lds r24,rear
  68 0044 9091 0000 		lds r25,(rear)+1
  69 0048 0196      		adiw r24,1
  70 004a 68EC      		ldi r22,lo8(200)
  71 004c 70E0      		ldi r23,hi8(200)
  72 004e 0E94 0000 		call __divmodhi4
  73 0052 FC01      		movw r30,r24
  74 0054 9093 0000 		sts (rear)+1,r25
  75 0058 8093 0000 		sts rear,r24
  76               	.LM12:
  77 005c 8091 0000 		lds r24,front
  78 0060 9091 0000 		lds r25,(front)+1
  79 0064 8E17      		cp r24,r30
  80 0066 9F07      		cpc r25,r31
  81 0068 01F4      		brne .L7
  82               	.LM13:
  83 006a 0097      		sbiw r24,0
  84 006c 01F4      		brne .L8
  85 006e 87EC      		ldi r24,lo8(199)
  86 0070 90E0      		ldi r25,hi8(199)
  87 0072 00C0      		rjmp .L9
  88               	.L8:
  89 0074 0197      		sbiw r24,1
  90               	.L9:
  91 0076 9093 0000 		sts (rear)+1,r25
  92 007a 8093 0000 		sts rear,r24
  93 007e 0895      		ret
  94               	.L7:
  95               	.LM14:
  96 0080 E050      		subi r30,lo8(-(QUEUE))
  97 0082 F040      		sbci r31,hi8(-(QUEUE))
  98 0084 2083      		st Z,r18
  99 0086 0895      		ret
 100               	.LFE7:
 101               		.size	push, .-push
 102               	.global	pop
 103               		.type	pop, @function
 104               	pop:
 105               	.LFB8:
 106               	.LM15:
 107               	/* prologue: function */
 108               	/* frame size = 0 */
 109               	.LM16:
 110 0088 2091 0000 		lds r18,front
 111 008c 3091 0000 		lds r19,(front)+1
 112 0090 8091 0000 		lds r24,rear
 113 0094 9091 0000 		lds r25,(rear)+1
 114 0098 2817      		cp r18,r24
GAS LISTING C:\Users\21030\AppData\Local\Temp/ccCMDFwY.s 			page 3


 115 009a 3907      		cpc r19,r25
 116 009c 01F4      		brne .L13
 117 009e 80E0      		ldi r24,lo8(0)
 118 00a0 0895      		ret
 119               	.L13:
 120               	.LM17:
 121 00a2 C901      		movw r24,r18
 122 00a4 0196      		adiw r24,1
 123 00a6 68EC      		ldi r22,lo8(200)
 124 00a8 70E0      		ldi r23,hi8(200)
 125 00aa 0E94 0000 		call __divmodhi4
 126 00ae FC01      		movw r30,r24
 127 00b0 9093 0000 		sts (front)+1,r25
 128 00b4 8093 0000 		sts front,r24
 129               	.LM18:
 130 00b8 E050      		subi r30,lo8(-(QUEUE))
 131 00ba F040      		sbci r31,hi8(-(QUEUE))
 132 00bc 8081      		ld r24,Z
 133               	.LM19:
 134 00be 0895      		ret
 135               	.LFE8:
 136               		.size	pop, .-pop
 137               	.global	isEmpty
 138               		.type	isEmpty, @function
 139               	isEmpty:
 140               	.LFB9:
 141               	.LM20:
 142               	/* prologue: function */
 143               	/* frame size = 0 */
 144               	.LM21:
 145 00c0 40E0      		ldi r20,lo8(0)
 146 00c2 2091 0000 		lds r18,front
 147 00c6 3091 0000 		lds r19,(front)+1
 148 00ca 8091 0000 		lds r24,rear
 149 00ce 9091 0000 		lds r25,(rear)+1
 150 00d2 2817      		cp r18,r24
 151 00d4 3907      		cpc r19,r25
 152 00d6 01F4      		brne .L17
 153 00d8 41E0      		ldi r20,lo8(1)
 154               	.L17:
 155               	.LM22:
 156 00da 842F      		mov r24,r20
 157               	/* epilogue start */
 158 00dc 0895      		ret
 159               	.LFE9:
 160               		.size	isEmpty, .-isEmpty
 161               	.global	clear
 162               		.type	clear, @function
 163               	clear:
 164               	.LFB10:
 165               	.LM23:
 166               	/* prologue: function */
 167               	/* frame size = 0 */
 168               	.LM24:
 169 00de 1092 0000 		sts (front)+1,__zero_reg__
 170 00e2 1092 0000 		sts front,__zero_reg__
 171 00e6 1092 0000 		sts (rear)+1,__zero_reg__
GAS LISTING C:\Users\21030\AppData\Local\Temp/ccCMDFwY.s 			page 4


 172 00ea 1092 0000 		sts rear,__zero_reg__
 173               	.LM25:
 174 00ee 1092 0000 		sts lastMAKE_SIZE,__zero_reg__
 175               	.LM26:
 176 00f2 1092 0000 		sts lastMAKE_IDX,__zero_reg__
 177               	.LM27:
 178 00f6 1092 0000 		sts loopCnt,__zero_reg__
 179 00fa 1092 0000 		sts (loopCnt)+1,__zero_reg__
 180 00fe 1092 0000 		sts (loopCnt)+2,__zero_reg__
 181 0102 1092 0000 		sts (loopCnt)+3,__zero_reg__
 182               	.LM28:
 183 0106 1092 0000 		sts MATRIX,__zero_reg__
 184 010a 1092 0000 		sts (MATRIX)+1,__zero_reg__
 185 010e 1092 0000 		sts (MATRIX)+2,__zero_reg__
 186 0112 1092 0000 		sts (MATRIX)+3,__zero_reg__
 187 0116 1092 0000 		sts MATRIX+4,__zero_reg__
 188 011a 1092 0000 		sts (MATRIX+4)+1,__zero_reg__
 189 011e 1092 0000 		sts (MATRIX+4)+2,__zero_reg__
 190 0122 1092 0000 		sts (MATRIX+4)+3,__zero_reg__
 191 0126 1092 0000 		sts MATRIX+8,__zero_reg__
 192 012a 1092 0000 		sts (MATRIX+8)+1,__zero_reg__
 193 012e 1092 0000 		sts (MATRIX+8)+2,__zero_reg__
 194 0132 1092 0000 		sts (MATRIX+8)+3,__zero_reg__
 195 0136 1092 0000 		sts MATRIX+12,__zero_reg__
 196 013a 1092 0000 		sts (MATRIX+12)+1,__zero_reg__
 197 013e 1092 0000 		sts (MATRIX+12)+2,__zero_reg__
 198 0142 1092 0000 		sts (MATRIX+12)+3,__zero_reg__
 199 0146 1092 0000 		sts MATRIX+16,__zero_reg__
 200 014a 1092 0000 		sts (MATRIX+16)+1,__zero_reg__
 201 014e 1092 0000 		sts (MATRIX+16)+2,__zero_reg__
 202 0152 1092 0000 		sts (MATRIX+16)+3,__zero_reg__
 203 0156 1092 0000 		sts MATRIX+20,__zero_reg__
 204 015a 1092 0000 		sts (MATRIX+20)+1,__zero_reg__
 205 015e 1092 0000 		sts (MATRIX+20)+2,__zero_reg__
 206 0162 1092 0000 		sts (MATRIX+20)+3,__zero_reg__
 207               	/* epilogue start */
 208               	.LM29:
 209 0166 0895      		ret
 210               	.LFE10:
 211               		.size	clear, .-clear
 212               	.global	putKey
 213               		.type	putKey, @function
 214               	putKey:
 215               	.LFB12:
 216               	.LM30:
 217               	.LVL4:
 218 0168 1F93      		push r17
 219 016a CF93      		push r28
 220 016c DF93      		push r29
 221               	/* prologue: function */
 222               	/* frame size = 0 */
 223 016e 982F      		mov r25,r24
 224               	.LBB8:
 225               	.LM31:
 226 0170 282F      		mov r18,r24
 227 0172 30E0      		ldi r19,lo8(0)
 228               	.LVL5:
GAS LISTING C:\Users\21030\AppData\Local\Temp/ccCMDFwY.s 			page 5


 229 0174 F901      		movw r30,r18
 230 0176 E050      		subi r30,lo8(-(keycode_set2))
 231 0178 F040      		sbci r31,hi8(-(keycode_set2))
 232               	/* #APP */
 233               	 ;  108 "ps2main.c" 1
 234 017a 1491      		lpm r17, Z
 235               		
 236               	 ;  0 "" 2
 237               	.LVL6:
 238               	/* #NOAPP */
 239               	.LBE8:
 240               	.LM32:
 241 017c 6623      		tst r22
 242 017e 01F4      		brne .+2
 243 0180 00C0      		rjmp .L22
 244               	.LVL7:
 245               	.LM33:
 246 0182 8093 0000 		sts lastMAKE_keyidx,r24
 247               	.LM34:
 248 0186 1092 0000 		sts loopCnt,__zero_reg__
 249 018a 1092 0000 		sts (loopCnt)+1,__zero_reg__
 250 018e 1092 0000 		sts (loopCnt)+2,__zero_reg__
 251 0192 1092 0000 		sts (loopCnt)+3,__zero_reg__
 252               	.LM35:
 253 0196 1092 0000 		sts m_state,__zero_reg__
 254               	.LM36:
 255 019a E901      		movw r28,r18
 256 019c C050      		subi r28,lo8(-(KFLA))
 257 019e D040      		sbci r29,hi8(-(KFLA))
 258 01a0 8881      		ld r24,Y
 259 01a2 81FF      		sbrs r24,1
 260 01a4 00C0      		rjmp .L23
 261               	.LM37:
 262 01a6 9634      		cpi r25,lo8(70)
 263 01a8 01F0      		breq .L25
 264               	.LVL8:
 265 01aa 9834      		cpi r25,lo8(72)
 266 01ac 01F0      		breq .+2
 267 01ae 00C0      		rjmp .L32
 268 01b0 00C0      		rjmp .L35
 269               	.L25:
 270               	.LM38:
 271 01b2 8FEF      		ldi r24,lo8(-1)
 272 01b4 0E94 0000 		call push
 273               	.LVL9:
 274               	.LM39:
 275 01b8 80EE      		ldi r24,lo8(-32)
 276 01ba 0E94 0000 		call push
 277               	.LM40:
 278 01be 82E1      		ldi r24,lo8(18)
 279 01c0 0E94 0000 		call push
 280               	.LM41:
 281 01c4 80EE      		ldi r24,lo8(-32)
 282 01c6 0E94 0000 		call push
 283               	.LM42:
 284 01ca 8CE7      		ldi r24,lo8(124)
 285 01cc 00C0      		rjmp .L34
GAS LISTING C:\Users\21030\AppData\Local\Temp/ccCMDFwY.s 			page 6


 286               	.LVL10:
 287               	.L35:
 288               	.LM43:
 289 01ce 8DEF      		ldi r24,lo8(-3)
 290 01d0 0E94 0000 		call push
 291               	.LVL11:
 292               	.LM44:
 293 01d4 81EE      		ldi r24,lo8(-31)
 294 01d6 0E94 0000 		call push
 295               	.LM45:
 296 01da 84E1      		ldi r24,lo8(20)
 297 01dc 0E94 0000 		call push
 298               	.LM46:
 299 01e0 87E7      		ldi r24,lo8(119)
 300 01e2 0E94 0000 		call push
 301               	.LM47:
 302 01e6 81EE      		ldi r24,lo8(-31)
 303 01e8 0E94 0000 		call push
 304               	.LM48:
 305 01ec 80EF      		ldi r24,lo8(-16)
 306 01ee 0E94 0000 		call push
 307               	.LM49:
 308 01f2 84E1      		ldi r24,lo8(20)
 309 01f4 0E94 0000 		call push
 310               	.LM50:
 311 01f8 80EF      		ldi r24,lo8(-16)
 312 01fa 0E94 0000 		call push
 313               	.LM51:
 314 01fe 87E7      		ldi r24,lo8(119)
 315 0200 00C0      		rjmp .L33
 316               	.LVL12:
 317               	.L23:
 318               	.LM52:
 319 0202 8FEF      		ldi r24,lo8(-1)
 320 0204 0E94 0000 		call push
 321               	.LVL13:
 322               	.LM53:
 323 0208 8881      		ld r24,Y
 324 020a 80FF      		sbrs r24,0
 325 020c 00C0      		rjmp .L27
 326               	.LM54:
 327 020e 80EE      		ldi r24,lo8(-32)
 328 0210 0E94 0000 		call push
 329               	.L27:
 330               	.LM55:
 331 0214 812F      		mov r24,r17
 332               	.L34:
 333 0216 0E94 0000 		call push
 334               	.LM56:
 335 021a 8EEF      		ldi r24,lo8(-2)
 336 021c 00C0      		rjmp .L33
 337               	.LVL14:
 338               	.L22:
 339               	.LM57:
 340 021e 8091 0000 		lds r24,lastMAKE_keyidx
 341 0222 8917      		cp r24,r25
 342 0224 01F4      		brne .L28
GAS LISTING C:\Users\21030\AppData\Local\Temp/ccCMDFwY.s 			page 7


 343               	.LVL15:
 344               	.LM58:
 345 0226 1092 0000 		sts lastMAKE_SIZE,__zero_reg__
 346               	.L28:
 347               	.LM59:
 348 022a E92F      		mov r30,r25
 349 022c F0E0      		ldi r31,lo8(0)
 350               	.LVL16:
 351 022e E050      		subi r30,lo8(-(KFLA))
 352 0230 F040      		sbci r31,hi8(-(KFLA))
 353               	.LVL17:
 354 0232 8081      		ld r24,Z
 355 0234 81FF      		sbrs r24,1
 356 0236 00C0      		rjmp .L29
 357               	.LM60:
 358 0238 9634      		cpi r25,lo8(70)
 359 023a 01F4      		brne .L32
 360               	.LVL18:
 361               	.LM61:
 362 023c 80EE      		ldi r24,lo8(-32)
 363 023e 0E94 0000 		call push
 364               	.LVL19:
 365               	.LM62:
 366 0242 80EF      		ldi r24,lo8(-16)
 367 0244 0E94 0000 		call push
 368               	.LM63:
 369 0248 8CE7      		ldi r24,lo8(124)
 370 024a 0E94 0000 		call push
 371               	.LM64:
 372 024e 80EE      		ldi r24,lo8(-32)
 373 0250 0E94 0000 		call push
 374               	.LM65:
 375 0254 80EF      		ldi r24,lo8(-16)
 376 0256 0E94 0000 		call push
 377               	.LM66:
 378 025a 82E1      		ldi r24,lo8(18)
 379 025c 00C0      		rjmp .L33
 380               	.LVL20:
 381               	.L29:
 382               	.LM67:
 383 025e 80FF      		sbrs r24,0
 384 0260 00C0      		rjmp .L31
 385               	.LM68:
 386 0262 80EE      		ldi r24,lo8(-32)
 387 0264 0E94 0000 		call push
 388               	.LVL21:
 389               	.L31:
 390               	.LM69:
 391 0268 80EF      		ldi r24,lo8(-16)
 392 026a 0E94 0000 		call push
 393               	.LVL22:
 394               	.LM70:
 395 026e 812F      		mov r24,r17
 396               	.L33:
 397 0270 0E94 0000 		call push
 398               	.LM71:
 399 0274 8CEF      		ldi r24,lo8(-4)
GAS LISTING C:\Users\21030\AppData\Local\Temp/ccCMDFwY.s 			page 8


 400 0276 0E94 0000 		call push
 401               	.LVL23:
 402               	.L32:
 403               	/* epilogue start */
 404               	.LM72:
 405 027a DF91      		pop r29
 406 027c CF91      		pop r28
 407 027e 1F91      		pop r17
 408               	.LVL24:
 409 0280 0895      		ret
 410               	.LFE12:
 411               		.size	putKey, .-putKey
 412               	.global	tx_state
 413               		.type	tx_state, @function
 414               	tx_state:
 415               	.LFB11:
 416               	.LM73:
 417               	.LVL25:
 418 0282 1F93      		push r17
 419               	/* prologue: function */
 420               	/* frame size = 0 */
 421 0284 162F      		mov r17,r22
 422               	.LM74:
 423 0286 8E3F      		cpi r24,lo8(-2)
 424 0288 01F0      		breq .L37
 425               	.LVL26:
 426               	.LM75:
 427 028a 8093 0000 		sts lastSent,r24
 428               	.L37:
 429               	.LM76:
 430 028e 0E94 0000 		call kbd_set_tx
 431               	.LVL27:
 432               	.LM77:
 433 0292 1093 0000 		sts m_state,r17
 434               	/* epilogue start */
 435               	.LM78:
 436 0296 1F91      		pop r17
 437               	.LVL28:
 438 0298 0895      		ret
 439               	.LFE11:
 440               		.size	tx_state, .-tx_state
 441               	.global	processTX
 442               		.type	processTX, @function
 443               	processTX:
 444               	.LFB14:
 445               	.LM79:
 446 029a EF92      		push r14
 447 029c FF92      		push r15
 448 029e 0F93      		push r16
 449 02a0 1F93      		push r17
 450               	/* prologue: function */
 451               	/* frame size = 0 */
 452               	.LM80:
 453 02a2 8091 0000 		lds r24,m_state
 454 02a6 8430      		cpi r24,lo8(4)
 455 02a8 01F4      		brne .+2
 456 02aa 00C0      		rjmp .L43
GAS LISTING C:\Users\21030\AppData\Local\Temp/ccCMDFwY.s 			page 9


 457 02ac 8530      		cpi r24,lo8(5)
 458 02ae 00F4      		brsh .L47
 459 02b0 8823      		tst r24
 460 02b2 01F0      		breq .L41
 461 02b4 8330      		cpi r24,lo8(3)
 462 02b6 01F0      		breq .+2
 463 02b8 00C0      		rjmp .L58
 464 02ba 00C0      		rjmp .L61
 465               	.L47:
 466 02bc 8830      		cpi r24,lo8(8)
 467 02be 01F4      		brne .+2
 468 02c0 00C0      		rjmp .L45
 469 02c2 8C30      		cpi r24,lo8(12)
 470 02c4 01F4      		brne .+2
 471 02c6 00C0      		rjmp .L46
 472 02c8 8530      		cpi r24,lo8(5)
 473 02ca 01F0      		breq .+2
 474 02cc 00C0      		rjmp .L58
 475 02ce 00C0      		rjmp .L44
 476               	.L41:
 477               	.LBB9:
 478               	.LBB10:
 479               	.LM81:
 480 02d0 2091 0000 		lds r18,front
 481 02d4 3091 0000 		lds r19,(front)+1
 482 02d8 8091 0000 		lds r24,rear
 483 02dc 9091 0000 		lds r25,(rear)+1
 484 02e0 2817      		cp r18,r24
 485 02e2 3907      		cpc r19,r25
 486 02e4 01F4      		brne .L49
 487               	.LBE10:
 488               	.LBE9:
 489               	.LM82:
 490 02e6 0E94 0000 		call scankey
 491               	.L49:
 492               	.LM83:
 493 02ea 0E94 0000 		call pop
 494 02ee 182F      		mov r17,r24
 495               	.LVL29:
 496               	.LM84:
 497 02f0 8C3F      		cpi r24,lo8(-4)
 498 02f2 01F4      		brne .+2
 499 02f4 00C0      		rjmp .L48
 500               	.LVL30:
 501               	.LM85:
 502 02f6 8823      		tst r24
 503 02f8 01F0      		breq .L50
 504               	.LM86:
 505 02fa 60E0      		ldi r22,lo8(0)
 506 02fc 0E94 0000 		call tx_state
 507               	.LVL31:
 508               	.LM87:
 509 0300 1092 0000 		sts loopCnt,__zero_reg__
 510 0304 1092 0000 		sts (loopCnt)+1,__zero_reg__
 511 0308 1092 0000 		sts (loopCnt)+2,__zero_reg__
 512 030c 1092 0000 		sts (loopCnt)+3,__zero_reg__
 513 0310 00C0      		rjmp .L48
GAS LISTING C:\Users\21030\AppData\Local\Temp/ccCMDFwY.s 			page 10


 514               	.LVL32:
 515               	.L50:
 516               	.LM88:
 517 0312 8091 0000 		lds r24,lastMAKE_SIZE
 518               	.LVL33:
 519 0316 8823      		tst r24
 520 0318 01F4      		brne .+2
 521 031a 00C0      		rjmp .L48
 522               	.LM89:
 523 031c 8091 0000 		lds r24,loopCnt
 524 0320 9091 0000 		lds r25,(loopCnt)+1
 525 0324 A091 0000 		lds r26,(loopCnt)+2
 526 0328 B091 0000 		lds r27,(loopCnt)+3
 527 032c 0196      		adiw r24,1
 528 032e A11D      		adc r26,__zero_reg__
 529 0330 B11D      		adc r27,__zero_reg__
 530 0332 8093 0000 		sts loopCnt,r24
 531 0336 9093 0000 		sts (loopCnt)+1,r25
 532 033a A093 0000 		sts (loopCnt)+2,r26
 533 033e B093 0000 		sts (loopCnt)+3,r27
 534               	.LM90:
 535 0342 2091 0000 		lds r18,TYPEMATIC_DELAY
 536 0346 62E3      		ldi r22,lo8(50)
 537 0348 269F      		mul r18,r22
 538 034a 9001      		movw r18,r0
 539 034c 1124      		clr r1
 540 034e 2C59      		subi r18,lo8(-(100))
 541 0350 3F4F      		sbci r19,hi8(-(100))
 542 0352 4427      		clr r20
 543 0354 37FD      		sbrc r19,7
 544 0356 4095      		com r20
 545 0358 542F      		mov r21,r20
 546 035a 8217      		cp r24,r18
 547 035c 9307      		cpc r25,r19
 548 035e A407      		cpc r26,r20
 549 0360 B507      		cpc r27,r21
 550 0362 04F4      		brge .+2
 551 0364 00C0      		rjmp .L48
 552               	.LM91:
 553 0366 1092 0000 		sts loopCnt,__zero_reg__
 554 036a 1092 0000 		sts (loopCnt)+1,__zero_reg__
 555 036e 1092 0000 		sts (loopCnt)+2,__zero_reg__
 556 0372 1092 0000 		sts (loopCnt)+3,__zero_reg__
 557               	.LM92:
 558 0376 1092 0000 		sts lastMAKE_IDX,__zero_reg__
 559               	.LM93:
 560 037a 8CE0      		ldi r24,lo8(12)
 561 037c 8093 0000 		sts m_state,r24
 562 0380 00C0      		rjmp .L48
 563               	.LVL34:
 564               	.L46:
 565               	.LM94:
 566 0382 8091 0000 		lds r24,lastMAKE_IDX
 567 0386 8823      		tst r24
 568 0388 01F4      		brne .L51
 569               	.LM95:
 570 038a 0E94 0000 		call scankey
GAS LISTING C:\Users\21030\AppData\Local\Temp/ccCMDFwY.s 			page 11


 571               	.L51:
 572               	.LM96:
 573 038e 8091 0000 		lds r24,lastMAKE_SIZE
 574 0392 8823      		tst r24
 575 0394 01F0      		breq .L52
 576               	.LBB11:
 577               	.LBB12:
 578               	.LM97:
 579 0396 2091 0000 		lds r18,front
 580 039a 3091 0000 		lds r19,(front)+1
 581 039e 8091 0000 		lds r24,rear
 582 03a2 9091 0000 		lds r25,(rear)+1
 583 03a6 2817      		cp r18,r24
 584 03a8 3907      		cpc r19,r25
 585 03aa 01F4      		brne .L52
 586               	.LBE12:
 587               	.LBE11:
 588               	.LM98:
 589 03ac 8091 0000 		lds r24,loopCnt
 590 03b0 9091 0000 		lds r25,(loopCnt)+1
 591 03b4 A091 0000 		lds r26,(loopCnt)+2
 592 03b8 B091 0000 		lds r27,(loopCnt)+3
 593 03bc 0197      		sbiw r24,1
 594 03be A105      		cpc r26,__zero_reg__
 595 03c0 B105      		cpc r27,__zero_reg__
 596 03c2 01F4      		brne .L57
 597 03c4 00C0      		rjmp .L53
 598               	.L52:
 599               	.LM99:
 600 03c6 1092 0000 		sts m_state,__zero_reg__
 601               	.LM100:
 602 03ca 1092 0000 		sts loopCnt,__zero_reg__
 603 03ce 1092 0000 		sts (loopCnt)+1,__zero_reg__
 604 03d2 1092 0000 		sts (loopCnt)+2,__zero_reg__
 605 03d6 1092 0000 		sts (loopCnt)+3,__zero_reg__
 606 03da 00C0      		rjmp .L58
 607               	.L57:
 608               	.LM101:
 609 03dc 8091 0000 		lds r24,lastMAKE_IDX
 610 03e0 8823      		tst r24
 611 03e2 01F0      		breq .L55
 612               	.L53:
 613               	.LM102:
 614 03e4 9091 0000 		lds r25,lastMAKE_IDX
 615 03e8 E92F      		mov r30,r25
 616 03ea F0E0      		ldi r31,lo8(0)
 617 03ec E050      		subi r30,lo8(-(lastMAKE))
 618 03ee F040      		sbci r31,hi8(-(lastMAKE))
 619 03f0 8081      		ld r24,Z
 620 03f2 9F5F      		subi r25,lo8(-(1))
 621 03f4 9093 0000 		sts lastMAKE_IDX,r25
 622 03f8 6CE0      		ldi r22,lo8(12)
 623 03fa 0E94 0000 		call tx_state
 624               	.LM103:
 625 03fe 6091 0000 		lds r22,lastMAKE_SIZE
 626 0402 8091 0000 		lds r24,lastMAKE_IDX
 627 0406 0E94 0000 		call __udivmodqi4
GAS LISTING C:\Users\21030\AppData\Local\Temp/ccCMDFwY.s 			page 12


 628 040a 9093 0000 		sts lastMAKE_IDX,r25
 629               	.L55:
 630               	.LM104:
 631 040e E090 0000 		lds r14,loopCnt
 632 0412 F090 0000 		lds r15,(loopCnt)+1
 633 0416 0091 0000 		lds r16,(loopCnt)+2
 634 041a 1091 0000 		lds r17,(loopCnt)+3
 635 041e 0894      		sec
 636 0420 E11C      		adc r14,__zero_reg__
 637 0422 F11C      		adc r15,__zero_reg__
 638 0424 011D      		adc r16,__zero_reg__
 639 0426 111D      		adc r17,__zero_reg__
 640 0428 6091 0000 		lds r22,TYPEMATIC_REPEAT
 641 042c 7091 0000 		lds r23,(TYPEMATIC_REPEAT)+1
 642 0430 8091 0000 		lds r24,(TYPEMATIC_REPEAT)+2
 643 0434 9091 0000 		lds r25,(TYPEMATIC_REPEAT)+3
 644 0438 2AE0      		ldi r18,lo8(10)
 645 043a 30E0      		ldi r19,hi8(10)
 646 043c 40E0      		ldi r20,hlo8(10)
 647 043e 50E0      		ldi r21,hhi8(10)
 648 0440 0E94 0000 		call __mulsi3
 649 0444 9B01      		movw r18,r22
 650 0446 AC01      		movw r20,r24
 651 0448 2D5F      		subi r18,lo8(-(3))
 652 044a 3F4F      		sbci r19,hi8(-(3))
 653 044c 4F4F      		sbci r20,hlo8(-(3))
 654 044e 5F4F      		sbci r21,hhi8(-(3))
 655 0450 C801      		movw r24,r16
 656 0452 B701      		movw r22,r14
 657 0454 0E94 0000 		call __divmodsi4
 658 0458 6093 0000 		sts loopCnt,r22
 659 045c 7093 0000 		sts (loopCnt)+1,r23
 660 0460 8093 0000 		sts (loopCnt)+2,r24
 661 0464 9093 0000 		sts (loopCnt)+3,r25
 662 0468 00C0      		rjmp .L58
 663               	.L61:
 664               	.LM105:
 665 046a 82E0      		ldi r24,lo8(2)
 666 046c 00C0      		rjmp .L59
 667               	.L43:
 668               	.LM106:
 669 046e 8BEA      		ldi r24,lo8(-85)
 670 0470 65E0      		ldi r22,lo8(5)
 671 0472 00C0      		rjmp .L60
 672               	.L44:
 673               	.LM107:
 674 0474 83E8      		ldi r24,lo8(-125)
 675 0476 00C0      		rjmp .L59
 676               	.L45:
 677               	.LM108:
 678 0478 0E94 0000 		call clear
 679               	.LM109:
 680 047c 80E0      		ldi r24,lo8(0)
 681 047e 0E94 0000 		call led_check
 682               	.LM110:
 683 0482 0E94 0000 		call led_mode_init
 684               	.LM111:
GAS LISTING C:\Users\21030\AppData\Local\Temp/ccCMDFwY.s 			page 13


 685 0486 8AEA      		ldi r24,lo8(-86)
 686               	.L59:
 687 0488 60E0      		ldi r22,lo8(0)
 688               	.L60:
 689 048a 0E94 0000 		call tx_state
 690               	.L58:
 691 048e 10E0      		ldi r17,lo8(0)
 692               	.LVL35:
 693               	.L48:
 694               	.LM112:
 695 0490 812F      		mov r24,r17
 696 0492 90E0      		ldi r25,lo8(0)
 697               	/* epilogue start */
 698 0494 1F91      		pop r17
 699               	.LVL36:
 700 0496 0F91      		pop r16
 701 0498 FF90      		pop r15
 702 049a EF90      		pop r14
 703 049c 0895      		ret
 704               	.LFE14:
 705               		.size	processTX, .-processTX
 706               	.global	processRX
 707               		.type	processRX, @function
 708               	processRX:
 709               	.LFB13:
 710               	.LM113:
 711 049e 1F93      		push r17
 712               	/* prologue: function */
 713               	/* frame size = 0 */
 714               	.LM114:
 715 04a0 0E94 0000 		call kbd_get_rx_char
 716 04a4 182F      		mov r17,r24
 717               	.LVL37:
 718               	.LM115:
 719 04a6 6091 0000 		lds r22,m_state
 720 04aa 6230      		cpi r22,lo8(2)
 721 04ac 01F0      		breq .L65
 722 04ae 6330      		cpi r22,lo8(3)
 723 04b0 00F4      		brsh .L68
 724 04b2 6130      		cpi r22,lo8(1)
 725 04b4 01F0      		breq .+2
 726 04b6 00C0      		rjmp .L63
 727 04b8 00C0      		rjmp .L100
 728               	.L68:
 729 04ba 6630      		cpi r22,lo8(6)
 730 04bc 01F4      		brne .+2
 731 04be 00C0      		rjmp .L66
 732 04c0 6730      		cpi r22,lo8(7)
 733 04c2 01F0      		breq .+2
 734 04c4 00C0      		rjmp .L63
 735 04c6 00C0      		rjmp .L101
 736               	.L100:
 737               	.LM116:
 738 04c8 853F      		cpi r24,lo8(-11)
 739 04ca 01F4      		brne .+2
 740 04cc 00C0      		rjmp .L81
 741               	.LVL38:
GAS LISTING C:\Users\21030\AppData\Local\Temp/ccCMDFwY.s 			page 14


 742               	.L69:
 743               	.LM117:
 744 04ce 8AEF      		ldi r24,lo8(-6)
 745               	.LVL39:
 746 04d0 61E0      		ldi r22,lo8(1)
 747 04d2 00C0      		rjmp .L99
 748               	.L65:
 749               	.LM118:
 750 04d4 0E94 0000 		call clear
 751               	.LM119:
 752 04d8 1123      		tst r17
 753 04da 01F0      		breq .L71
 754 04dc 60E0      		ldi r22,lo8(0)
 755 04de 00C0      		rjmp .L72
 756               	.L71:
 757 04e0 63E0      		ldi r22,lo8(3)
 758               	.L72:
 759 04e2 8AEF      		ldi r24,lo8(-6)
 760 04e4 00C0      		rjmp .L99
 761               	.L101:
 762               	.LM120:
 763 04e6 682F      		mov r22,r24
 764 04e8 70E0      		ldi r23,lo8(0)
 765 04ea CB01      		movw r24,r22
 766 04ec 8076      		andi r24,lo8(96)
 767 04ee 9070      		andi r25,hi8(96)
 768 04f0 A5E0      		ldi r26,5
 769 04f2 9595      	1:	asr r25
 770 04f4 8795      		ror r24
 771 04f6 AA95      		dec r26
 772 04f8 01F4      		brne 1b
 773 04fa 8093 0000 		sts TYPEMATIC_DELAY,r24
 774               	.LM121:
 775 04fe AB01      		movw r20,r22
 776               	.LVL40:
 777 0500 4871      		andi r20,lo8(24)
 778 0502 5070      		andi r21,hi8(24)
 779 0504 F3E0      		ldi r31,3
 780 0506 5595      	1:	asr r21
 781 0508 4795      		ror r20
 782 050a FA95      		dec r31
 783 050c 01F4      		brne 1b
 784 050e 80E0      		ldi r24,lo8(0)
 785 0510 90E0      		ldi r25,hi8(0)
 786               	.LVL41:
 787 0512 21E0      		ldi r18,lo8(1)
 788 0514 30E0      		ldi r19,hi8(1)
 789               	.LVL42:
 790 0516 00C0      		rjmp .L73
 791               	.L74:
 792               	.LM122:
 793 0518 220F      		lsl r18
 794 051a 331F      		rol r19
 795               	.LM123:
 796 051c 0196      		adiw r24,1
 797               	.L73:
 798 051e 8417      		cp r24,r20
GAS LISTING C:\Users\21030\AppData\Local\Temp/ccCMDFwY.s 			page 15


 799 0520 9507      		cpc r25,r21
 800 0522 04F0      		brlt .L74
 801               	.LM124:
 802 0524 6770      		andi r22,lo8(7)
 803 0526 7070      		andi r23,hi8(7)
 804 0528 269F      		mul r18,r22
 805 052a C001      		movw r24,r0
 806 052c 279F      		mul r18,r23
 807 052e 900D      		add r25,r0
 808 0530 369F      		mul r19,r22
 809 0532 900D      		add r25,r0
 810 0534 1124      		clr r1
 811               	.LVL43:
 812 0536 AA27      		clr r26
 813 0538 97FD      		sbrc r25,7
 814 053a A095      		com r26
 815 053c BA2F      		mov r27,r26
 816 053e 8093 0000 		sts TYPEMATIC_REPEAT,r24
 817 0542 9093 0000 		sts (TYPEMATIC_REPEAT)+1,r25
 818 0546 A093 0000 		sts (TYPEMATIC_REPEAT)+2,r26
 819 054a B093 0000 		sts (TYPEMATIC_REPEAT)+3,r27
 820 054e 00C0      		rjmp .L81
 821               	.LVL44:
 822               	.L66:
 823 0550 2091 0000 		lds r18,LEDstate
 824               	.LM125:
 825 0554 80FF      		sbrs r24,0
 826 0556 00C0      		rjmp .L75
 827               	.LM126:
 828 0558 2460      		ori r18,lo8(4)
 829 055a 00C0      		rjmp .L96
 830               	.L75:
 831               	.LM127:
 832 055c 2B7F      		andi r18,lo8(-5)
 833               	.L96:
 834 055e 2093 0000 		sts LEDstate,r18
 835 0562 2091 0000 		lds r18,LEDstate
 836               	.LM128:
 837 0566 81FF      		sbrs r24,1
 838 0568 00C0      		rjmp .L77
 839               	.LM129:
 840 056a 2160      		ori r18,lo8(1)
 841 056c 00C0      		rjmp .L97
 842               	.L77:
 843               	.LM130:
 844 056e 2E7F      		andi r18,lo8(-2)
 845               	.L97:
 846 0570 2093 0000 		sts LEDstate,r18
 847 0574 2091 0000 		lds r18,LEDstate
 848               	.LM131:
 849 0578 82FF      		sbrs r24,2
 850 057a 00C0      		rjmp .L79
 851               	.LM132:
 852 057c 2260      		ori r18,lo8(2)
 853 057e 00C0      		rjmp .L98
 854               	.L79:
 855               	.LM133:
GAS LISTING C:\Users\21030\AppData\Local\Temp/ccCMDFwY.s 			page 16


 856 0580 2D7F      		andi r18,lo8(-3)
 857               	.L98:
 858 0582 2093 0000 		sts LEDstate,r18
 859               	.LM134:
 860 0586 8091 0000 		lds r24,LEDstate
 861 058a 0E94 0000 		call led_3lockupdate
 862 058e 00C0      		rjmp .L81
 863               	.L63:
 864               	.LM135:
 865 0590 133F      		cpi r17,lo8(-13)
 866 0592 01F0      		breq .L86
 867 0594 143F      		cpi r17,lo8(-12)
 868 0596 00F4      		brsh .L92
 869 0598 1E3E      		cpi r17,lo8(-18)
 870 059a 01F0      		breq .L83
 871 059c 1F3E      		cpi r17,lo8(-17)
 872 059e 00F4      		brsh .L93
 873 05a0 1D3E      		cpi r17,lo8(-19)
 874 05a2 01F4      		brne .L81
 875 05a4 00C0      		rjmp .L102
 876               	.L93:
 877 05a6 103F      		cpi r17,lo8(-16)
 878 05a8 01F0      		breq .L84
 879 05aa 123F      		cpi r17,lo8(-14)
 880 05ac 01F4      		brne .L81
 881 05ae 00C0      		rjmp .L103
 882               	.L92:
 883 05b0 163F      		cpi r17,lo8(-10)
 884 05b2 01F0      		breq .L89
 885 05b4 173F      		cpi r17,lo8(-9)
 886 05b6 00F0      		brlo .L81
 887               	.L94:
 888 05b8 1E3F      		cpi r17,lo8(-2)
 889 05ba 01F0      		breq .L90
 890 05bc 1F3F      		cpi r17,lo8(-1)
 891 05be 01F4      		brne .L81
 892 05c0 00C0      		rjmp .L104
 893               	.L83:
 894               	.LM136:
 895 05c2 8EEE      		ldi r24,lo8(-18)
 896 05c4 00C0      		rjmp .L99
 897               	.L103:
 898               	.LM137:
 899 05c6 8AEF      		ldi r24,lo8(-6)
 900 05c8 64E0      		ldi r22,lo8(4)
 901 05ca 00C0      		rjmp .L99
 902               	.L104:
 903               	.LM138:
 904 05cc 8AEF      		ldi r24,lo8(-6)
 905 05ce 68E0      		ldi r22,lo8(8)
 906 05d0 00C0      		rjmp .L99
 907               	.L90:
 908               	.LM139:
 909 05d2 8091 0000 		lds r24,lastSent
 910 05d6 00C0      		rjmp .L99
 911               	.L84:
 912               	.LM140:
GAS LISTING C:\Users\21030\AppData\Local\Temp/ccCMDFwY.s 			page 17


 913 05d8 8AEF      		ldi r24,lo8(-6)
 914 05da 62E0      		ldi r22,lo8(2)
 915 05dc 00C0      		rjmp .L99
 916               	.L102:
 917               	.LM141:
 918 05de 8AEF      		ldi r24,lo8(-6)
 919 05e0 66E0      		ldi r22,lo8(6)
 920 05e2 00C0      		rjmp .L99
 921               	.L86:
 922               	.LM142:
 923 05e4 8AEF      		ldi r24,lo8(-6)
 924 05e6 67E0      		ldi r22,lo8(7)
 925 05e8 00C0      		rjmp .L99
 926               	.L89:
 927               	.LM143:
 928 05ea 81E0      		ldi r24,lo8(1)
 929 05ec 8093 0000 		sts TYPEMATIC_DELAY,r24
 930               	.LM144:
 931 05f0 85E0      		ldi r24,lo8(5)
 932 05f2 90E0      		ldi r25,hi8(5)
 933 05f4 A0E0      		ldi r26,hlo8(5)
 934 05f6 B0E0      		ldi r27,hhi8(5)
 935 05f8 8093 0000 		sts TYPEMATIC_REPEAT,r24
 936 05fc 9093 0000 		sts (TYPEMATIC_REPEAT)+1,r25
 937 0600 A093 0000 		sts (TYPEMATIC_REPEAT)+2,r26
 938 0604 B093 0000 		sts (TYPEMATIC_REPEAT)+3,r27
 939               	.LM145:
 940 0608 0E94 0000 		call clear
 941               	.LVL45:
 942               	.L81:
 943               	.LM146:
 944 060c 8AEF      		ldi r24,lo8(-6)
 945 060e 60E0      		ldi r22,lo8(0)
 946               	.L99:
 947 0610 0E94 0000 		call tx_state
 948               	.LVL46:
 949               	.LM147:
 950 0614 80E0      		ldi r24,lo8(0)
 951 0616 90E0      		ldi r25,hi8(0)
 952               	/* epilogue start */
 953 0618 1F91      		pop r17
 954               	.LVL47:
 955 061a 0895      		ret
 956               	.LFE13:
 957               		.size	processRX, .-processRX
 958               	.global	ps2main
 959               		.type	ps2main, @function
 960               	ps2main:
 961               	.LFB15:
 962               	.LM148:
 963 061c CF93      		push r28
 964 061e DF93      		push r29
 965               	/* prologue: function */
 966               	/* frame size = 0 */
 967               	.LM149:
 968 0620 88E0      		ldi r24,lo8(8)
 969 0622 8093 0000 		sts m_state,r24
GAS LISTING C:\Users\21030\AppData\Local\Temp/ccCMDFwY.s 			page 18


 970               	.LM150:
 971               	/* #APP */
 972               	 ;  383 "ps2main.c" 1
 973 0626 F894      		cli
 974               	 ;  0 "" 2
 975               	.LM151:
 976               	/* #NOAPP */
 977 0628 0E94 0000 		call kbd_init
 978               	.LM152:
 979 062c 2FE0      		ldi r18,lo8(15)
 980 062e 88E1      		ldi r24,lo8(24)
 981 0630 90E0      		ldi r25,hi8(24)
 982               	/* #APP */
 983               	 ;  390 "ps2main.c" 1
 984 0632 0FB6      		in __tmp_reg__,__SREG__
 985 0634 F894      		cli
 986 0636 A895      		wdr
 987 0638 81BD      		out 33,r24
 988 063a 0FBE      		out __SREG__,__tmp_reg__
 989 063c 21BD      		out 33,r18
 990               	 ;  0 "" 2
 991               	.LM153:
 992               	 ;  391 "ps2main.c" 1
 993 063e 7894      		sei
 994               	 ;  0 "" 2
 995               	/* #NOAPP */
 996 0640 C0E0      		ldi r28,lo8(0)
 997 0642 D0E0      		ldi r29,hi8(0)
 998               	.LVL48:
 999               	.L112:
 1000               	.LM154:
 1001               	/* #APP */
 1002               	 ;  395 "ps2main.c" 1
 1003 0644 A895      		wdr
 1004               	 ;  0 "" 2
 1005               	.LM155:
 1006               	/* #NOAPP */
 1007 0646 8091 0000 		lds r24,kbd_flags
 1008 064a 82FF      		sbrs r24,2
 1009 064c 00C0      		rjmp .L106
 1010 064e CC3F      		cpi r28,252
 1011 0650 D105      		cpc r29,__zero_reg__
 1012 0652 01F0      		breq .L107
 1013               	.LBB13:
 1014               	.LBB14:
 1015               	.LM156:
 1016 0654 2091 0000 		lds r18,front
 1017 0658 3091 0000 		lds r19,(front)+1
 1018 065c 8091 0000 		lds r24,rear
 1019 0660 9091 0000 		lds r25,(rear)+1
 1020 0664 2817      		cp r18,r24
 1021 0666 3907      		cpc r19,r25
 1022 0668 01F4      		brne .L106
 1023               	.L107:
 1024               	.LBE14:
 1025               	.LBE13:
 1026               	.LM157:
GAS LISTING C:\Users\21030\AppData\Local\Temp/ccCMDFwY.s 			page 19


 1027 066a 0E94 0000 		call processRX
 1028               	.L106:
 1029               	.LM158:
 1030 066e 8091 0000 		lds r24,kbd_flags
 1031 0672 84FF      		sbrs r24,4
 1032 0674 00C0      		rjmp .L112
 1033               	.LM159:
 1034 0676 0E94 0000 		call processTX
 1035 067a EC01      		movw r28,r24
 1036 067c 00C0      		rjmp .L112
 1037               	.LFE15:
 1038               		.size	ps2main, .-ps2main
 1039               	.global	txScanCode
 1040               	.global	txScanCode
 1041               		.section .bss
 1042               		.type	txScanCode, @object
 1043               		.size	txScanCode, 1
 1044               	txScanCode:
 1045 0000 00        		.skip 1,0
 1046               		.lcomm lastMAKE_SIZE,1
 1047               		.data
 1048               		.type	TYPEMATIC_DELAY, @object
 1049               		.size	TYPEMATIC_DELAY, 1
 1050               	TYPEMATIC_DELAY:
 1051 0000 02        		.byte	2
 1052               		.lcomm lastMAKE_IDX,1
 1053               		.type	TYPEMATIC_REPEAT, @object
 1054               		.size	TYPEMATIC_REPEAT, 4
 1055               	TYPEMATIC_REPEAT:
 1056 0001 0A        		.byte	10
 1057 0002 00        		.byte	0
 1058 0003 00        		.byte	0
 1059 0004 00        		.byte	0
 1060               		.lcomm front,2
 1061               		.lcomm rear,2
 1062               		.lcomm record.2028,1
 1063               		.lcomm QUEUE,200
 1064               		.lcomm lastMAKE_keyidx,1
 1065               		.lcomm lastMAKE,10
 1066               		.lcomm loopCnt,4
 1067               		.comm m_state,1,1
 1068               		.comm lastSent,1,1
 1069               		.comm lastState,1,1
 1070               		.section	.debug_frame,"",@progbits
 1071               	.Lframe0:
 1072 0000 0C00 0000 		.long	.LECIE0-.LSCIE0
 1073               	.LSCIE0:
 1074 0004 FFFF FFFF 		.long	0xffffffff
 1075 0008 01        		.byte	0x1
 1076 0009 00        		.string	""
 1077 000a 01        		.uleb128 0x1
 1078 000b 7F        		.sleb128 -1
 1079 000c 24        		.byte	0x24
 1080 000d 0C        		.byte	0xc
 1081 000e 20        		.uleb128 0x20
 1082 000f 00        		.uleb128 0x0
 1083               		.p2align	2
GAS LISTING C:\Users\21030\AppData\Local\Temp/ccCMDFwY.s 			page 20


 1084               	.LECIE0:
 1085               	.LSFDE0:
 1086 0010 0C00 0000 		.long	.LEFDE0-.LASFDE0
 1087               	.LASFDE0:
 1088 0014 0000 0000 		.long	.Lframe0
 1089 0018 0000 0000 		.long	.LFB7
 1090 001c 8800 0000 		.long	.LFE7-.LFB7
 1091               		.p2align	2
 1092               	.LEFDE0:
 1093               	.LSFDE2:
 1094 0020 0C00 0000 		.long	.LEFDE2-.LASFDE2
 1095               	.LASFDE2:
 1096 0024 0000 0000 		.long	.Lframe0
 1097 0028 0000 0000 		.long	.LFB8
 1098 002c 3800 0000 		.long	.LFE8-.LFB8
 1099               		.p2align	2
 1100               	.LEFDE2:
 1101               	.LSFDE4:
 1102 0030 0C00 0000 		.long	.LEFDE4-.LASFDE4
 1103               	.LASFDE4:
 1104 0034 0000 0000 		.long	.Lframe0
 1105 0038 0000 0000 		.long	.LFB9
 1106 003c 1E00 0000 		.long	.LFE9-.LFB9
 1107               		.p2align	2
 1108               	.LEFDE4:
 1109               	.LSFDE6:
 1110 0040 0C00 0000 		.long	.LEFDE6-.LASFDE6
 1111               	.LASFDE6:
 1112 0044 0000 0000 		.long	.Lframe0
 1113 0048 0000 0000 		.long	.LFB10
 1114 004c 8A00 0000 		.long	.LFE10-.LFB10
 1115               		.p2align	2
 1116               	.LEFDE6:
 1117               	.LSFDE8:
 1118 0050 0C00 0000 		.long	.LEFDE8-.LASFDE8
 1119               	.LASFDE8:
 1120 0054 0000 0000 		.long	.Lframe0
 1121 0058 0000 0000 		.long	.LFB12
 1122 005c 1A01 0000 		.long	.LFE12-.LFB12
 1123               		.p2align	2
 1124               	.LEFDE8:
 1125               	.LSFDE10:
 1126 0060 0C00 0000 		.long	.LEFDE10-.LASFDE10
 1127               	.LASFDE10:
 1128 0064 0000 0000 		.long	.Lframe0
 1129 0068 0000 0000 		.long	.LFB11
 1130 006c 1800 0000 		.long	.LFE11-.LFB11
 1131               		.p2align	2
 1132               	.LEFDE10:
 1133               	.LSFDE12:
 1134 0070 0C00 0000 		.long	.LEFDE12-.LASFDE12
 1135               	.LASFDE12:
 1136 0074 0000 0000 		.long	.Lframe0
 1137 0078 0000 0000 		.long	.LFB14
 1138 007c 0402 0000 		.long	.LFE14-.LFB14
 1139               		.p2align	2
 1140               	.LEFDE12:
GAS LISTING C:\Users\21030\AppData\Local\Temp/ccCMDFwY.s 			page 21


 1141               	.LSFDE14:
 1142 0080 0C00 0000 		.long	.LEFDE14-.LASFDE14
 1143               	.LASFDE14:
 1144 0084 0000 0000 		.long	.Lframe0
 1145 0088 0000 0000 		.long	.LFB13
 1146 008c 7E01 0000 		.long	.LFE13-.LFB13
 1147               		.p2align	2
 1148               	.LEFDE14:
 1149               	.LSFDE16:
 1150 0090 0C00 0000 		.long	.LEFDE16-.LASFDE16
 1151               	.LASFDE16:
 1152 0094 0000 0000 		.long	.Lframe0
 1153 0098 0000 0000 		.long	.LFB15
 1154 009c 6200 0000 		.long	.LFE15-.LFB15
 1155               		.p2align	2
 1156               	.LEFDE16:
 1157               		.text
 1158               	.Letext0:
 1159               		.section	.debug_loc,"",@progbits
 1160               	.Ldebug_loc0:
 1161               	.LLST1:
 1162 0000 0000 0000 		.long	.LVL0-.Ltext0
 1163 0004 0C00 0000 		.long	.LVL1-.Ltext0
 1164 0008 0100      		.word	0x1
 1165 000a 68        		.byte	0x68
 1166 000b 0C00 0000 		.long	.LVL1-.Ltext0
 1167 000f 1200 0000 		.long	.LVL2-.Ltext0
 1168 0013 0100      		.word	0x1
 1169 0015 62        		.byte	0x62
 1170 0016 1200 0000 		.long	.LVL2-.Ltext0
 1171 001a 2800 0000 		.long	.LVL3-.Ltext0
 1172 001e 0100      		.word	0x1
 1173 0020 68        		.byte	0x68
 1174 0021 2800 0000 		.long	.LVL3-.Ltext0
 1175 0025 8800 0000 		.long	.LFE7-.Ltext0
 1176 0029 0100      		.word	0x1
 1177 002b 62        		.byte	0x62
 1178 002c 0000 0000 		.long	0x0
 1179 0030 0000 0000 		.long	0x0
 1180               	.LLST6:
 1181 0034 6801 0000 		.long	.LVL4-.Ltext0
 1182 0038 7401 0000 		.long	.LVL5-.Ltext0
 1183 003c 0100      		.word	0x1
 1184 003e 68        		.byte	0x68
 1185 003f 7401 0000 		.long	.LVL5-.Ltext0
 1186 0043 AA01 0000 		.long	.LVL8-.Ltext0
 1187 0047 0600      		.word	0x6
 1188 0049 62        		.byte	0x62
 1189 004a 93        		.byte	0x93
 1190 004b 01        		.uleb128 0x1
 1191 004c 63        		.byte	0x63
 1192 004d 93        		.byte	0x93
 1193 004e 01        		.uleb128 0x1
 1194 004f AA01 0000 		.long	.LVL8-.Ltext0
 1195 0053 B801 0000 		.long	.LVL9-.Ltext0
 1196 0057 0600      		.word	0x6
 1197 0059 69        		.byte	0x69
GAS LISTING C:\Users\21030\AppData\Local\Temp/ccCMDFwY.s 			page 22


 1198 005a 93        		.byte	0x93
 1199 005b 01        		.uleb128 0x1
 1200 005c 63        		.byte	0x63
 1201 005d 93        		.byte	0x93
 1202 005e 01        		.uleb128 0x1
 1203 005f CE01 0000 		.long	.LVL10-.Ltext0
 1204 0063 D401 0000 		.long	.LVL11-.Ltext0
 1205 0067 0600      		.word	0x6
 1206 0069 69        		.byte	0x69
 1207 006a 93        		.byte	0x93
 1208 006b 01        		.uleb128 0x1
 1209 006c 63        		.byte	0x63
 1210 006d 93        		.byte	0x93
 1211 006e 01        		.uleb128 0x1
 1212 006f 0202 0000 		.long	.LVL12-.Ltext0
 1213 0073 0802 0000 		.long	.LVL13-.Ltext0
 1214 0077 0600      		.word	0x6
 1215 0079 62        		.byte	0x62
 1216 007a 93        		.byte	0x93
 1217 007b 01        		.uleb128 0x1
 1218 007c 63        		.byte	0x63
 1219 007d 93        		.byte	0x93
 1220 007e 01        		.uleb128 0x1
 1221 007f 1E02 0000 		.long	.LVL14-.Ltext0
 1222 0083 2602 0000 		.long	.LVL15-.Ltext0
 1223 0087 0600      		.word	0x6
 1224 0089 62        		.byte	0x62
 1225 008a 93        		.byte	0x93
 1226 008b 01        		.uleb128 0x1
 1227 008c 63        		.byte	0x63
 1228 008d 93        		.byte	0x93
 1229 008e 01        		.uleb128 0x1
 1230 008f 2602 0000 		.long	.LVL15-.Ltext0
 1231 0093 2E02 0000 		.long	.LVL16-.Ltext0
 1232 0097 0600      		.word	0x6
 1233 0099 69        		.byte	0x69
 1234 009a 93        		.byte	0x93
 1235 009b 01        		.uleb128 0x1
 1236 009c 63        		.byte	0x63
 1237 009d 93        		.byte	0x93
 1238 009e 01        		.uleb128 0x1
 1239 009f 2E02 0000 		.long	.LVL16-.Ltext0
 1240 00a3 3C02 0000 		.long	.LVL18-.Ltext0
 1241 00a7 0600      		.word	0x6
 1242 00a9 6E        		.byte	0x6e
 1243 00aa 93        		.byte	0x93
 1244 00ab 01        		.uleb128 0x1
 1245 00ac 6F        		.byte	0x6f
 1246 00ad 93        		.byte	0x93
 1247 00ae 01        		.uleb128 0x1
 1248 00af 3C02 0000 		.long	.LVL18-.Ltext0
 1249 00b3 4202 0000 		.long	.LVL19-.Ltext0
 1250 00b7 0600      		.word	0x6
 1251 00b9 69        		.byte	0x69
 1252 00ba 93        		.byte	0x93
 1253 00bb 01        		.uleb128 0x1
 1254 00bc 6F        		.byte	0x6f
GAS LISTING C:\Users\21030\AppData\Local\Temp/ccCMDFwY.s 			page 23


 1255 00bd 93        		.byte	0x93
 1256 00be 01        		.uleb128 0x1
 1257 00bf 5E02 0000 		.long	.LVL20-.Ltext0
 1258 00c3 6802 0000 		.long	.LVL21-.Ltext0
 1259 00c7 0600      		.word	0x6
 1260 00c9 6E        		.byte	0x6e
 1261 00ca 93        		.byte	0x93
 1262 00cb 01        		.uleb128 0x1
 1263 00cc 6F        		.byte	0x6f
 1264 00cd 93        		.byte	0x93
 1265 00ce 01        		.uleb128 0x1
 1266 00cf 6802 0000 		.long	.LVL21-.Ltext0
 1267 00d3 6E02 0000 		.long	.LVL22-.Ltext0
 1268 00d7 0600      		.word	0x6
 1269 00d9 6E        		.byte	0x6e
 1270 00da 93        		.byte	0x93
 1271 00db 01        		.uleb128 0x1
 1272 00dc 6F        		.byte	0x6f
 1273 00dd 93        		.byte	0x93
 1274 00de 01        		.uleb128 0x1
 1275 00df 7A02 0000 		.long	.LVL23-.Ltext0
 1276 00e3 8202 0000 		.long	.LFE12-.Ltext0
 1277 00e7 0600      		.word	0x6
 1278 00e9 69        		.byte	0x69
 1279 00ea 93        		.byte	0x93
 1280 00eb 01        		.uleb128 0x1
 1281 00ec 63        		.byte	0x63
 1282 00ed 93        		.byte	0x93
 1283 00ee 01        		.uleb128 0x1
 1284 00ef 0000 0000 		.long	0x0
 1285 00f3 0000 0000 		.long	0x0
 1286               	.LLST7:
 1287 00f7 6801 0000 		.long	.LVL4-.Ltext0
 1288 00fb B801 0000 		.long	.LVL9-.Ltext0
 1289 00ff 0100      		.word	0x1
 1290 0101 66        		.byte	0x66
 1291 0102 CE01 0000 		.long	.LVL10-.Ltext0
 1292 0106 D401 0000 		.long	.LVL11-.Ltext0
 1293 010a 0100      		.word	0x1
 1294 010c 66        		.byte	0x66
 1295 010d 0202 0000 		.long	.LVL12-.Ltext0
 1296 0111 0802 0000 		.long	.LVL13-.Ltext0
 1297 0115 0100      		.word	0x1
 1298 0117 66        		.byte	0x66
 1299 0118 1E02 0000 		.long	.LVL14-.Ltext0
 1300 011c 4202 0000 		.long	.LVL19-.Ltext0
 1301 0120 0100      		.word	0x1
 1302 0122 66        		.byte	0x66
 1303 0123 5E02 0000 		.long	.LVL20-.Ltext0
 1304 0127 6802 0000 		.long	.LVL21-.Ltext0
 1305 012b 0100      		.word	0x1
 1306 012d 66        		.byte	0x66
 1307 012e 6802 0000 		.long	.LVL21-.Ltext0
 1308 0132 6E02 0000 		.long	.LVL22-.Ltext0
 1309 0136 0100      		.word	0x1
 1310 0138 66        		.byte	0x66
 1311 0139 7A02 0000 		.long	.LVL23-.Ltext0
GAS LISTING C:\Users\21030\AppData\Local\Temp/ccCMDFwY.s 			page 24


 1312 013d 8202 0000 		.long	.LFE12-.Ltext0
 1313 0141 0100      		.word	0x1
 1314 0143 66        		.byte	0x66
 1315 0144 0000 0000 		.long	0x0
 1316 0148 0000 0000 		.long	0x0
 1317               	.LLST8:
 1318 014c 7C01 0000 		.long	.LVL6-.Ltext0
 1319 0150 8002 0000 		.long	.LVL24-.Ltext0
 1320 0154 0100      		.word	0x1
 1321 0156 61        		.byte	0x61
 1322 0157 0000 0000 		.long	0x0
 1323 015b 0000 0000 		.long	0x0
 1324               	.LLST10:
 1325 015f 8202 0000 		.long	.LVL25-.Ltext0
 1326 0163 9202 0000 		.long	.LVL27-.Ltext0
 1327 0167 0100      		.word	0x1
 1328 0169 68        		.byte	0x68
 1329 016a 0000 0000 		.long	0x0
 1330 016e 0000 0000 		.long	0x0
 1331               	.LLST11:
 1332 0172 8202 0000 		.long	.LVL25-.Ltext0
 1333 0176 8A02 0000 		.long	.LVL26-.Ltext0
 1334 017a 0100      		.word	0x1
 1335 017c 66        		.byte	0x66
 1336 017d 8A02 0000 		.long	.LVL26-.Ltext0
 1337 0181 9802 0000 		.long	.LVL28-.Ltext0
 1338 0185 0100      		.word	0x1
 1339 0187 61        		.byte	0x61
 1340 0188 0000 0000 		.long	0x0
 1341 018c 0000 0000 		.long	0x0
 1342               	.LLST13:
 1343 0190 F002 0000 		.long	.LVL29-.Ltext0
 1344 0194 F602 0000 		.long	.LVL30-.Ltext0
 1345 0198 0100      		.word	0x1
 1346 019a 61        		.byte	0x61
 1347 019b F602 0000 		.long	.LVL30-.Ltext0
 1348 019f 0003 0000 		.long	.LVL31-.Ltext0
 1349 01a3 0100      		.word	0x1
 1350 01a5 68        		.byte	0x68
 1351 01a6 0003 0000 		.long	.LVL31-.Ltext0
 1352 01aa 1203 0000 		.long	.LVL32-.Ltext0
 1353 01ae 0100      		.word	0x1
 1354 01b0 61        		.byte	0x61
 1355 01b1 1203 0000 		.long	.LVL32-.Ltext0
 1356 01b5 1603 0000 		.long	.LVL33-.Ltext0
 1357 01b9 0100      		.word	0x1
 1358 01bb 68        		.byte	0x68
 1359 01bc 1603 0000 		.long	.LVL33-.Ltext0
 1360 01c0 8203 0000 		.long	.LVL34-.Ltext0
 1361 01c4 0100      		.word	0x1
 1362 01c6 61        		.byte	0x61
 1363 01c7 9004 0000 		.long	.LVL35-.Ltext0
 1364 01cb 9604 0000 		.long	.LVL36-.Ltext0
 1365 01cf 0100      		.word	0x1
 1366 01d1 61        		.byte	0x61
 1367 01d2 0000 0000 		.long	0x0
 1368 01d6 0000 0000 		.long	0x0
GAS LISTING C:\Users\21030\AppData\Local\Temp/ccCMDFwY.s 			page 25


 1369               	.LLST15:
 1370 01da A604 0000 		.long	.LVL37-.Ltext0
 1371 01de CE04 0000 		.long	.LVL38-.Ltext0
 1372 01e2 0100      		.word	0x1
 1373 01e4 61        		.byte	0x61
 1374 01e5 CE04 0000 		.long	.LVL38-.Ltext0
 1375 01e9 D004 0000 		.long	.LVL39-.Ltext0
 1376 01ed 0100      		.word	0x1
 1377 01ef 68        		.byte	0x68
 1378 01f0 D004 0000 		.long	.LVL39-.Ltext0
 1379 01f4 1A06 0000 		.long	.LVL47-.Ltext0
 1380 01f8 0100      		.word	0x1
 1381 01fa 61        		.byte	0x61
 1382 01fb 0000 0000 		.long	0x0
 1383 01ff 0000 0000 		.long	0x0
 1384               	.LLST16:
 1385 0203 0005 0000 		.long	.LVL40-.Ltext0
 1386 0207 5005 0000 		.long	.LVL44-.Ltext0
 1387 020b 0600      		.word	0x6
 1388 020d 64        		.byte	0x64
 1389 020e 93        		.byte	0x93
 1390 020f 01        		.uleb128 0x1
 1391 0210 65        		.byte	0x65
 1392 0211 93        		.byte	0x93
 1393 0212 01        		.uleb128 0x1
 1394 0213 0C06 0000 		.long	.LVL45-.Ltext0
 1395 0217 1406 0000 		.long	.LVL46-.Ltext0
 1396 021b 0600      		.word	0x6
 1397 021d 64        		.byte	0x64
 1398 021e 93        		.byte	0x93
 1399 021f 01        		.uleb128 0x1
 1400 0220 65        		.byte	0x65
 1401 0221 93        		.byte	0x93
 1402 0222 01        		.uleb128 0x1
 1403 0223 0000 0000 		.long	0x0
 1404 0227 0000 0000 		.long	0x0
 1405               	.LLST17:
 1406 022b 1205 0000 		.long	.LVL41-.Ltext0
 1407 022f 3605 0000 		.long	.LVL43-.Ltext0
 1408 0233 0600      		.word	0x6
 1409 0235 68        		.byte	0x68
 1410 0236 93        		.byte	0x93
 1411 0237 01        		.uleb128 0x1
 1412 0238 69        		.byte	0x69
 1413 0239 93        		.byte	0x93
 1414 023a 01        		.uleb128 0x1
 1415 023b 0000 0000 		.long	0x0
 1416 023f 0000 0000 		.long	0x0
 1417               	.LLST18:
 1418 0243 1605 0000 		.long	.LVL42-.Ltext0
 1419 0247 5005 0000 		.long	.LVL44-.Ltext0
 1420 024b 0600      		.word	0x6
 1421 024d 62        		.byte	0x62
 1422 024e 93        		.byte	0x93
 1423 024f 01        		.uleb128 0x1
 1424 0250 63        		.byte	0x63
 1425 0251 93        		.byte	0x93
GAS LISTING C:\Users\21030\AppData\Local\Temp/ccCMDFwY.s 			page 26


 1426 0252 01        		.uleb128 0x1
 1427 0253 0C06 0000 		.long	.LVL45-.Ltext0
 1428 0257 1406 0000 		.long	.LVL46-.Ltext0
 1429 025b 0600      		.word	0x6
 1430 025d 62        		.byte	0x62
 1431 025e 93        		.byte	0x93
 1432 025f 01        		.uleb128 0x1
 1433 0260 63        		.byte	0x63
 1434 0261 93        		.byte	0x93
 1435 0262 01        		.uleb128 0x1
 1436 0263 0000 0000 		.long	0x0
 1437 0267 0000 0000 		.long	0x0
 1438               		.section	.debug_info
 1439 0000 F70A 0000 		.long	0xaf7
 1440 0004 0200      		.word	0x2
 1441 0006 0000 0000 		.long	.Ldebug_abbrev0
 1442 000a 04        		.byte	0x4
 1443 000b 01        		.uleb128 0x1
 1444 000c 0000 0000 		.long	.LASF271
 1445 0010 01        		.byte	0x1
 1446 0011 0000 0000 		.long	.LASF272
 1447 0015 0000 0000 		.long	.LASF273
 1448 0019 0000 0000 		.long	.Ltext0
 1449 001d 0000 0000 		.long	.Letext0
 1450 0021 0000 0000 		.long	.Ldebug_line0
 1451 0025 02        		.uleb128 0x2
 1452 0026 01        		.byte	0x1
 1453 0027 06        		.byte	0x6
 1454 0028 0000 0000 		.long	.LASF0
 1455 002c 03        		.uleb128 0x3
 1456 002d 0000 0000 		.long	.LASF2
 1457 0031 02        		.byte	0x2
 1458 0032 7A        		.byte	0x7a
 1459 0033 3700 0000 		.long	0x37
 1460 0037 02        		.uleb128 0x2
 1461 0038 01        		.byte	0x1
 1462 0039 08        		.byte	0x8
 1463 003a 0000 0000 		.long	.LASF1
 1464 003e 04        		.uleb128 0x4
 1465 003f 02        		.byte	0x2
 1466 0040 05        		.byte	0x5
 1467 0041 696E 7400 		.string	"int"
 1468 0045 03        		.uleb128 0x3
 1469 0046 0000 0000 		.long	.LASF3
 1470 004a 02        		.byte	0x2
 1471 004b 7C        		.byte	0x7c
 1472 004c 5000 0000 		.long	0x50
 1473 0050 02        		.uleb128 0x2
 1474 0051 02        		.byte	0x2
 1475 0052 07        		.byte	0x7
 1476 0053 0000 0000 		.long	.LASF4
 1477 0057 02        		.uleb128 0x2
 1478 0058 04        		.byte	0x4
 1479 0059 05        		.byte	0x5
 1480 005a 0000 0000 		.long	.LASF5
 1481 005e 03        		.uleb128 0x3
 1482 005f 0000 0000 		.long	.LASF6
GAS LISTING C:\Users\21030\AppData\Local\Temp/ccCMDFwY.s 			page 27


 1483 0063 02        		.byte	0x2
 1484 0064 7E        		.byte	0x7e
 1485 0065 6900 0000 		.long	0x69
 1486 0069 02        		.uleb128 0x2
 1487 006a 04        		.byte	0x4
 1488 006b 07        		.byte	0x7
 1489 006c 0000 0000 		.long	.LASF7
 1490 0070 02        		.uleb128 0x2
 1491 0071 08        		.byte	0x8
 1492 0072 05        		.byte	0x5
 1493 0073 0000 0000 		.long	.LASF8
 1494 0077 02        		.uleb128 0x2
 1495 0078 08        		.byte	0x8
 1496 0079 07        		.byte	0x7
 1497 007a 0000 0000 		.long	.LASF9
 1498 007e 05        		.uleb128 0x5
 1499 007f 01        		.byte	0x1
 1500 0080 06        		.byte	0x6
 1501 0081 05        		.uleb128 0x5
 1502 0082 01        		.byte	0x1
 1503 0083 08        		.byte	0x8
 1504 0084 02        		.uleb128 0x2
 1505 0085 01        		.byte	0x1
 1506 0086 06        		.byte	0x6
 1507 0087 0000 0000 		.long	.LASF10
 1508 008b 02        		.uleb128 0x2
 1509 008c 02        		.byte	0x2
 1510 008d 07        		.byte	0x7
 1511 008e 0000 0000 		.long	.LASF11
 1512 0092 02        		.uleb128 0x2
 1513 0093 02        		.byte	0x2
 1514 0094 05        		.byte	0x5
 1515 0095 0000 0000 		.long	.LASF12
 1516 0099 06        		.uleb128 0x6
 1517 009a 02        		.byte	0x2
 1518 009b 04        		.byte	0x4
 1519 009c 20        		.byte	0x20
 1520 009d 6207 0000 		.long	0x762
 1521 00a1 07        		.uleb128 0x7
 1522 00a2 0000 0000 		.long	.LASF13
 1523 00a6 00        		.sleb128 0
 1524 00a7 07        		.uleb128 0x7
 1525 00a8 0000 0000 		.long	.LASF14
 1526 00ac 01        		.sleb128 1
 1527 00ad 07        		.uleb128 0x7
 1528 00ae 0000 0000 		.long	.LASF15
 1529 00b2 02        		.sleb128 2
 1530 00b3 07        		.uleb128 0x7
 1531 00b4 0000 0000 		.long	.LASF16
 1532 00b8 03        		.sleb128 3
 1533 00b9 08        		.uleb128 0x8
 1534 00ba 4B5F 4100 		.string	"K_A"
 1535 00be 04        		.sleb128 4
 1536 00bf 08        		.uleb128 0x8
 1537 00c0 4B5F 4200 		.string	"K_B"
 1538 00c4 05        		.sleb128 5
 1539 00c5 08        		.uleb128 0x8
GAS LISTING C:\Users\21030\AppData\Local\Temp/ccCMDFwY.s 			page 28


 1540 00c6 4B5F 4300 		.string	"K_C"
 1541 00ca 06        		.sleb128 6
 1542 00cb 08        		.uleb128 0x8
 1543 00cc 4B5F 4400 		.string	"K_D"
 1544 00d0 07        		.sleb128 7
 1545 00d1 08        		.uleb128 0x8
 1546 00d2 4B5F 4500 		.string	"K_E"
 1547 00d6 08        		.sleb128 8
 1548 00d7 08        		.uleb128 0x8
 1549 00d8 4B5F 4600 		.string	"K_F"
 1550 00dc 09        		.sleb128 9
 1551 00dd 08        		.uleb128 0x8
 1552 00de 4B5F 4700 		.string	"K_G"
 1553 00e2 0A        		.sleb128 10
 1554 00e3 08        		.uleb128 0x8
 1555 00e4 4B5F 4800 		.string	"K_H"
 1556 00e8 0B        		.sleb128 11
 1557 00e9 08        		.uleb128 0x8
 1558 00ea 4B5F 4900 		.string	"K_I"
 1559 00ee 0C        		.sleb128 12
 1560 00ef 08        		.uleb128 0x8
 1561 00f0 4B5F 4A00 		.string	"K_J"
 1562 00f4 0D        		.sleb128 13
 1563 00f5 08        		.uleb128 0x8
 1564 00f6 4B5F 4B00 		.string	"K_K"
 1565 00fa 0E        		.sleb128 14
 1566 00fb 08        		.uleb128 0x8
 1567 00fc 4B5F 4C00 		.string	"K_L"
 1568 0100 0F        		.sleb128 15
 1569 0101 08        		.uleb128 0x8
 1570 0102 4B5F 4D00 		.string	"K_M"
 1571 0106 10        		.sleb128 16
 1572 0107 08        		.uleb128 0x8
 1573 0108 4B5F 4E00 		.string	"K_N"
 1574 010c 11        		.sleb128 17
 1575 010d 08        		.uleb128 0x8
 1576 010e 4B5F 4F00 		.string	"K_O"
 1577 0112 12        		.sleb128 18
 1578 0113 08        		.uleb128 0x8
 1579 0114 4B5F 5000 		.string	"K_P"
 1580 0118 13        		.sleb128 19
 1581 0119 08        		.uleb128 0x8
 1582 011a 4B5F 5100 		.string	"K_Q"
 1583 011e 14        		.sleb128 20
 1584 011f 08        		.uleb128 0x8
 1585 0120 4B5F 5200 		.string	"K_R"
 1586 0124 15        		.sleb128 21
 1587 0125 08        		.uleb128 0x8
 1588 0126 4B5F 5300 		.string	"K_S"
 1589 012a 16        		.sleb128 22
 1590 012b 08        		.uleb128 0x8
 1591 012c 4B5F 5400 		.string	"K_T"
 1592 0130 17        		.sleb128 23
 1593 0131 08        		.uleb128 0x8
 1594 0132 4B5F 5500 		.string	"K_U"
 1595 0136 18        		.sleb128 24
 1596 0137 08        		.uleb128 0x8
GAS LISTING C:\Users\21030\AppData\Local\Temp/ccCMDFwY.s 			page 29


 1597 0138 4B5F 5600 		.string	"K_V"
 1598 013c 19        		.sleb128 25
 1599 013d 08        		.uleb128 0x8
 1600 013e 4B5F 5700 		.string	"K_W"
 1601 0142 1A        		.sleb128 26
 1602 0143 08        		.uleb128 0x8
 1603 0144 4B5F 5800 		.string	"K_X"
 1604 0148 1B        		.sleb128 27
 1605 0149 08        		.uleb128 0x8
 1606 014a 4B5F 5900 		.string	"K_Y"
 1607 014e 1C        		.sleb128 28
 1608 014f 08        		.uleb128 0x8
 1609 0150 4B5F 5A00 		.string	"K_Z"
 1610 0154 1D        		.sleb128 29
 1611 0155 08        		.uleb128 0x8
 1612 0156 4B5F 3100 		.string	"K_1"
 1613 015a 1E        		.sleb128 30
 1614 015b 08        		.uleb128 0x8
 1615 015c 4B5F 3200 		.string	"K_2"
 1616 0160 1F        		.sleb128 31
 1617 0161 08        		.uleb128 0x8
 1618 0162 4B5F 3300 		.string	"K_3"
 1619 0166 20        		.sleb128 32
 1620 0167 08        		.uleb128 0x8
 1621 0168 4B5F 3400 		.string	"K_4"
 1622 016c 21        		.sleb128 33
 1623 016d 08        		.uleb128 0x8
 1624 016e 4B5F 3500 		.string	"K_5"
 1625 0172 22        		.sleb128 34
 1626 0173 08        		.uleb128 0x8
 1627 0174 4B5F 3600 		.string	"K_6"
 1628 0178 23        		.sleb128 35
 1629 0179 08        		.uleb128 0x8
 1630 017a 4B5F 3700 		.string	"K_7"
 1631 017e 24        		.sleb128 36
 1632 017f 08        		.uleb128 0x8
 1633 0180 4B5F 3800 		.string	"K_8"
 1634 0184 25        		.sleb128 37
 1635 0185 08        		.uleb128 0x8
 1636 0186 4B5F 3900 		.string	"K_9"
 1637 018a 26        		.sleb128 38
 1638 018b 08        		.uleb128 0x8
 1639 018c 4B5F 3000 		.string	"K_0"
 1640 0190 27        		.sleb128 39
 1641 0191 07        		.uleb128 0x7
 1642 0192 0000 0000 		.long	.LASF17
 1643 0196 28        		.sleb128 40
 1644 0197 07        		.uleb128 0x7
 1645 0198 0000 0000 		.long	.LASF18
 1646 019c 29        		.sleb128 41
 1647 019d 07        		.uleb128 0x7
 1648 019e 0000 0000 		.long	.LASF19
 1649 01a2 2A        		.sleb128 42
 1650 01a3 07        		.uleb128 0x7
 1651 01a4 0000 0000 		.long	.LASF20
 1652 01a8 2B        		.sleb128 43
 1653 01a9 07        		.uleb128 0x7
GAS LISTING C:\Users\21030\AppData\Local\Temp/ccCMDFwY.s 			page 30


 1654 01aa 0000 0000 		.long	.LASF21
 1655 01ae 2C        		.sleb128 44
 1656 01af 07        		.uleb128 0x7
 1657 01b0 0000 0000 		.long	.LASF22
 1658 01b4 2D        		.sleb128 45
 1659 01b5 07        		.uleb128 0x7
 1660 01b6 0000 0000 		.long	.LASF23
 1661 01ba 2E        		.sleb128 46
 1662 01bb 07        		.uleb128 0x7
 1663 01bc 0000 0000 		.long	.LASF24
 1664 01c0 2F        		.sleb128 47
 1665 01c1 07        		.uleb128 0x7
 1666 01c2 0000 0000 		.long	.LASF25
 1667 01c6 30        		.sleb128 48
 1668 01c7 07        		.uleb128 0x7
 1669 01c8 0000 0000 		.long	.LASF26
 1670 01cc 31        		.sleb128 49
 1671 01cd 07        		.uleb128 0x7
 1672 01ce 0000 0000 		.long	.LASF27
 1673 01d2 32        		.sleb128 50
 1674 01d3 07        		.uleb128 0x7
 1675 01d4 0000 0000 		.long	.LASF28
 1676 01d8 33        		.sleb128 51
 1677 01d9 07        		.uleb128 0x7
 1678 01da 0000 0000 		.long	.LASF29
 1679 01de 34        		.sleb128 52
 1680 01df 07        		.uleb128 0x7
 1681 01e0 0000 0000 		.long	.LASF30
 1682 01e4 35        		.sleb128 53
 1683 01e5 07        		.uleb128 0x7
 1684 01e6 0000 0000 		.long	.LASF31
 1685 01ea 36        		.sleb128 54
 1686 01eb 07        		.uleb128 0x7
 1687 01ec 0000 0000 		.long	.LASF32
 1688 01f0 37        		.sleb128 55
 1689 01f1 07        		.uleb128 0x7
 1690 01f2 0000 0000 		.long	.LASF33
 1691 01f6 38        		.sleb128 56
 1692 01f7 07        		.uleb128 0x7
 1693 01f8 0000 0000 		.long	.LASF34
 1694 01fc 39        		.sleb128 57
 1695 01fd 07        		.uleb128 0x7
 1696 01fe 0000 0000 		.long	.LASF35
 1697 0202 3A        		.sleb128 58
 1698 0203 07        		.uleb128 0x7
 1699 0204 0000 0000 		.long	.LASF36
 1700 0208 3B        		.sleb128 59
 1701 0209 07        		.uleb128 0x7
 1702 020a 0000 0000 		.long	.LASF37
 1703 020e 3C        		.sleb128 60
 1704 020f 07        		.uleb128 0x7
 1705 0210 0000 0000 		.long	.LASF38
 1706 0214 3D        		.sleb128 61
 1707 0215 07        		.uleb128 0x7
 1708 0216 0000 0000 		.long	.LASF39
 1709 021a 3E        		.sleb128 62
 1710 021b 07        		.uleb128 0x7
GAS LISTING C:\Users\21030\AppData\Local\Temp/ccCMDFwY.s 			page 31


 1711 021c 0000 0000 		.long	.LASF40
 1712 0220 3F        		.sleb128 63
 1713 0221 07        		.uleb128 0x7
 1714 0222 0000 0000 		.long	.LASF41
 1715 0226 C000      		.sleb128 64
 1716 0228 07        		.uleb128 0x7
 1717 0229 0000 0000 		.long	.LASF42
 1718 022d C100      		.sleb128 65
 1719 022f 07        		.uleb128 0x7
 1720 0230 0000 0000 		.long	.LASF43
 1721 0234 C200      		.sleb128 66
 1722 0236 07        		.uleb128 0x7
 1723 0237 0000 0000 		.long	.LASF44
 1724 023b C300      		.sleb128 67
 1725 023d 07        		.uleb128 0x7
 1726 023e 0000 0000 		.long	.LASF45
 1727 0242 C400      		.sleb128 68
 1728 0244 07        		.uleb128 0x7
 1729 0245 0000 0000 		.long	.LASF46
 1730 0249 C500      		.sleb128 69
 1731 024b 07        		.uleb128 0x7
 1732 024c 0000 0000 		.long	.LASF47
 1733 0250 C600      		.sleb128 70
 1734 0252 07        		.uleb128 0x7
 1735 0253 0000 0000 		.long	.LASF48
 1736 0257 C700      		.sleb128 71
 1737 0259 07        		.uleb128 0x7
 1738 025a 0000 0000 		.long	.LASF49
 1739 025e C800      		.sleb128 72
 1740 0260 07        		.uleb128 0x7
 1741 0261 0000 0000 		.long	.LASF50
 1742 0265 C900      		.sleb128 73
 1743 0267 07        		.uleb128 0x7
 1744 0268 0000 0000 		.long	.LASF51
 1745 026c CA00      		.sleb128 74
 1746 026e 07        		.uleb128 0x7
 1747 026f 0000 0000 		.long	.LASF52
 1748 0273 CB00      		.sleb128 75
 1749 0275 07        		.uleb128 0x7
 1750 0276 0000 0000 		.long	.LASF53
 1751 027a CC00      		.sleb128 76
 1752 027c 07        		.uleb128 0x7
 1753 027d 0000 0000 		.long	.LASF54
 1754 0281 CD00      		.sleb128 77
 1755 0283 07        		.uleb128 0x7
 1756 0284 0000 0000 		.long	.LASF55
 1757 0288 CE00      		.sleb128 78
 1758 028a 07        		.uleb128 0x7
 1759 028b 0000 0000 		.long	.LASF56
 1760 028f CF00      		.sleb128 79
 1761 0291 07        		.uleb128 0x7
 1762 0292 0000 0000 		.long	.LASF57
 1763 0296 D000      		.sleb128 80
 1764 0298 07        		.uleb128 0x7
 1765 0299 0000 0000 		.long	.LASF58
 1766 029d D100      		.sleb128 81
 1767 029f 07        		.uleb128 0x7
GAS LISTING C:\Users\21030\AppData\Local\Temp/ccCMDFwY.s 			page 32


 1768 02a0 0000 0000 		.long	.LASF59
 1769 02a4 D200      		.sleb128 82
 1770 02a6 07        		.uleb128 0x7
 1771 02a7 0000 0000 		.long	.LASF60
 1772 02ab D300      		.sleb128 83
 1773 02ad 07        		.uleb128 0x7
 1774 02ae 0000 0000 		.long	.LASF61
 1775 02b2 D400      		.sleb128 84
 1776 02b4 07        		.uleb128 0x7
 1777 02b5 0000 0000 		.long	.LASF62
 1778 02b9 D500      		.sleb128 85
 1779 02bb 07        		.uleb128 0x7
 1780 02bc 0000 0000 		.long	.LASF63
 1781 02c0 D600      		.sleb128 86
 1782 02c2 07        		.uleb128 0x7
 1783 02c3 0000 0000 		.long	.LASF64
 1784 02c7 D700      		.sleb128 87
 1785 02c9 07        		.uleb128 0x7
 1786 02ca 0000 0000 		.long	.LASF65
 1787 02ce D800      		.sleb128 88
 1788 02d0 07        		.uleb128 0x7
 1789 02d1 0000 0000 		.long	.LASF66
 1790 02d5 D900      		.sleb128 89
 1791 02d7 07        		.uleb128 0x7
 1792 02d8 0000 0000 		.long	.LASF67
 1793 02dc DA00      		.sleb128 90
 1794 02de 07        		.uleb128 0x7
 1795 02df 0000 0000 		.long	.LASF68
 1796 02e3 DB00      		.sleb128 91
 1797 02e5 07        		.uleb128 0x7
 1798 02e6 0000 0000 		.long	.LASF69
 1799 02ea DC00      		.sleb128 92
 1800 02ec 07        		.uleb128 0x7
 1801 02ed 0000 0000 		.long	.LASF70
 1802 02f1 DD00      		.sleb128 93
 1803 02f3 07        		.uleb128 0x7
 1804 02f4 0000 0000 		.long	.LASF71
 1805 02f8 DE00      		.sleb128 94
 1806 02fa 07        		.uleb128 0x7
 1807 02fb 0000 0000 		.long	.LASF72
 1808 02ff DF00      		.sleb128 95
 1809 0301 07        		.uleb128 0x7
 1810 0302 0000 0000 		.long	.LASF73
 1811 0306 E000      		.sleb128 96
 1812 0308 07        		.uleb128 0x7
 1813 0309 0000 0000 		.long	.LASF74
 1814 030d E100      		.sleb128 97
 1815 030f 07        		.uleb128 0x7
 1816 0310 0000 0000 		.long	.LASF75
 1817 0314 E200      		.sleb128 98
 1818 0316 07        		.uleb128 0x7
 1819 0317 0000 0000 		.long	.LASF76
 1820 031b E300      		.sleb128 99
 1821 031d 07        		.uleb128 0x7
 1822 031e 0000 0000 		.long	.LASF77
 1823 0322 E400      		.sleb128 100
 1824 0324 07        		.uleb128 0x7
GAS LISTING C:\Users\21030\AppData\Local\Temp/ccCMDFwY.s 			page 33


 1825 0325 0000 0000 		.long	.LASF78
 1826 0329 E500      		.sleb128 101
 1827 032b 07        		.uleb128 0x7
 1828 032c 0000 0000 		.long	.LASF79
 1829 0330 E600      		.sleb128 102
 1830 0332 07        		.uleb128 0x7
 1831 0333 0000 0000 		.long	.LASF80
 1832 0337 E700      		.sleb128 103
 1833 0339 07        		.uleb128 0x7
 1834 033a 0000 0000 		.long	.LASF81
 1835 033e E800      		.sleb128 104
 1836 0340 07        		.uleb128 0x7
 1837 0341 0000 0000 		.long	.LASF82
 1838 0345 E900      		.sleb128 105
 1839 0347 07        		.uleb128 0x7
 1840 0348 0000 0000 		.long	.LASF83
 1841 034c EA00      		.sleb128 106
 1842 034e 07        		.uleb128 0x7
 1843 034f 0000 0000 		.long	.LASF84
 1844 0353 EB00      		.sleb128 107
 1845 0355 07        		.uleb128 0x7
 1846 0356 0000 0000 		.long	.LASF85
 1847 035a EC00      		.sleb128 108
 1848 035c 07        		.uleb128 0x7
 1849 035d 0000 0000 		.long	.LASF86
 1850 0361 ED00      		.sleb128 109
 1851 0363 07        		.uleb128 0x7
 1852 0364 0000 0000 		.long	.LASF87
 1853 0368 EE00      		.sleb128 110
 1854 036a 07        		.uleb128 0x7
 1855 036b 0000 0000 		.long	.LASF88
 1856 036f EF00      		.sleb128 111
 1857 0371 07        		.uleb128 0x7
 1858 0372 0000 0000 		.long	.LASF89
 1859 0376 F000      		.sleb128 112
 1860 0378 07        		.uleb128 0x7
 1861 0379 0000 0000 		.long	.LASF90
 1862 037d F100      		.sleb128 113
 1863 037f 07        		.uleb128 0x7
 1864 0380 0000 0000 		.long	.LASF91
 1865 0384 F200      		.sleb128 114
 1866 0386 07        		.uleb128 0x7
 1867 0387 0000 0000 		.long	.LASF92
 1868 038b F300      		.sleb128 115
 1869 038d 07        		.uleb128 0x7
 1870 038e 0000 0000 		.long	.LASF93
 1871 0392 F400      		.sleb128 116
 1872 0394 07        		.uleb128 0x7
 1873 0395 0000 0000 		.long	.LASF94
 1874 0399 F500      		.sleb128 117
 1875 039b 07        		.uleb128 0x7
 1876 039c 0000 0000 		.long	.LASF95
 1877 03a0 F600      		.sleb128 118
 1878 03a2 07        		.uleb128 0x7
 1879 03a3 0000 0000 		.long	.LASF96
 1880 03a7 F700      		.sleb128 119
 1881 03a9 07        		.uleb128 0x7
GAS LISTING C:\Users\21030\AppData\Local\Temp/ccCMDFwY.s 			page 34


 1882 03aa 0000 0000 		.long	.LASF97
 1883 03ae F800      		.sleb128 120
 1884 03b0 07        		.uleb128 0x7
 1885 03b1 0000 0000 		.long	.LASF98
 1886 03b5 F900      		.sleb128 121
 1887 03b7 07        		.uleb128 0x7
 1888 03b8 0000 0000 		.long	.LASF99
 1889 03bc FA00      		.sleb128 122
 1890 03be 07        		.uleb128 0x7
 1891 03bf 0000 0000 		.long	.LASF100
 1892 03c3 FB00      		.sleb128 123
 1893 03c5 07        		.uleb128 0x7
 1894 03c6 0000 0000 		.long	.LASF101
 1895 03ca FC00      		.sleb128 124
 1896 03cc 07        		.uleb128 0x7
 1897 03cd 0000 0000 		.long	.LASF102
 1898 03d1 FD00      		.sleb128 125
 1899 03d3 07        		.uleb128 0x7
 1900 03d4 0000 0000 		.long	.LASF103
 1901 03d8 FE00      		.sleb128 126
 1902 03da 07        		.uleb128 0x7
 1903 03db 0000 0000 		.long	.LASF104
 1904 03df FF00      		.sleb128 127
 1905 03e1 07        		.uleb128 0x7
 1906 03e2 0000 0000 		.long	.LASF105
 1907 03e6 8001      		.sleb128 128
 1908 03e8 07        		.uleb128 0x7
 1909 03e9 0000 0000 		.long	.LASF106
 1910 03ed 8101      		.sleb128 129
 1911 03ef 07        		.uleb128 0x7
 1912 03f0 0000 0000 		.long	.LASF107
 1913 03f4 8201      		.sleb128 130
 1914 03f6 07        		.uleb128 0x7
 1915 03f7 0000 0000 		.long	.LASF108
 1916 03fb 8301      		.sleb128 131
 1917 03fd 07        		.uleb128 0x7
 1918 03fe 0000 0000 		.long	.LASF109
 1919 0402 8401      		.sleb128 132
 1920 0404 07        		.uleb128 0x7
 1921 0405 0000 0000 		.long	.LASF110
 1922 0409 8501      		.sleb128 133
 1923 040b 07        		.uleb128 0x7
 1924 040c 0000 0000 		.long	.LASF111
 1925 0410 8601      		.sleb128 134
 1926 0412 07        		.uleb128 0x7
 1927 0413 0000 0000 		.long	.LASF112
 1928 0417 8701      		.sleb128 135
 1929 0419 07        		.uleb128 0x7
 1930 041a 0000 0000 		.long	.LASF113
 1931 041e 8801      		.sleb128 136
 1932 0420 07        		.uleb128 0x7
 1933 0421 0000 0000 		.long	.LASF114
 1934 0425 8901      		.sleb128 137
 1935 0427 07        		.uleb128 0x7
 1936 0428 0000 0000 		.long	.LASF115
 1937 042c 8A01      		.sleb128 138
 1938 042e 07        		.uleb128 0x7
GAS LISTING C:\Users\21030\AppData\Local\Temp/ccCMDFwY.s 			page 35


 1939 042f 0000 0000 		.long	.LASF116
 1940 0433 8B01      		.sleb128 139
 1941 0435 07        		.uleb128 0x7
 1942 0436 0000 0000 		.long	.LASF117
 1943 043a 8C01      		.sleb128 140
 1944 043c 07        		.uleb128 0x7
 1945 043d 0000 0000 		.long	.LASF118
 1946 0441 8D01      		.sleb128 141
 1947 0443 07        		.uleb128 0x7
 1948 0444 0000 0000 		.long	.LASF119
 1949 0448 8E01      		.sleb128 142
 1950 044a 07        		.uleb128 0x7
 1951 044b 0000 0000 		.long	.LASF120
 1952 044f 8F01      		.sleb128 143
 1953 0451 07        		.uleb128 0x7
 1954 0452 0000 0000 		.long	.LASF121
 1955 0456 9001      		.sleb128 144
 1956 0458 07        		.uleb128 0x7
 1957 0459 0000 0000 		.long	.LASF122
 1958 045d 9101      		.sleb128 145
 1959 045f 07        		.uleb128 0x7
 1960 0460 0000 0000 		.long	.LASF123
 1961 0464 9201      		.sleb128 146
 1962 0466 07        		.uleb128 0x7
 1963 0467 0000 0000 		.long	.LASF124
 1964 046b 9301      		.sleb128 147
 1965 046d 07        		.uleb128 0x7
 1966 046e 0000 0000 		.long	.LASF125
 1967 0472 9401      		.sleb128 148
 1968 0474 07        		.uleb128 0x7
 1969 0475 0000 0000 		.long	.LASF126
 1970 0479 9501      		.sleb128 149
 1971 047b 07        		.uleb128 0x7
 1972 047c 0000 0000 		.long	.LASF127
 1973 0480 9601      		.sleb128 150
 1974 0482 07        		.uleb128 0x7
 1975 0483 0000 0000 		.long	.LASF128
 1976 0487 9701      		.sleb128 151
 1977 0489 07        		.uleb128 0x7
 1978 048a 0000 0000 		.long	.LASF129
 1979 048e 9801      		.sleb128 152
 1980 0490 07        		.uleb128 0x7
 1981 0491 0000 0000 		.long	.LASF130
 1982 0495 9901      		.sleb128 153
 1983 0497 07        		.uleb128 0x7
 1984 0498 0000 0000 		.long	.LASF131
 1985 049c 9A01      		.sleb128 154
 1986 049e 07        		.uleb128 0x7
 1987 049f 0000 0000 		.long	.LASF132
 1988 04a3 9B01      		.sleb128 155
 1989 04a5 07        		.uleb128 0x7
 1990 04a6 0000 0000 		.long	.LASF133
 1991 04aa 9C01      		.sleb128 156
 1992 04ac 07        		.uleb128 0x7
 1993 04ad 0000 0000 		.long	.LASF134
 1994 04b1 9D01      		.sleb128 157
 1995 04b3 07        		.uleb128 0x7
GAS LISTING C:\Users\21030\AppData\Local\Temp/ccCMDFwY.s 			page 36


 1996 04b4 0000 0000 		.long	.LASF135
 1997 04b8 9E01      		.sleb128 158
 1998 04ba 07        		.uleb128 0x7
 1999 04bb 0000 0000 		.long	.LASF136
 2000 04bf 9F01      		.sleb128 159
 2001 04c1 07        		.uleb128 0x7
 2002 04c2 0000 0000 		.long	.LASF137
 2003 04c6 A001      		.sleb128 160
 2004 04c8 07        		.uleb128 0x7
 2005 04c9 0000 0000 		.long	.LASF138
 2006 04cd A101      		.sleb128 161
 2007 04cf 07        		.uleb128 0x7
 2008 04d0 0000 0000 		.long	.LASF139
 2009 04d4 A201      		.sleb128 162
 2010 04d6 07        		.uleb128 0x7
 2011 04d7 0000 0000 		.long	.LASF140
 2012 04db A301      		.sleb128 163
 2013 04dd 07        		.uleb128 0x7
 2014 04de 0000 0000 		.long	.LASF141
 2015 04e2 A401      		.sleb128 164
 2016 04e4 07        		.uleb128 0x7
 2017 04e5 0000 0000 		.long	.LASF142
 2018 04e9 A501      		.sleb128 165
 2019 04eb 07        		.uleb128 0x7
 2020 04ec 0000 0000 		.long	.LASF143
 2021 04f0 A601      		.sleb128 166
 2022 04f2 07        		.uleb128 0x7
 2023 04f3 0000 0000 		.long	.LASF144
 2024 04f7 A701      		.sleb128 167
 2025 04f9 07        		.uleb128 0x7
 2026 04fa 0000 0000 		.long	.LASF145
 2027 04fe A801      		.sleb128 168
 2028 0500 07        		.uleb128 0x7
 2029 0501 0000 0000 		.long	.LASF146
 2030 0505 A901      		.sleb128 169
 2031 0507 07        		.uleb128 0x7
 2032 0508 0000 0000 		.long	.LASF147
 2033 050c AA01      		.sleb128 170
 2034 050e 07        		.uleb128 0x7
 2035 050f 0000 0000 		.long	.LASF148
 2036 0513 AB01      		.sleb128 171
 2037 0515 07        		.uleb128 0x7
 2038 0516 0000 0000 		.long	.LASF149
 2039 051a AC01      		.sleb128 172
 2040 051c 07        		.uleb128 0x7
 2041 051d 0000 0000 		.long	.LASF150
 2042 0521 AD01      		.sleb128 173
 2043 0523 07        		.uleb128 0x7
 2044 0524 0000 0000 		.long	.LASF151
 2045 0528 AE01      		.sleb128 174
 2046 052a 07        		.uleb128 0x7
 2047 052b 0000 0000 		.long	.LASF152
 2048 052f AF01      		.sleb128 175
 2049 0531 07        		.uleb128 0x7
 2050 0532 0000 0000 		.long	.LASF153
 2051 0536 B001      		.sleb128 176
 2052 0538 07        		.uleb128 0x7
GAS LISTING C:\Users\21030\AppData\Local\Temp/ccCMDFwY.s 			page 37


 2053 0539 0000 0000 		.long	.LASF154
 2054 053d B101      		.sleb128 177
 2055 053f 07        		.uleb128 0x7
 2056 0540 0000 0000 		.long	.LASF155
 2057 0544 B201      		.sleb128 178
 2058 0546 07        		.uleb128 0x7
 2059 0547 0000 0000 		.long	.LASF156
 2060 054b B301      		.sleb128 179
 2061 054d 07        		.uleb128 0x7
 2062 054e 0000 0000 		.long	.LASF157
 2063 0552 B401      		.sleb128 180
 2064 0554 07        		.uleb128 0x7
 2065 0555 0000 0000 		.long	.LASF158
 2066 0559 B501      		.sleb128 181
 2067 055b 07        		.uleb128 0x7
 2068 055c 0000 0000 		.long	.LASF159
 2069 0560 B601      		.sleb128 182
 2070 0562 07        		.uleb128 0x7
 2071 0563 0000 0000 		.long	.LASF160
 2072 0567 B701      		.sleb128 183
 2073 0569 07        		.uleb128 0x7
 2074 056a 0000 0000 		.long	.LASF161
 2075 056e B801      		.sleb128 184
 2076 0570 07        		.uleb128 0x7
 2077 0571 0000 0000 		.long	.LASF162
 2078 0575 B901      		.sleb128 185
 2079 0577 07        		.uleb128 0x7
 2080 0578 0000 0000 		.long	.LASF163
 2081 057c BA01      		.sleb128 186
 2082 057e 07        		.uleb128 0x7
 2083 057f 0000 0000 		.long	.LASF164
 2084 0583 BB01      		.sleb128 187
 2085 0585 07        		.uleb128 0x7
 2086 0586 0000 0000 		.long	.LASF165
 2087 058a BC01      		.sleb128 188
 2088 058c 07        		.uleb128 0x7
 2089 058d 0000 0000 		.long	.LASF166
 2090 0591 BD01      		.sleb128 189
 2091 0593 07        		.uleb128 0x7
 2092 0594 0000 0000 		.long	.LASF167
 2093 0598 BE01      		.sleb128 190
 2094 059a 07        		.uleb128 0x7
 2095 059b 0000 0000 		.long	.LASF168
 2096 059f BF01      		.sleb128 191
 2097 05a1 07        		.uleb128 0x7
 2098 05a2 0000 0000 		.long	.LASF169
 2099 05a6 C001      		.sleb128 192
 2100 05a8 07        		.uleb128 0x7
 2101 05a9 0000 0000 		.long	.LASF170
 2102 05ad C101      		.sleb128 193
 2103 05af 07        		.uleb128 0x7
 2104 05b0 0000 0000 		.long	.LASF171
 2105 05b4 C201      		.sleb128 194
 2106 05b6 07        		.uleb128 0x7
 2107 05b7 0000 0000 		.long	.LASF172
 2108 05bb C301      		.sleb128 195
 2109 05bd 07        		.uleb128 0x7
GAS LISTING C:\Users\21030\AppData\Local\Temp/ccCMDFwY.s 			page 38


 2110 05be 0000 0000 		.long	.LASF173
 2111 05c2 C401      		.sleb128 196
 2112 05c4 07        		.uleb128 0x7
 2113 05c5 0000 0000 		.long	.LASF174
 2114 05c9 C501      		.sleb128 197
 2115 05cb 07        		.uleb128 0x7
 2116 05cc 0000 0000 		.long	.LASF175
 2117 05d0 C601      		.sleb128 198
 2118 05d2 07        		.uleb128 0x7
 2119 05d3 0000 0000 		.long	.LASF176
 2120 05d7 C701      		.sleb128 199
 2121 05d9 07        		.uleb128 0x7
 2122 05da 0000 0000 		.long	.LASF177
 2123 05de C801      		.sleb128 200
 2124 05e0 07        		.uleb128 0x7
 2125 05e1 0000 0000 		.long	.LASF178
 2126 05e5 C901      		.sleb128 201
 2127 05e7 07        		.uleb128 0x7
 2128 05e8 0000 0000 		.long	.LASF179
 2129 05ec CA01      		.sleb128 202
 2130 05ee 07        		.uleb128 0x7
 2131 05ef 0000 0000 		.long	.LASF180
 2132 05f3 CB01      		.sleb128 203
 2133 05f5 07        		.uleb128 0x7
 2134 05f6 0000 0000 		.long	.LASF181
 2135 05fa CC01      		.sleb128 204
 2136 05fc 07        		.uleb128 0x7
 2137 05fd 0000 0000 		.long	.LASF182
 2138 0601 CD01      		.sleb128 205
 2139 0603 07        		.uleb128 0x7
 2140 0604 0000 0000 		.long	.LASF183
 2141 0608 CE01      		.sleb128 206
 2142 060a 07        		.uleb128 0x7
 2143 060b 0000 0000 		.long	.LASF184
 2144 060f CF01      		.sleb128 207
 2145 0611 07        		.uleb128 0x7
 2146 0612 0000 0000 		.long	.LASF185
 2147 0616 D001      		.sleb128 208
 2148 0618 07        		.uleb128 0x7
 2149 0619 0000 0000 		.long	.LASF186
 2150 061d D101      		.sleb128 209
 2151 061f 07        		.uleb128 0x7
 2152 0620 0000 0000 		.long	.LASF187
 2153 0624 D201      		.sleb128 210
 2154 0626 07        		.uleb128 0x7
 2155 0627 0000 0000 		.long	.LASF188
 2156 062b D301      		.sleb128 211
 2157 062d 07        		.uleb128 0x7
 2158 062e 0000 0000 		.long	.LASF189
 2159 0632 D401      		.sleb128 212
 2160 0634 07        		.uleb128 0x7
 2161 0635 0000 0000 		.long	.LASF190
 2162 0639 D501      		.sleb128 213
 2163 063b 07        		.uleb128 0x7
 2164 063c 0000 0000 		.long	.LASF191
 2165 0640 D601      		.sleb128 214
 2166 0642 07        		.uleb128 0x7
GAS LISTING C:\Users\21030\AppData\Local\Temp/ccCMDFwY.s 			page 39


 2167 0643 0000 0000 		.long	.LASF192
 2168 0647 D701      		.sleb128 215
 2169 0649 07        		.uleb128 0x7
 2170 064a 0000 0000 		.long	.LASF193
 2171 064e D801      		.sleb128 216
 2172 0650 07        		.uleb128 0x7
 2173 0651 0000 0000 		.long	.LASF194
 2174 0655 D901      		.sleb128 217
 2175 0657 07        		.uleb128 0x7
 2176 0658 0000 0000 		.long	.LASF195
 2177 065c DA01      		.sleb128 218
 2178 065e 07        		.uleb128 0x7
 2179 065f 0000 0000 		.long	.LASF196
 2180 0663 DB01      		.sleb128 219
 2181 0665 07        		.uleb128 0x7
 2182 0666 0000 0000 		.long	.LASF197
 2183 066a DC01      		.sleb128 220
 2184 066c 07        		.uleb128 0x7
 2185 066d 0000 0000 		.long	.LASF198
 2186 0671 DD01      		.sleb128 221
 2187 0673 07        		.uleb128 0x7
 2188 0674 0000 0000 		.long	.LASF199
 2189 0678 DE01      		.sleb128 222
 2190 067a 07        		.uleb128 0x7
 2191 067b 0000 0000 		.long	.LASF200
 2192 067f DF01      		.sleb128 223
 2193 0681 07        		.uleb128 0x7
 2194 0682 0000 0000 		.long	.LASF201
 2195 0686 E001      		.sleb128 224
 2196 0688 07        		.uleb128 0x7
 2197 0689 0000 0000 		.long	.LASF202
 2198 068d E101      		.sleb128 225
 2199 068f 07        		.uleb128 0x7
 2200 0690 0000 0000 		.long	.LASF203
 2201 0694 E201      		.sleb128 226
 2202 0696 07        		.uleb128 0x7
 2203 0697 0000 0000 		.long	.LASF204
 2204 069b E301      		.sleb128 227
 2205 069d 07        		.uleb128 0x7
 2206 069e 0000 0000 		.long	.LASF205
 2207 06a2 E401      		.sleb128 228
 2208 06a4 07        		.uleb128 0x7
 2209 06a5 0000 0000 		.long	.LASF206
 2210 06a9 E501      		.sleb128 229
 2211 06ab 07        		.uleb128 0x7
 2212 06ac 0000 0000 		.long	.LASF207
 2213 06b0 E601      		.sleb128 230
 2214 06b2 07        		.uleb128 0x7
 2215 06b3 0000 0000 		.long	.LASF208
 2216 06b7 E701      		.sleb128 231
 2217 06b9 07        		.uleb128 0x7
 2218 06ba 0000 0000 		.long	.LASF209
 2219 06be E801      		.sleb128 232
 2220 06c0 07        		.uleb128 0x7
 2221 06c1 0000 0000 		.long	.LASF210
 2222 06c5 E901      		.sleb128 233
 2223 06c7 07        		.uleb128 0x7
GAS LISTING C:\Users\21030\AppData\Local\Temp/ccCMDFwY.s 			page 40


 2224 06c8 0000 0000 		.long	.LASF211
 2225 06cc EA01      		.sleb128 234
 2226 06ce 07        		.uleb128 0x7
 2227 06cf 0000 0000 		.long	.LASF212
 2228 06d3 EB01      		.sleb128 235
 2229 06d5 07        		.uleb128 0x7
 2230 06d6 0000 0000 		.long	.LASF213
 2231 06da EC01      		.sleb128 236
 2232 06dc 07        		.uleb128 0x7
 2233 06dd 0000 0000 		.long	.LASF214
 2234 06e1 ED01      		.sleb128 237
 2235 06e3 07        		.uleb128 0x7
 2236 06e4 0000 0000 		.long	.LASF215
 2237 06e8 EE01      		.sleb128 238
 2238 06ea 07        		.uleb128 0x7
 2239 06eb 0000 0000 		.long	.LASF216
 2240 06ef EF01      		.sleb128 239
 2241 06f1 07        		.uleb128 0x7
 2242 06f2 0000 0000 		.long	.LASF217
 2243 06f6 F001      		.sleb128 240
 2244 06f8 07        		.uleb128 0x7
 2245 06f9 0000 0000 		.long	.LASF218
 2246 06fd F101      		.sleb128 241
 2247 06ff 07        		.uleb128 0x7
 2248 0700 0000 0000 		.long	.LASF219
 2249 0704 F201      		.sleb128 242
 2250 0706 07        		.uleb128 0x7
 2251 0707 0000 0000 		.long	.LASF220
 2252 070b F301      		.sleb128 243
 2253 070d 07        		.uleb128 0x7
 2254 070e 0000 0000 		.long	.LASF221
 2255 0712 F401      		.sleb128 244
 2256 0714 07        		.uleb128 0x7
 2257 0715 0000 0000 		.long	.LASF222
 2258 0719 F501      		.sleb128 245
 2259 071b 07        		.uleb128 0x7
 2260 071c 0000 0000 		.long	.LASF223
 2261 0720 F601      		.sleb128 246
 2262 0722 07        		.uleb128 0x7
 2263 0723 0000 0000 		.long	.LASF224
 2264 0727 F701      		.sleb128 247
 2265 0729 07        		.uleb128 0x7
 2266 072a 0000 0000 		.long	.LASF225
 2267 072e F801      		.sleb128 248
 2268 0730 07        		.uleb128 0x7
 2269 0731 0000 0000 		.long	.LASF226
 2270 0735 F901      		.sleb128 249
 2271 0737 07        		.uleb128 0x7
 2272 0738 0000 0000 		.long	.LASF227
 2273 073c FA01      		.sleb128 250
 2274 073e 07        		.uleb128 0x7
 2275 073f 0000 0000 		.long	.LASF228
 2276 0743 FB01      		.sleb128 251
 2277 0745 07        		.uleb128 0x7
 2278 0746 0000 0000 		.long	.LASF229
 2279 074a FC01      		.sleb128 252
 2280 074c 07        		.uleb128 0x7
GAS LISTING C:\Users\21030\AppData\Local\Temp/ccCMDFwY.s 			page 41


 2281 074d 0000 0000 		.long	.LASF230
 2282 0751 FD01      		.sleb128 253
 2283 0753 07        		.uleb128 0x7
 2284 0754 0000 0000 		.long	.LASF231
 2285 0758 FE01      		.sleb128 254
 2286 075a 07        		.uleb128 0x7
 2287 075b 0000 0000 		.long	.LASF232
 2288 075f FF01      		.sleb128 255
 2289 0761 00        		.byte	0x0
 2290 0762 09        		.uleb128 0x9
 2291 0763 01        		.byte	0x1
 2292 0764 0000 0000 		.long	.LASF274
 2293 0768 01        		.byte	0x1
 2294 0769 4C        		.byte	0x4c
 2295 076a 01        		.byte	0x1
 2296 076b 2C00 0000 		.long	0x2c
 2297 076f 01        		.byte	0x1
 2298 0770 0A        		.uleb128 0xa
 2299 0771 01        		.byte	0x1
 2300 0772 0000 0000 		.long	.LASF233
 2301 0776 01        		.byte	0x1
 2302 0777 26        		.byte	0x26
 2303 0778 01        		.byte	0x1
 2304 0779 0000 0000 		.long	.LFB7
 2305 077d 0000 0000 		.long	.LFE7
 2306 0781 02        		.byte	0x2
 2307 0782 90        		.byte	0x90
 2308 0783 20        		.uleb128 0x20
 2309 0784 A907 0000 		.long	0x7a9
 2310 0788 0B        		.uleb128 0xb
 2311 0789 0000 0000 		.long	.LASF236
 2312 078d 01        		.byte	0x1
 2313 078e 26        		.byte	0x26
 2314 078f 2C00 0000 		.long	0x2c
 2315 0793 0000 0000 		.long	.LLST1
 2316 0797 0C        		.uleb128 0xc
 2317 0798 0000 0000 		.long	.LASF241
 2318 079c 01        		.byte	0x1
 2319 079d 27        		.byte	0x27
 2320 079e 2C00 0000 		.long	0x2c
 2321 07a2 05        		.byte	0x5
 2322 07a3 03        		.byte	0x3
 2323 07a4 0000 0000 		.long	record.2028
 2324 07a8 00        		.byte	0x0
 2325 07a9 0D        		.uleb128 0xd
 2326 07aa 01        		.byte	0x1
 2327 07ab 706F 7000 		.string	"pop"
 2328 07af 01        		.byte	0x1
 2329 07b0 43        		.byte	0x43
 2330 07b1 01        		.byte	0x1
 2331 07b2 2C00 0000 		.long	0x2c
 2332 07b6 0000 0000 		.long	.LFB8
 2333 07ba 0000 0000 		.long	.LFE8
 2334 07be 02        		.byte	0x2
 2335 07bf 90        		.byte	0x90
 2336 07c0 20        		.uleb128 0x20
 2337 07c1 0E        		.uleb128 0xe
GAS LISTING C:\Users\21030\AppData\Local\Temp/ccCMDFwY.s 			page 42


 2338 07c2 6207 0000 		.long	0x762
 2339 07c6 0000 0000 		.long	.LFB9
 2340 07ca 0000 0000 		.long	.LFE9
 2341 07ce 02        		.byte	0x2
 2342 07cf 90        		.byte	0x90
 2343 07d0 20        		.uleb128 0x20
 2344 07d1 0A        		.uleb128 0xa
 2345 07d2 01        		.byte	0x1
 2346 07d3 0000 0000 		.long	.LASF234
 2347 07d7 01        		.byte	0x1
 2348 07d8 53        		.byte	0x53
 2349 07d9 01        		.byte	0x1
 2350 07da 0000 0000 		.long	.LFB10
 2351 07de 0000 0000 		.long	.LFE10
 2352 07e2 02        		.byte	0x2
 2353 07e3 90        		.byte	0x90
 2354 07e4 20        		.uleb128 0x20
 2355 07e5 F307 0000 		.long	0x7f3
 2356 07e9 0F        		.uleb128 0xf
 2357 07ea 6900      		.string	"i"
 2358 07ec 01        		.byte	0x1
 2359 07ed 54        		.byte	0x54
 2360 07ee 3E00 0000 		.long	0x3e
 2361 07f2 00        		.byte	0x0
 2362 07f3 0A        		.uleb128 0xa
 2363 07f4 01        		.byte	0x1
 2364 07f5 0000 0000 		.long	.LASF235
 2365 07f9 01        		.byte	0x1
 2366 07fa 6A        		.byte	0x6a
 2367 07fb 01        		.byte	0x1
 2368 07fc 0000 0000 		.long	.LFB12
 2369 0800 0000 0000 		.long	.LFE12
 2370 0804 02        		.byte	0x2
 2371 0805 90        		.byte	0x90
 2372 0806 20        		.uleb128 0x20
 2373 0807 5908 0000 		.long	0x859
 2374 080b 0B        		.uleb128 0xb
 2375 080c 0000 0000 		.long	.LASF237
 2376 0810 01        		.byte	0x1
 2377 0811 69        		.byte	0x69
 2378 0812 2C00 0000 		.long	0x2c
 2379 0816 0000 0000 		.long	.LLST6
 2380 081a 0B        		.uleb128 0xb
 2381 081b 0000 0000 		.long	.LASF238
 2382 081f 01        		.byte	0x1
 2383 0820 69        		.byte	0x69
 2384 0821 2C00 0000 		.long	0x2c
 2385 0825 0000 0000 		.long	.LLST7
 2386 0829 10        		.uleb128 0x10
 2387 082a 0000 0000 		.long	.LASF239
 2388 082e 01        		.byte	0x1
 2389 082f 6C        		.byte	0x6c
 2390 0830 2C00 0000 		.long	0x2c
 2391 0834 11        		.uleb128 0x11
 2392 0835 0000 0000 		.long	.LBB8
 2393 0839 0000 0000 		.long	.LBE8
 2394 083d 10        		.uleb128 0x10
GAS LISTING C:\Users\21030\AppData\Local\Temp/ccCMDFwY.s 			page 43


 2395 083e 0000 0000 		.long	.LASF240
 2396 0842 01        		.byte	0x1
 2397 0843 6C        		.byte	0x6c
 2398 0844 4500 0000 		.long	0x45
 2399 0848 12        		.uleb128 0x12
 2400 0849 0000 0000 		.long	.LASF242
 2401 084d 01        		.byte	0x1
 2402 084e 6C        		.byte	0x6c
 2403 084f 2C00 0000 		.long	0x2c
 2404 0853 0000 0000 		.long	.LLST8
 2405 0857 00        		.byte	0x0
 2406 0858 00        		.byte	0x0
 2407 0859 0A        		.uleb128 0xa
 2408 085a 01        		.byte	0x1
 2409 085b 0000 0000 		.long	.LASF243
 2410 085f 01        		.byte	0x1
 2411 0860 5F        		.byte	0x5f
 2412 0861 01        		.byte	0x1
 2413 0862 0000 0000 		.long	.LFB11
 2414 0866 0000 0000 		.long	.LFE11
 2415 086a 02        		.byte	0x2
 2416 086b 90        		.byte	0x90
 2417 086c 20        		.uleb128 0x20
 2418 086d 8E08 0000 		.long	0x88e
 2419 0871 13        		.uleb128 0x13
 2420 0872 7800      		.string	"x"
 2421 0874 01        		.byte	0x1
 2422 0875 5E        		.byte	0x5e
 2423 0876 3700 0000 		.long	0x37
 2424 087a 0000 0000 		.long	.LLST10
 2425 087e 0B        		.uleb128 0xb
 2426 087f 0000 0000 		.long	.LASF244
 2427 0883 01        		.byte	0x1
 2428 0884 5E        		.byte	0x5e
 2429 0885 3700 0000 		.long	0x37
 2430 0889 0000 0000 		.long	.LLST11
 2431 088d 00        		.byte	0x0
 2432 088e 14        		.uleb128 0x14
 2433 088f 01        		.byte	0x1
 2434 0890 0000 0000 		.long	.LASF246
 2435 0894 01        		.byte	0x1
 2436 0895 3001      		.word	0x130
 2437 0897 01        		.byte	0x1
 2438 0898 3E00 0000 		.long	0x3e
 2439 089c 0000 0000 		.long	.LFB14
 2440 08a0 0000 0000 		.long	.LFE14
 2441 08a4 02        		.byte	0x2
 2442 08a5 90        		.byte	0x90
 2443 08a6 20        		.uleb128 0x20
 2444 08a7 DC08 0000 		.long	0x8dc
 2445 08ab 15        		.uleb128 0x15
 2446 08ac 0000 0000 		.long	.LASF245
 2447 08b0 01        		.byte	0x1
 2448 08b1 3101      		.word	0x131
 2449 08b3 2C00 0000 		.long	0x2c
 2450 08b7 0000 0000 		.long	.LLST13
 2451 08bb 16        		.uleb128 0x16
GAS LISTING C:\Users\21030\AppData\Local\Temp/ccCMDFwY.s 			page 44


 2452 08bc 6207 0000 		.long	0x762
 2453 08c0 0000 0000 		.long	.LBB9
 2454 08c4 0000 0000 		.long	.LBE9
 2455 08c8 01        		.byte	0x1
 2456 08c9 3501      		.word	0x135
 2457 08cb 16        		.uleb128 0x16
 2458 08cc 6207 0000 		.long	0x762
 2459 08d0 0000 0000 		.long	.LBB11
 2460 08d4 0000 0000 		.long	.LBE11
 2461 08d8 01        		.byte	0x1
 2462 08d9 5401      		.word	0x154
 2463 08db 00        		.byte	0x0
 2464 08dc 17        		.uleb128 0x17
 2465 08dd 01        		.byte	0x1
 2466 08de 0000 0000 		.long	.LASF247
 2467 08e2 01        		.byte	0x1
 2468 08e3 BE        		.byte	0xbe
 2469 08e4 01        		.byte	0x1
 2470 08e5 3E00 0000 		.long	0x3e
 2471 08e9 0000 0000 		.long	.LFB13
 2472 08ed 0000 0000 		.long	.LFE13
 2473 08f1 02        		.byte	0x2
 2474 08f2 90        		.byte	0x90
 2475 08f3 20        		.uleb128 0x20
 2476 08f4 3C09 0000 		.long	0x93c
 2477 08f8 12        		.uleb128 0x12
 2478 08f9 0000 0000 		.long	.LASF248
 2479 08fd 01        		.byte	0x1
 2480 08fe C0        		.byte	0xc0
 2481 08ff 3700 0000 		.long	0x37
 2482 0903 0000 0000 		.long	.LLST15
 2483 0907 10        		.uleb128 0x10
 2484 0908 0000 0000 		.long	.LASF249
 2485 090c 01        		.byte	0x1
 2486 090d C1        		.byte	0xc1
 2487 090e 3E00 0000 		.long	0x3e
 2488 0912 12        		.uleb128 0x12
 2489 0913 0000 0000 		.long	.LASF250
 2490 0917 01        		.byte	0x1
 2491 0918 C1        		.byte	0xc1
 2492 0919 3E00 0000 		.long	0x3e
 2493 091d 0000 0000 		.long	.LLST16
 2494 0921 18        		.uleb128 0x18
 2495 0922 6900      		.string	"i"
 2496 0924 01        		.byte	0x1
 2497 0925 C2        		.byte	0xc2
 2498 0926 3E00 0000 		.long	0x3e
 2499 092a 0000 0000 		.long	.LLST17
 2500 092e 18        		.uleb128 0x18
 2501 092f 6A00      		.string	"j"
 2502 0931 01        		.byte	0x1
 2503 0932 C2        		.byte	0xc2
 2504 0933 3E00 0000 		.long	0x3e
 2505 0937 0000 0000 		.long	.LLST18
 2506 093b 00        		.byte	0x0
 2507 093c 14        		.uleb128 0x14
 2508 093d 01        		.byte	0x1
GAS LISTING C:\Users\21030\AppData\Local\Temp/ccCMDFwY.s 			page 45


 2509 093e 0000 0000 		.long	.LASF251
 2510 0942 01        		.byte	0x1
 2511 0943 7C01      		.word	0x17c
 2512 0945 01        		.byte	0x1
 2513 0946 2C00 0000 		.long	0x2c
 2514 094a 0000 0000 		.long	.LFB15
 2515 094e 0000 0000 		.long	.LFE15
 2516 0952 02        		.byte	0x2
 2517 0953 90        		.byte	0x90
 2518 0954 20        		.uleb128 0x20
 2519 0955 7D09 0000 		.long	0x97d
 2520 0959 19        		.uleb128 0x19
 2521 095a 0000 0000 		.long	.LASF245
 2522 095e 01        		.byte	0x1
 2523 095f 7D01      		.word	0x17d
 2524 0961 3E00 0000 		.long	0x3e
 2525 0965 06        		.byte	0x6
 2526 0966 6C        		.byte	0x6c
 2527 0967 93        		.byte	0x93
 2528 0968 01        		.uleb128 0x1
 2529 0969 6D        		.byte	0x6d
 2530 096a 93        		.byte	0x93
 2531 096b 01        		.uleb128 0x1
 2532 096c 16        		.uleb128 0x16
 2533 096d 6207 0000 		.long	0x762
 2534 0971 0000 0000 		.long	.LBB13
 2535 0975 0000 0000 		.long	.LBE13
 2536 0979 01        		.byte	0x1
 2537 097a 8D01      		.word	0x18d
 2538 097c 00        		.byte	0x0
 2539 097d 1A        		.uleb128 0x1a
 2540 097e 2C00 0000 		.long	0x2c
 2541 0982 8D09 0000 		.long	0x98d
 2542 0986 1B        		.uleb128 0x1b
 2543 0987 8D09 0000 		.long	0x98d
 2544 098b C7        		.byte	0xc7
 2545 098c 00        		.byte	0x0
 2546 098d 05        		.uleb128 0x5
 2547 098e 02        		.byte	0x2
 2548 098f 07        		.byte	0x7
 2549 0990 0C        		.uleb128 0xc
 2550 0991 0000 0000 		.long	.LASF252
 2551 0995 01        		.byte	0x1
 2552 0996 14        		.byte	0x14
 2553 0997 7D09 0000 		.long	0x97d
 2554 099b 05        		.byte	0x5
 2555 099c 03        		.byte	0x3
 2556 099d 0000 0000 		.long	QUEUE
 2557 09a1 0C        		.uleb128 0xc
 2558 09a2 0000 0000 		.long	.LASF253
 2559 09a6 01        		.byte	0x1
 2560 09a7 15        		.byte	0x15
 2561 09a8 3E00 0000 		.long	0x3e
 2562 09ac 05        		.byte	0x5
 2563 09ad 03        		.byte	0x3
 2564 09ae 0000 0000 		.long	rear
 2565 09b2 0C        		.uleb128 0xc
GAS LISTING C:\Users\21030\AppData\Local\Temp/ccCMDFwY.s 			page 46


 2566 09b3 0000 0000 		.long	.LASF254
 2567 09b7 01        		.byte	0x1
 2568 09b8 15        		.byte	0x15
 2569 09b9 3E00 0000 		.long	0x3e
 2570 09bd 05        		.byte	0x5
 2571 09be 03        		.byte	0x3
 2572 09bf 0000 0000 		.long	front
 2573 09c3 0C        		.uleb128 0xc
 2574 09c4 0000 0000 		.long	.LASF255
 2575 09c8 01        		.byte	0x1
 2576 09c9 17        		.byte	0x17
 2577 09ca 2C00 0000 		.long	0x2c
 2578 09ce 05        		.byte	0x5
 2579 09cf 03        		.byte	0x3
 2580 09d0 0000 0000 		.long	lastMAKE_keyidx
 2581 09d4 1A        		.uleb128 0x1a
 2582 09d5 2C00 0000 		.long	0x2c
 2583 09d9 E409 0000 		.long	0x9e4
 2584 09dd 1B        		.uleb128 0x1b
 2585 09de 8D09 0000 		.long	0x98d
 2586 09e2 09        		.byte	0x9
 2587 09e3 00        		.byte	0x0
 2588 09e4 0C        		.uleb128 0xc
 2589 09e5 0000 0000 		.long	.LASF256
 2590 09e9 01        		.byte	0x1
 2591 09ea 18        		.byte	0x18
 2592 09eb D409 0000 		.long	0x9d4
 2593 09ef 05        		.byte	0x5
 2594 09f0 03        		.byte	0x3
 2595 09f1 0000 0000 		.long	lastMAKE
 2596 09f5 0C        		.uleb128 0xc
 2597 09f6 0000 0000 		.long	.LASF257
 2598 09fa 01        		.byte	0x1
 2599 09fb 19        		.byte	0x19
 2600 09fc 2C00 0000 		.long	0x2c
 2601 0a00 05        		.byte	0x5
 2602 0a01 03        		.byte	0x3
 2603 0a02 0000 0000 		.long	lastMAKE_SIZE
 2604 0a06 0C        		.uleb128 0xc
 2605 0a07 0000 0000 		.long	.LASF258
 2606 0a0b 01        		.byte	0x1
 2607 0a0c 1A        		.byte	0x1a
 2608 0a0d 2C00 0000 		.long	0x2c
 2609 0a11 05        		.byte	0x5
 2610 0a12 03        		.byte	0x3
 2611 0a13 0000 0000 		.long	lastMAKE_IDX
 2612 0a17 0C        		.uleb128 0xc
 2613 0a18 0000 0000 		.long	.LASF259
 2614 0a1c 01        		.byte	0x1
 2615 0a1d 1B        		.byte	0x1b
 2616 0a1e 5700 0000 		.long	0x57
 2617 0a22 05        		.byte	0x5
 2618 0a23 03        		.byte	0x3
 2619 0a24 0000 0000 		.long	loopCnt
 2620 0a28 0C        		.uleb128 0xc
 2621 0a29 0000 0000 		.long	.LASF260
 2622 0a2d 01        		.byte	0x1
GAS LISTING C:\Users\21030\AppData\Local\Temp/ccCMDFwY.s 			page 47


 2623 0a2e 21        		.byte	0x21
 2624 0a2f 2C00 0000 		.long	0x2c
 2625 0a33 05        		.byte	0x5
 2626 0a34 03        		.byte	0x3
 2627 0a35 0000 0000 		.long	TYPEMATIC_DELAY
 2628 0a39 0C        		.uleb128 0xc
 2629 0a3a 0000 0000 		.long	.LASF261
 2630 0a3e 01        		.byte	0x1
 2631 0a3f 22        		.byte	0x22
 2632 0a40 5700 0000 		.long	0x57
 2633 0a44 05        		.byte	0x5
 2634 0a45 03        		.byte	0x3
 2635 0a46 0000 0000 		.long	TYPEMATIC_REPEAT
 2636 0a4a 1C        		.uleb128 0x1c
 2637 0a4b 0000 0000 		.long	.LASF262
 2638 0a4f 03        		.byte	0x3
 2639 0a50 44        		.byte	0x44
 2640 0a51 570A 0000 		.long	0xa57
 2641 0a55 01        		.byte	0x1
 2642 0a56 01        		.byte	0x1
 2643 0a57 1D        		.uleb128 0x1d
 2644 0a58 3700 0000 		.long	0x37
 2645 0a5c 1A        		.uleb128 0x1a
 2646 0a5d 2C00 0000 		.long	0x2c
 2647 0a61 670A 0000 		.long	0xa67
 2648 0a65 1E        		.uleb128 0x1e
 2649 0a66 00        		.byte	0x0
 2650 0a67 1F        		.uleb128 0x1f
 2651 0a68 0000 0000 		.long	.LASF263
 2652 0a6c 04        		.byte	0x4
 2653 0a6d 7F01      		.word	0x17f
 2654 0a6f 750A 0000 		.long	0xa75
 2655 0a73 01        		.byte	0x1
 2656 0a74 01        		.byte	0x1
 2657 0a75 20        		.uleb128 0x20
 2658 0a76 5C0A 0000 		.long	0xa5c
 2659 0a7a 1F        		.uleb128 0x1f
 2660 0a7b 0000 0000 		.long	.LASF264
 2661 0a7f 04        		.byte	0x4
 2662 0a80 8001      		.word	0x180
 2663 0a82 5C0A 0000 		.long	0xa5c
 2664 0a86 01        		.byte	0x1
 2665 0a87 01        		.byte	0x1
 2666 0a88 1C        		.uleb128 0x1c
 2667 0a89 0000 0000 		.long	.LASF265
 2668 0a8d 05        		.byte	0x5
 2669 0a8e 28        		.byte	0x28
 2670 0a8f 2C00 0000 		.long	0x2c
 2671 0a93 01        		.byte	0x1
 2672 0a94 01        		.byte	0x1
 2673 0a95 1A        		.uleb128 0x1a
 2674 0a96 5E00 0000 		.long	0x5e
 2675 0a9a A50A 0000 		.long	0xaa5
 2676 0a9e 1B        		.uleb128 0x1b
 2677 0a9f 8D09 0000 		.long	0x98d
 2678 0aa3 05        		.byte	0x5
 2679 0aa4 00        		.byte	0x0
GAS LISTING C:\Users\21030\AppData\Local\Temp/ccCMDFwY.s 			page 48


 2680 0aa5 1C        		.uleb128 0x1c
 2681 0aa6 0000 0000 		.long	.LASF266
 2682 0aaa 06        		.byte	0x6
 2683 0aab 09        		.byte	0x9
 2684 0aac 950A 0000 		.long	0xa95
 2685 0ab0 01        		.byte	0x1
 2686 0ab1 01        		.byte	0x1
 2687 0ab2 21        		.uleb128 0x21
 2688 0ab3 0000 0000 		.long	.LASF267
 2689 0ab7 01        		.byte	0x1
 2690 0ab8 1D        		.byte	0x1d
 2691 0ab9 3700 0000 		.long	0x37
 2692 0abd 01        		.byte	0x1
 2693 0abe 05        		.byte	0x5
 2694 0abf 03        		.byte	0x3
 2695 0ac0 0000 0000 		.long	txScanCode
 2696 0ac4 21        		.uleb128 0x21
 2697 0ac5 0000 0000 		.long	.LASF268
 2698 0ac9 01        		.byte	0x1
 2699 0aca 1E        		.byte	0x1e
 2700 0acb 3700 0000 		.long	0x37
 2701 0acf 01        		.byte	0x1
 2702 0ad0 05        		.byte	0x5
 2703 0ad1 03        		.byte	0x3
 2704 0ad2 0000 0000 		.long	m_state
 2705 0ad6 21        		.uleb128 0x21
 2706 0ad7 0000 0000 		.long	.LASF269
 2707 0adb 01        		.byte	0x1
 2708 0adc 1F        		.byte	0x1f
 2709 0add 3700 0000 		.long	0x37
 2710 0ae1 01        		.byte	0x1
 2711 0ae2 05        		.byte	0x5
 2712 0ae3 03        		.byte	0x3
 2713 0ae4 0000 0000 		.long	lastSent
 2714 0ae8 21        		.uleb128 0x21
 2715 0ae9 0000 0000 		.long	.LASF270
 2716 0aed 01        		.byte	0x1
 2717 0aee 20        		.byte	0x20
 2718 0aef 3700 0000 		.long	0x37
 2719 0af3 01        		.byte	0x1
 2720 0af4 05        		.byte	0x5
 2721 0af5 03        		.byte	0x3
 2722 0af6 0000 0000 		.long	lastState
 2723 0afa 00        		.byte	0x0
 2724               		.section	.debug_abbrev
 2725 0000 01        		.uleb128 0x1
 2726 0001 11        		.uleb128 0x11
 2727 0002 01        		.byte	0x1
 2728 0003 25        		.uleb128 0x25
 2729 0004 0E        		.uleb128 0xe
 2730 0005 13        		.uleb128 0x13
 2731 0006 0B        		.uleb128 0xb
 2732 0007 03        		.uleb128 0x3
 2733 0008 0E        		.uleb128 0xe
 2734 0009 1B        		.uleb128 0x1b
 2735 000a 0E        		.uleb128 0xe
 2736 000b 11        		.uleb128 0x11
GAS LISTING C:\Users\21030\AppData\Local\Temp/ccCMDFwY.s 			page 49


 2737 000c 01        		.uleb128 0x1
 2738 000d 12        		.uleb128 0x12
 2739 000e 01        		.uleb128 0x1
 2740 000f 10        		.uleb128 0x10
 2741 0010 06        		.uleb128 0x6
 2742 0011 00        		.byte	0x0
 2743 0012 00        		.byte	0x0
 2744 0013 02        		.uleb128 0x2
 2745 0014 24        		.uleb128 0x24
 2746 0015 00        		.byte	0x0
 2747 0016 0B        		.uleb128 0xb
 2748 0017 0B        		.uleb128 0xb
 2749 0018 3E        		.uleb128 0x3e
 2750 0019 0B        		.uleb128 0xb
 2751 001a 03        		.uleb128 0x3
 2752 001b 0E        		.uleb128 0xe
 2753 001c 00        		.byte	0x0
 2754 001d 00        		.byte	0x0
 2755 001e 03        		.uleb128 0x3
 2756 001f 16        		.uleb128 0x16
 2757 0020 00        		.byte	0x0
 2758 0021 03        		.uleb128 0x3
 2759 0022 0E        		.uleb128 0xe
 2760 0023 3A        		.uleb128 0x3a
 2761 0024 0B        		.uleb128 0xb
 2762 0025 3B        		.uleb128 0x3b
 2763 0026 0B        		.uleb128 0xb
 2764 0027 49        		.uleb128 0x49
 2765 0028 13        		.uleb128 0x13
 2766 0029 00        		.byte	0x0
 2767 002a 00        		.byte	0x0
 2768 002b 04        		.uleb128 0x4
 2769 002c 24        		.uleb128 0x24
 2770 002d 00        		.byte	0x0
 2771 002e 0B        		.uleb128 0xb
 2772 002f 0B        		.uleb128 0xb
 2773 0030 3E        		.uleb128 0x3e
 2774 0031 0B        		.uleb128 0xb
 2775 0032 03        		.uleb128 0x3
 2776 0033 08        		.uleb128 0x8
 2777 0034 00        		.byte	0x0
 2778 0035 00        		.byte	0x0
 2779 0036 05        		.uleb128 0x5
 2780 0037 24        		.uleb128 0x24
 2781 0038 00        		.byte	0x0
 2782 0039 0B        		.uleb128 0xb
 2783 003a 0B        		.uleb128 0xb
 2784 003b 3E        		.uleb128 0x3e
 2785 003c 0B        		.uleb128 0xb
 2786 003d 00        		.byte	0x0
 2787 003e 00        		.byte	0x0
 2788 003f 06        		.uleb128 0x6
 2789 0040 04        		.uleb128 0x4
 2790 0041 01        		.byte	0x1
 2791 0042 0B        		.uleb128 0xb
 2792 0043 0B        		.uleb128 0xb
 2793 0044 3A        		.uleb128 0x3a
GAS LISTING C:\Users\21030\AppData\Local\Temp/ccCMDFwY.s 			page 50


 2794 0045 0B        		.uleb128 0xb
 2795 0046 3B        		.uleb128 0x3b
 2796 0047 0B        		.uleb128 0xb
 2797 0048 01        		.uleb128 0x1
 2798 0049 13        		.uleb128 0x13
 2799 004a 00        		.byte	0x0
 2800 004b 00        		.byte	0x0
 2801 004c 07        		.uleb128 0x7
 2802 004d 28        		.uleb128 0x28
 2803 004e 00        		.byte	0x0
 2804 004f 03        		.uleb128 0x3
 2805 0050 0E        		.uleb128 0xe
 2806 0051 1C        		.uleb128 0x1c
 2807 0052 0D        		.uleb128 0xd
 2808 0053 00        		.byte	0x0
 2809 0054 00        		.byte	0x0
 2810 0055 08        		.uleb128 0x8
 2811 0056 28        		.uleb128 0x28
 2812 0057 00        		.byte	0x0
 2813 0058 03        		.uleb128 0x3
 2814 0059 08        		.uleb128 0x8
 2815 005a 1C        		.uleb128 0x1c
 2816 005b 0D        		.uleb128 0xd
 2817 005c 00        		.byte	0x0
 2818 005d 00        		.byte	0x0
 2819 005e 09        		.uleb128 0x9
 2820 005f 2E        		.uleb128 0x2e
 2821 0060 00        		.byte	0x0
 2822 0061 3F        		.uleb128 0x3f
 2823 0062 0C        		.uleb128 0xc
 2824 0063 03        		.uleb128 0x3
 2825 0064 0E        		.uleb128 0xe
 2826 0065 3A        		.uleb128 0x3a
 2827 0066 0B        		.uleb128 0xb
 2828 0067 3B        		.uleb128 0x3b
 2829 0068 0B        		.uleb128 0xb
 2830 0069 27        		.uleb128 0x27
 2831 006a 0C        		.uleb128 0xc
 2832 006b 49        		.uleb128 0x49
 2833 006c 13        		.uleb128 0x13
 2834 006d 20        		.uleb128 0x20
 2835 006e 0B        		.uleb128 0xb
 2836 006f 00        		.byte	0x0
 2837 0070 00        		.byte	0x0
 2838 0071 0A        		.uleb128 0xa
 2839 0072 2E        		.uleb128 0x2e
 2840 0073 01        		.byte	0x1
 2841 0074 3F        		.uleb128 0x3f
 2842 0075 0C        		.uleb128 0xc
 2843 0076 03        		.uleb128 0x3
 2844 0077 0E        		.uleb128 0xe
 2845 0078 3A        		.uleb128 0x3a
 2846 0079 0B        		.uleb128 0xb
 2847 007a 3B        		.uleb128 0x3b
 2848 007b 0B        		.uleb128 0xb
 2849 007c 27        		.uleb128 0x27
 2850 007d 0C        		.uleb128 0xc
GAS LISTING C:\Users\21030\AppData\Local\Temp/ccCMDFwY.s 			page 51


 2851 007e 11        		.uleb128 0x11
 2852 007f 01        		.uleb128 0x1
 2853 0080 12        		.uleb128 0x12
 2854 0081 01        		.uleb128 0x1
 2855 0082 40        		.uleb128 0x40
 2856 0083 0A        		.uleb128 0xa
 2857 0084 01        		.uleb128 0x1
 2858 0085 13        		.uleb128 0x13
 2859 0086 00        		.byte	0x0
 2860 0087 00        		.byte	0x0
 2861 0088 0B        		.uleb128 0xb
 2862 0089 05        		.uleb128 0x5
 2863 008a 00        		.byte	0x0
 2864 008b 03        		.uleb128 0x3
 2865 008c 0E        		.uleb128 0xe
 2866 008d 3A        		.uleb128 0x3a
 2867 008e 0B        		.uleb128 0xb
 2868 008f 3B        		.uleb128 0x3b
 2869 0090 0B        		.uleb128 0xb
 2870 0091 49        		.uleb128 0x49
 2871 0092 13        		.uleb128 0x13
 2872 0093 02        		.uleb128 0x2
 2873 0094 06        		.uleb128 0x6
 2874 0095 00        		.byte	0x0
 2875 0096 00        		.byte	0x0
 2876 0097 0C        		.uleb128 0xc
 2877 0098 34        		.uleb128 0x34
 2878 0099 00        		.byte	0x0
 2879 009a 03        		.uleb128 0x3
 2880 009b 0E        		.uleb128 0xe
 2881 009c 3A        		.uleb128 0x3a
 2882 009d 0B        		.uleb128 0xb
 2883 009e 3B        		.uleb128 0x3b
 2884 009f 0B        		.uleb128 0xb
 2885 00a0 49        		.uleb128 0x49
 2886 00a1 13        		.uleb128 0x13
 2887 00a2 02        		.uleb128 0x2
 2888 00a3 0A        		.uleb128 0xa
 2889 00a4 00        		.byte	0x0
 2890 00a5 00        		.byte	0x0
 2891 00a6 0D        		.uleb128 0xd
 2892 00a7 2E        		.uleb128 0x2e
 2893 00a8 00        		.byte	0x0
 2894 00a9 3F        		.uleb128 0x3f
 2895 00aa 0C        		.uleb128 0xc
 2896 00ab 03        		.uleb128 0x3
 2897 00ac 08        		.uleb128 0x8
 2898 00ad 3A        		.uleb128 0x3a
 2899 00ae 0B        		.uleb128 0xb
 2900 00af 3B        		.uleb128 0x3b
 2901 00b0 0B        		.uleb128 0xb
 2902 00b1 27        		.uleb128 0x27
 2903 00b2 0C        		.uleb128 0xc
 2904 00b3 49        		.uleb128 0x49
 2905 00b4 13        		.uleb128 0x13
 2906 00b5 11        		.uleb128 0x11
 2907 00b6 01        		.uleb128 0x1
GAS LISTING C:\Users\21030\AppData\Local\Temp/ccCMDFwY.s 			page 52


 2908 00b7 12        		.uleb128 0x12
 2909 00b8 01        		.uleb128 0x1
 2910 00b9 40        		.uleb128 0x40
 2911 00ba 0A        		.uleb128 0xa
 2912 00bb 00        		.byte	0x0
 2913 00bc 00        		.byte	0x0
 2914 00bd 0E        		.uleb128 0xe
 2915 00be 2E        		.uleb128 0x2e
 2916 00bf 00        		.byte	0x0
 2917 00c0 31        		.uleb128 0x31
 2918 00c1 13        		.uleb128 0x13
 2919 00c2 11        		.uleb128 0x11
 2920 00c3 01        		.uleb128 0x1
 2921 00c4 12        		.uleb128 0x12
 2922 00c5 01        		.uleb128 0x1
 2923 00c6 40        		.uleb128 0x40
 2924 00c7 0A        		.uleb128 0xa
 2925 00c8 00        		.byte	0x0
 2926 00c9 00        		.byte	0x0
 2927 00ca 0F        		.uleb128 0xf
 2928 00cb 34        		.uleb128 0x34
 2929 00cc 00        		.byte	0x0
 2930 00cd 03        		.uleb128 0x3
 2931 00ce 08        		.uleb128 0x8
 2932 00cf 3A        		.uleb128 0x3a
 2933 00d0 0B        		.uleb128 0xb
 2934 00d1 3B        		.uleb128 0x3b
 2935 00d2 0B        		.uleb128 0xb
 2936 00d3 49        		.uleb128 0x49
 2937 00d4 13        		.uleb128 0x13
 2938 00d5 00        		.byte	0x0
 2939 00d6 00        		.byte	0x0
 2940 00d7 10        		.uleb128 0x10
 2941 00d8 34        		.uleb128 0x34
 2942 00d9 00        		.byte	0x0
 2943 00da 03        		.uleb128 0x3
 2944 00db 0E        		.uleb128 0xe
 2945 00dc 3A        		.uleb128 0x3a
 2946 00dd 0B        		.uleb128 0xb
 2947 00de 3B        		.uleb128 0x3b
 2948 00df 0B        		.uleb128 0xb
 2949 00e0 49        		.uleb128 0x49
 2950 00e1 13        		.uleb128 0x13
 2951 00e2 00        		.byte	0x0
 2952 00e3 00        		.byte	0x0
 2953 00e4 11        		.uleb128 0x11
 2954 00e5 0B        		.uleb128 0xb
 2955 00e6 01        		.byte	0x1
 2956 00e7 11        		.uleb128 0x11
 2957 00e8 01        		.uleb128 0x1
 2958 00e9 12        		.uleb128 0x12
 2959 00ea 01        		.uleb128 0x1
 2960 00eb 00        		.byte	0x0
 2961 00ec 00        		.byte	0x0
 2962 00ed 12        		.uleb128 0x12
 2963 00ee 34        		.uleb128 0x34
 2964 00ef 00        		.byte	0x0
GAS LISTING C:\Users\21030\AppData\Local\Temp/ccCMDFwY.s 			page 53


 2965 00f0 03        		.uleb128 0x3
 2966 00f1 0E        		.uleb128 0xe
 2967 00f2 3A        		.uleb128 0x3a
 2968 00f3 0B        		.uleb128 0xb
 2969 00f4 3B        		.uleb128 0x3b
 2970 00f5 0B        		.uleb128 0xb
 2971 00f6 49        		.uleb128 0x49
 2972 00f7 13        		.uleb128 0x13
 2973 00f8 02        		.uleb128 0x2
 2974 00f9 06        		.uleb128 0x6
 2975 00fa 00        		.byte	0x0
 2976 00fb 00        		.byte	0x0
 2977 00fc 13        		.uleb128 0x13
 2978 00fd 05        		.uleb128 0x5
 2979 00fe 00        		.byte	0x0
 2980 00ff 03        		.uleb128 0x3
 2981 0100 08        		.uleb128 0x8
 2982 0101 3A        		.uleb128 0x3a
 2983 0102 0B        		.uleb128 0xb
 2984 0103 3B        		.uleb128 0x3b
 2985 0104 0B        		.uleb128 0xb
 2986 0105 49        		.uleb128 0x49
 2987 0106 13        		.uleb128 0x13
 2988 0107 02        		.uleb128 0x2
 2989 0108 06        		.uleb128 0x6
 2990 0109 00        		.byte	0x0
 2991 010a 00        		.byte	0x0
 2992 010b 14        		.uleb128 0x14
 2993 010c 2E        		.uleb128 0x2e
 2994 010d 01        		.byte	0x1
 2995 010e 3F        		.uleb128 0x3f
 2996 010f 0C        		.uleb128 0xc
 2997 0110 03        		.uleb128 0x3
 2998 0111 0E        		.uleb128 0xe
 2999 0112 3A        		.uleb128 0x3a
 3000 0113 0B        		.uleb128 0xb
 3001 0114 3B        		.uleb128 0x3b
 3002 0115 05        		.uleb128 0x5
 3003 0116 27        		.uleb128 0x27
 3004 0117 0C        		.uleb128 0xc
 3005 0118 49        		.uleb128 0x49
 3006 0119 13        		.uleb128 0x13
 3007 011a 11        		.uleb128 0x11
 3008 011b 01        		.uleb128 0x1
 3009 011c 12        		.uleb128 0x12
 3010 011d 01        		.uleb128 0x1
 3011 011e 40        		.uleb128 0x40
 3012 011f 0A        		.uleb128 0xa
 3013 0120 01        		.uleb128 0x1
 3014 0121 13        		.uleb128 0x13
 3015 0122 00        		.byte	0x0
 3016 0123 00        		.byte	0x0
 3017 0124 15        		.uleb128 0x15
 3018 0125 34        		.uleb128 0x34
 3019 0126 00        		.byte	0x0
 3020 0127 03        		.uleb128 0x3
 3021 0128 0E        		.uleb128 0xe
GAS LISTING C:\Users\21030\AppData\Local\Temp/ccCMDFwY.s 			page 54


 3022 0129 3A        		.uleb128 0x3a
 3023 012a 0B        		.uleb128 0xb
 3024 012b 3B        		.uleb128 0x3b
 3025 012c 05        		.uleb128 0x5
 3026 012d 49        		.uleb128 0x49
 3027 012e 13        		.uleb128 0x13
 3028 012f 02        		.uleb128 0x2
 3029 0130 06        		.uleb128 0x6
 3030 0131 00        		.byte	0x0
 3031 0132 00        		.byte	0x0
 3032 0133 16        		.uleb128 0x16
 3033 0134 1D        		.uleb128 0x1d
 3034 0135 00        		.byte	0x0
 3035 0136 31        		.uleb128 0x31
 3036 0137 13        		.uleb128 0x13
 3037 0138 11        		.uleb128 0x11
 3038 0139 01        		.uleb128 0x1
 3039 013a 12        		.uleb128 0x12
 3040 013b 01        		.uleb128 0x1
 3041 013c 58        		.uleb128 0x58
 3042 013d 0B        		.uleb128 0xb
 3043 013e 59        		.uleb128 0x59
 3044 013f 05        		.uleb128 0x5
 3045 0140 00        		.byte	0x0
 3046 0141 00        		.byte	0x0
 3047 0142 17        		.uleb128 0x17
 3048 0143 2E        		.uleb128 0x2e
 3049 0144 01        		.byte	0x1
 3050 0145 3F        		.uleb128 0x3f
 3051 0146 0C        		.uleb128 0xc
 3052 0147 03        		.uleb128 0x3
 3053 0148 0E        		.uleb128 0xe
 3054 0149 3A        		.uleb128 0x3a
 3055 014a 0B        		.uleb128 0xb
 3056 014b 3B        		.uleb128 0x3b
 3057 014c 0B        		.uleb128 0xb
 3058 014d 27        		.uleb128 0x27
 3059 014e 0C        		.uleb128 0xc
 3060 014f 49        		.uleb128 0x49
 3061 0150 13        		.uleb128 0x13
 3062 0151 11        		.uleb128 0x11
 3063 0152 01        		.uleb128 0x1
 3064 0153 12        		.uleb128 0x12
 3065 0154 01        		.uleb128 0x1
 3066 0155 40        		.uleb128 0x40
 3067 0156 0A        		.uleb128 0xa
 3068 0157 01        		.uleb128 0x1
 3069 0158 13        		.uleb128 0x13
 3070 0159 00        		.byte	0x0
 3071 015a 00        		.byte	0x0
 3072 015b 18        		.uleb128 0x18
 3073 015c 34        		.uleb128 0x34
 3074 015d 00        		.byte	0x0
 3075 015e 03        		.uleb128 0x3
 3076 015f 08        		.uleb128 0x8
 3077 0160 3A        		.uleb128 0x3a
 3078 0161 0B        		.uleb128 0xb
GAS LISTING C:\Users\21030\AppData\Local\Temp/ccCMDFwY.s 			page 55


 3079 0162 3B        		.uleb128 0x3b
 3080 0163 0B        		.uleb128 0xb
 3081 0164 49        		.uleb128 0x49
 3082 0165 13        		.uleb128 0x13
 3083 0166 02        		.uleb128 0x2
 3084 0167 06        		.uleb128 0x6
 3085 0168 00        		.byte	0x0
 3086 0169 00        		.byte	0x0
 3087 016a 19        		.uleb128 0x19
 3088 016b 34        		.uleb128 0x34
 3089 016c 00        		.byte	0x0
 3090 016d 03        		.uleb128 0x3
 3091 016e 0E        		.uleb128 0xe
 3092 016f 3A        		.uleb128 0x3a
 3093 0170 0B        		.uleb128 0xb
 3094 0171 3B        		.uleb128 0x3b
 3095 0172 05        		.uleb128 0x5
 3096 0173 49        		.uleb128 0x49
 3097 0174 13        		.uleb128 0x13
 3098 0175 02        		.uleb128 0x2
 3099 0176 0A        		.uleb128 0xa
 3100 0177 00        		.byte	0x0
 3101 0178 00        		.byte	0x0
 3102 0179 1A        		.uleb128 0x1a
 3103 017a 01        		.uleb128 0x1
 3104 017b 01        		.byte	0x1
 3105 017c 49        		.uleb128 0x49
 3106 017d 13        		.uleb128 0x13
 3107 017e 01        		.uleb128 0x1
 3108 017f 13        		.uleb128 0x13
 3109 0180 00        		.byte	0x0
 3110 0181 00        		.byte	0x0
 3111 0182 1B        		.uleb128 0x1b
 3112 0183 21        		.uleb128 0x21
 3113 0184 00        		.byte	0x0
 3114 0185 49        		.uleb128 0x49
 3115 0186 13        		.uleb128 0x13
 3116 0187 2F        		.uleb128 0x2f
 3117 0188 0B        		.uleb128 0xb
 3118 0189 00        		.byte	0x0
 3119 018a 00        		.byte	0x0
 3120 018b 1C        		.uleb128 0x1c
 3121 018c 34        		.uleb128 0x34
 3122 018d 00        		.byte	0x0
 3123 018e 03        		.uleb128 0x3
 3124 018f 0E        		.uleb128 0xe
 3125 0190 3A        		.uleb128 0x3a
 3126 0191 0B        		.uleb128 0xb
 3127 0192 3B        		.uleb128 0x3b
 3128 0193 0B        		.uleb128 0xb
 3129 0194 49        		.uleb128 0x49
 3130 0195 13        		.uleb128 0x13
 3131 0196 3F        		.uleb128 0x3f
 3132 0197 0C        		.uleb128 0xc
 3133 0198 3C        		.uleb128 0x3c
 3134 0199 0C        		.uleb128 0xc
 3135 019a 00        		.byte	0x0
GAS LISTING C:\Users\21030\AppData\Local\Temp/ccCMDFwY.s 			page 56


 3136 019b 00        		.byte	0x0
 3137 019c 1D        		.uleb128 0x1d
 3138 019d 35        		.uleb128 0x35
 3139 019e 00        		.byte	0x0
 3140 019f 49        		.uleb128 0x49
 3141 01a0 13        		.uleb128 0x13
 3142 01a1 00        		.byte	0x0
 3143 01a2 00        		.byte	0x0
 3144 01a3 1E        		.uleb128 0x1e
 3145 01a4 21        		.uleb128 0x21
 3146 01a5 00        		.byte	0x0
 3147 01a6 00        		.byte	0x0
 3148 01a7 00        		.byte	0x0
 3149 01a8 1F        		.uleb128 0x1f
 3150 01a9 34        		.uleb128 0x34
 3151 01aa 00        		.byte	0x0
 3152 01ab 03        		.uleb128 0x3
 3153 01ac 0E        		.uleb128 0xe
 3154 01ad 3A        		.uleb128 0x3a
 3155 01ae 0B        		.uleb128 0xb
 3156 01af 3B        		.uleb128 0x3b
 3157 01b0 05        		.uleb128 0x5
 3158 01b1 49        		.uleb128 0x49
 3159 01b2 13        		.uleb128 0x13
 3160 01b3 3F        		.uleb128 0x3f
 3161 01b4 0C        		.uleb128 0xc
 3162 01b5 3C        		.uleb128 0x3c
 3163 01b6 0C        		.uleb128 0xc
 3164 01b7 00        		.byte	0x0
 3165 01b8 00        		.byte	0x0
 3166 01b9 20        		.uleb128 0x20
 3167 01ba 26        		.uleb128 0x26
 3168 01bb 00        		.byte	0x0
 3169 01bc 49        		.uleb128 0x49
 3170 01bd 13        		.uleb128 0x13
 3171 01be 00        		.byte	0x0
 3172 01bf 00        		.byte	0x0
 3173 01c0 21        		.uleb128 0x21
 3174 01c1 34        		.uleb128 0x34
 3175 01c2 00        		.byte	0x0
 3176 01c3 03        		.uleb128 0x3
 3177 01c4 0E        		.uleb128 0xe
 3178 01c5 3A        		.uleb128 0x3a
 3179 01c6 0B        		.uleb128 0xb
 3180 01c7 3B        		.uleb128 0x3b
 3181 01c8 0B        		.uleb128 0xb
 3182 01c9 49        		.uleb128 0x49
 3183 01ca 13        		.uleb128 0x13
 3184 01cb 3F        		.uleb128 0x3f
 3185 01cc 0C        		.uleb128 0xc
 3186 01cd 02        		.uleb128 0x2
 3187 01ce 0A        		.uleb128 0xa
 3188 01cf 00        		.byte	0x0
 3189 01d0 00        		.byte	0x0
 3190 01d1 00        		.byte	0x0
 3191               		.section	.debug_pubnames,"",@progbits
 3192 0000 AB00 0000 		.long	0xab
GAS LISTING C:\Users\21030\AppData\Local\Temp/ccCMDFwY.s 			page 57


 3193 0004 0200      		.word	0x2
 3194 0006 0000 0000 		.long	.Ldebug_info0
 3195 000a FB0A 0000 		.long	0xafb
 3196 000e 7007 0000 		.long	0x770
 3197 0012 7075 7368 		.string	"push"
 3197      00
 3198 0017 A907 0000 		.long	0x7a9
 3199 001b 706F 7000 		.string	"pop"
 3200 001f C107 0000 		.long	0x7c1
 3201 0023 6973 456D 		.string	"isEmpty"
 3201      7074 7900 
 3202 002b D107 0000 		.long	0x7d1
 3203 002f 636C 6561 		.string	"clear"
 3203      7200 
 3204 0035 F307 0000 		.long	0x7f3
 3205 0039 7075 744B 		.string	"putKey"
 3205      6579 00
 3206 0040 5908 0000 		.long	0x859
 3207 0044 7478 5F73 		.string	"tx_state"
 3207      7461 7465 
 3207      00
 3208 004d 8E08 0000 		.long	0x88e
 3209 0051 7072 6F63 		.string	"processTX"
 3209      6573 7354 
 3209      5800 
 3210 005b DC08 0000 		.long	0x8dc
 3211 005f 7072 6F63 		.string	"processRX"
 3211      6573 7352 
 3211      5800 
 3212 0069 3C09 0000 		.long	0x93c
 3213 006d 7073 326D 		.string	"ps2main"
 3213      6169 6E00 
 3214 0075 B20A 0000 		.long	0xab2
 3215 0079 7478 5363 		.string	"txScanCode"
 3215      616E 436F 
 3215      6465 00
 3216 0084 C40A 0000 		.long	0xac4
 3217 0088 6D5F 7374 		.string	"m_state"
 3217      6174 6500 
 3218 0090 D60A 0000 		.long	0xad6
 3219 0094 6C61 7374 		.string	"lastSent"
 3219      5365 6E74 
 3219      00
 3220 009d E80A 0000 		.long	0xae8
 3221 00a1 6C61 7374 		.string	"lastState"
 3221      5374 6174 
 3221      6500 
 3222 00ab 0000 0000 		.long	0x0
 3223               		.section	.debug_aranges,"",@progbits
 3224 0000 1C00 0000 		.long	0x1c
 3225 0004 0200      		.word	0x2
 3226 0006 0000 0000 		.long	.Ldebug_info0
 3227 000a 04        		.byte	0x4
 3228 000b 00        		.byte	0x0
 3229 000c 0000      		.word	0x0
 3230 000e 0000      		.word	0x0
 3231 0010 0000 0000 		.long	.Ltext0
GAS LISTING C:\Users\21030\AppData\Local\Temp/ccCMDFwY.s 			page 58


 3232 0014 7E06 0000 		.long	.Letext0-.Ltext0
 3233 0018 0000 0000 		.long	0x0
 3234 001c 0000 0000 		.long	0x0
 3235               		.section	.debug_line
 3236 0000 AB05 0000 		.long	.LELT0-.LSLT0
 3237               	.LSLT0:
 3238 0004 0200      		.word	0x2
 3239 0006 8E00 0000 		.long	.LELTP0-.LASLTP0
 3240               	.LASLTP0:
 3241 000a 01        		.byte	0x1
 3242 000b 01        		.byte	0x1
 3243 000c F6        		.byte	0xf6
 3244 000d F5        		.byte	0xf5
 3245 000e 0A        		.byte	0xa
 3246 000f 00        		.byte	0x0
 3247 0010 01        		.byte	0x1
 3248 0011 01        		.byte	0x1
 3249 0012 01        		.byte	0x1
 3250 0013 01        		.byte	0x1
 3251 0014 00        		.byte	0x0
 3252 0015 00        		.byte	0x0
 3253 0016 00        		.byte	0x0
 3254 0017 01        		.byte	0x1
 3255 0018 633A 2F77 		.ascii	"c:/winavr-20100110/lib/gcc/../../avr/include"
 3255      696E 6176 
 3255      722D 3230 
 3255      3130 3031 
 3255      3130 2F6C 
 3256 0044 00        		.byte	0
 3257 0045 6D61 7472 		.ascii	"matrix"
 3257      6978 
 3258 004b 00        		.byte	0
 3259 004c 6C65 64   		.ascii	"led"
 3260 004f 00        		.byte	0
 3261 0050 00        		.byte	0x0
 3262 0051 7073 326D 		.string	"ps2main.c"
 3262      6169 6E2E 
 3262      6300 
 3263 005b 00        		.uleb128 0x0
 3264 005c 00        		.uleb128 0x0
 3265 005d 00        		.uleb128 0x0
 3266 005e 7374 6469 		.string	"stdint.h"
 3266      6E74 2E68 
 3266      00
 3267 0067 01        		.uleb128 0x1
 3268 0068 00        		.uleb128 0x0
 3269 0069 00        		.uleb128 0x0
 3270 006a 6B65 7973 		.string	"keysta.h"
 3270      7461 2E68 
 3270      00
 3271 0073 00        		.uleb128 0x0
 3272 0074 00        		.uleb128 0x0
 3273 0075 00        		.uleb128 0x0
 3274 0076 6B65 796D 		.string	"keymap.h"
 3274      6170 2E68 
 3274      00
 3275 007f 02        		.uleb128 0x2
GAS LISTING C:\Users\21030\AppData\Local\Temp/ccCMDFwY.s 			page 59


 3276 0080 00        		.uleb128 0x0
 3277 0081 00        		.uleb128 0x0
 3278 0082 6C65 642E 		.string	"led.h"
 3278      6800 
 3279 0088 03        		.uleb128 0x3
 3280 0089 00        		.uleb128 0x0
 3281 008a 00        		.uleb128 0x0
 3282 008b 6D61 7472 		.string	"matrix.h"
 3282      6978 2E68 
 3282      00
 3283 0094 02        		.uleb128 0x2
 3284 0095 00        		.uleb128 0x0
 3285 0096 00        		.uleb128 0x0
 3286 0097 00        		.byte	0x0
 3287               	.LELTP0:
 3288 0098 00        		.byte	0x0
 3289 0099 05        		.uleb128 0x5
 3290 009a 02        		.byte	0x2
 3291 009b 0000 0000 		.long	.LM1
 3292 009f 39        		.byte	0x39
 3293 00a0 00        		.byte	0x0
 3294 00a1 05        		.uleb128 0x5
 3295 00a2 02        		.byte	0x2
 3296 00a3 0000 0000 		.long	.LM2
 3297 00a7 17        		.byte	0x17
 3298 00a8 00        		.byte	0x0
 3299 00a9 05        		.uleb128 0x5
 3300 00aa 02        		.byte	0x2
 3301 00ab 0000 0000 		.long	.LM3
 3302 00af 15        		.byte	0x15
 3303 00b0 00        		.byte	0x0
 3304 00b1 05        		.uleb128 0x5
 3305 00b2 02        		.byte	0x2
 3306 00b3 0000 0000 		.long	.LM4
 3307 00b7 15        		.byte	0x15
 3308 00b8 00        		.byte	0x0
 3309 00b9 05        		.uleb128 0x5
 3310 00ba 02        		.byte	0x2
 3311 00bb 0000 0000 		.long	.LM5
 3312 00bf 17        		.byte	0x17
 3313 00c0 00        		.byte	0x0
 3314 00c1 05        		.uleb128 0x5
 3315 00c2 02        		.byte	0x2
 3316 00c3 0000 0000 		.long	.LM6
 3317 00c7 18        		.byte	0x18
 3318 00c8 00        		.byte	0x0
 3319 00c9 05        		.uleb128 0x5
 3320 00ca 02        		.byte	0x2
 3321 00cb 0000 0000 		.long	.LM7
 3322 00cf 15        		.byte	0x15
 3323 00d0 00        		.byte	0x0
 3324 00d1 05        		.uleb128 0x5
 3325 00d2 02        		.byte	0x2
 3326 00d3 0000 0000 		.long	.LM8
 3327 00d7 15        		.byte	0x15
 3328 00d8 00        		.byte	0x0
 3329 00d9 05        		.uleb128 0x5
GAS LISTING C:\Users\21030\AppData\Local\Temp/ccCMDFwY.s 			page 60


 3330 00da 02        		.byte	0x2
 3331 00db 0000 0000 		.long	.LM9
 3332 00df 18        		.byte	0x18
 3333 00e0 00        		.byte	0x0
 3334 00e1 05        		.uleb128 0x5
 3335 00e2 02        		.byte	0x2
 3336 00e3 0000 0000 		.long	.LM10
 3337 00e7 15        		.byte	0x15
 3338 00e8 00        		.byte	0x0
 3339 00e9 05        		.uleb128 0x5
 3340 00ea 02        		.byte	0x2
 3341 00eb 0000 0000 		.long	.LM11
 3342 00ef 16        		.byte	0x16
 3343 00f0 00        		.byte	0x0
 3344 00f1 05        		.uleb128 0x5
 3345 00f2 02        		.byte	0x2
 3346 00f3 0000 0000 		.long	.LM12
 3347 00f7 15        		.byte	0x15
 3348 00f8 00        		.byte	0x0
 3349 00f9 05        		.uleb128 0x5
 3350 00fa 02        		.byte	0x2
 3351 00fb 0000 0000 		.long	.LM13
 3352 00ff 15        		.byte	0x15
 3353 0100 00        		.byte	0x0
 3354 0101 05        		.uleb128 0x5
 3355 0102 02        		.byte	0x2
 3356 0103 0000 0000 		.long	.LM14
 3357 0107 17        		.byte	0x17
 3358 0108 00        		.byte	0x0
 3359 0109 05        		.uleb128 0x5
 3360 010a 02        		.byte	0x2
 3361 010b 0000 0000 		.long	.LM15
 3362 010f 17        		.byte	0x17
 3363 0110 00        		.byte	0x0
 3364 0111 05        		.uleb128 0x5
 3365 0112 02        		.byte	0x2
 3366 0113 0000 0000 		.long	.LM16
 3367 0117 15        		.byte	0x15
 3368 0118 00        		.byte	0x0
 3369 0119 05        		.uleb128 0x5
 3370 011a 02        		.byte	0x2
 3371 011b 0000 0000 		.long	.LM17
 3372 011f 17        		.byte	0x17
 3373 0120 00        		.byte	0x0
 3374 0121 05        		.uleb128 0x5
 3375 0122 02        		.byte	0x2
 3376 0123 0000 0000 		.long	.LM18
 3377 0127 16        		.byte	0x16
 3378 0128 00        		.byte	0x0
 3379 0129 05        		.uleb128 0x5
 3380 012a 02        		.byte	0x2
 3381 012b 0000 0000 		.long	.LM19
 3382 012f 15        		.byte	0x15
 3383 0130 00        		.byte	0x0
 3384 0131 05        		.uleb128 0x5
 3385 0132 02        		.byte	0x2
 3386 0133 0000 0000 		.long	.LM20
GAS LISTING C:\Users\21030\AppData\Local\Temp/ccCMDFwY.s 			page 61


 3387 0137 16        		.byte	0x16
 3388 0138 00        		.byte	0x0
 3389 0139 05        		.uleb128 0x5
 3390 013a 02        		.byte	0x2
 3391 013b 0000 0000 		.long	.LM21
 3392 013f 01        		.byte	0x1
 3393 0140 00        		.byte	0x0
 3394 0141 05        		.uleb128 0x5
 3395 0142 02        		.byte	0x2
 3396 0143 0000 0000 		.long	.LM22
 3397 0147 19        		.byte	0x19
 3398 0148 00        		.byte	0x0
 3399 0149 05        		.uleb128 0x5
 3400 014a 02        		.byte	0x2
 3401 014b 0000 0000 		.long	.LM23
 3402 014f 16        		.byte	0x16
 3403 0150 00        		.byte	0x0
 3404 0151 05        		.uleb128 0x5
 3405 0152 02        		.byte	0x2
 3406 0153 0000 0000 		.long	.LM24
 3407 0157 16        		.byte	0x16
 3408 0158 00        		.byte	0x0
 3409 0159 05        		.uleb128 0x5
 3410 015a 02        		.byte	0x2
 3411 015b 0000 0000 		.long	.LM25
 3412 015f 15        		.byte	0x15
 3413 0160 00        		.byte	0x0
 3414 0161 05        		.uleb128 0x5
 3415 0162 02        		.byte	0x2
 3416 0163 0000 0000 		.long	.LM26
 3417 0167 15        		.byte	0x15
 3418 0168 00        		.byte	0x0
 3419 0169 05        		.uleb128 0x5
 3420 016a 02        		.byte	0x2
 3421 016b 0000 0000 		.long	.LM27
 3422 016f 15        		.byte	0x15
 3423 0170 00        		.byte	0x0
 3424 0171 05        		.uleb128 0x5
 3425 0172 02        		.byte	0x2
 3426 0173 0000 0000 		.long	.LM28
 3427 0177 17        		.byte	0x17
 3428 0178 00        		.byte	0x0
 3429 0179 05        		.uleb128 0x5
 3430 017a 02        		.byte	0x2
 3431 017b 0000 0000 		.long	.LM29
 3432 017f 15        		.byte	0x15
 3433 0180 00        		.byte	0x0
 3434 0181 05        		.uleb128 0x5
 3435 0182 02        		.byte	0x2
 3436 0183 0000 0000 		.long	.LM30
 3437 0187 22        		.byte	0x22
 3438 0188 00        		.byte	0x0
 3439 0189 05        		.uleb128 0x5
 3440 018a 02        		.byte	0x2
 3441 018b 0000 0000 		.long	.LM31
 3442 018f 16        		.byte	0x16
 3443 0190 00        		.byte	0x0
GAS LISTING C:\Users\21030\AppData\Local\Temp/ccCMDFwY.s 			page 62


 3444 0191 05        		.uleb128 0x5
 3445 0192 02        		.byte	0x2
 3446 0193 0000 0000 		.long	.LM32
 3447 0197 1B        		.byte	0x1b
 3448 0198 00        		.byte	0x0
 3449 0199 05        		.uleb128 0x5
 3450 019a 02        		.byte	0x2
 3451 019b 0000 0000 		.long	.LM33
 3452 019f 16        		.byte	0x16
 3453 01a0 00        		.byte	0x0
 3454 01a1 05        		.uleb128 0x5
 3455 01a2 02        		.byte	0x2
 3456 01a3 0000 0000 		.long	.LM34
 3457 01a7 15        		.byte	0x15
 3458 01a8 00        		.byte	0x0
 3459 01a9 05        		.uleb128 0x5
 3460 01aa 02        		.byte	0x2
 3461 01ab 0000 0000 		.long	.LM35
 3462 01af 15        		.byte	0x15
 3463 01b0 00        		.byte	0x0
 3464 01b1 05        		.uleb128 0x5
 3465 01b2 02        		.byte	0x2
 3466 01b3 0000 0000 		.long	.LM36
 3467 01b7 16        		.byte	0x16
 3468 01b8 00        		.byte	0x0
 3469 01b9 05        		.uleb128 0x5
 3470 01ba 02        		.byte	0x2
 3471 01bb 0000 0000 		.long	.LM37
 3472 01bf 15        		.byte	0x15
 3473 01c0 00        		.byte	0x0
 3474 01c1 05        		.uleb128 0x5
 3475 01c2 02        		.byte	0x2
 3476 01c3 0000 0000 		.long	.LM38
 3477 01c7 16        		.byte	0x16
 3478 01c8 00        		.byte	0x0
 3479 01c9 05        		.uleb128 0x5
 3480 01ca 02        		.byte	0x2
 3481 01cb 0000 0000 		.long	.LM39
 3482 01cf 15        		.byte	0x15
 3483 01d0 00        		.byte	0x0
 3484 01d1 05        		.uleb128 0x5
 3485 01d2 02        		.byte	0x2
 3486 01d3 0000 0000 		.long	.LM40
 3487 01d7 15        		.byte	0x15
 3488 01d8 00        		.byte	0x0
 3489 01d9 05        		.uleb128 0x5
 3490 01da 02        		.byte	0x2
 3491 01db 0000 0000 		.long	.LM41
 3492 01df 15        		.byte	0x15
 3493 01e0 00        		.byte	0x0
 3494 01e1 05        		.uleb128 0x5
 3495 01e2 02        		.byte	0x2
 3496 01e3 0000 0000 		.long	.LM42
 3497 01e7 15        		.byte	0x15
 3498 01e8 00        		.byte	0x0
 3499 01e9 05        		.uleb128 0x5
 3500 01ea 02        		.byte	0x2
GAS LISTING C:\Users\21030\AppData\Local\Temp/ccCMDFwY.s 			page 63


 3501 01eb 0000 0000 		.long	.LM43
 3502 01ef 19        		.byte	0x19
 3503 01f0 00        		.byte	0x0
 3504 01f1 05        		.uleb128 0x5
 3505 01f2 02        		.byte	0x2
 3506 01f3 0000 0000 		.long	.LM44
 3507 01f7 15        		.byte	0x15
 3508 01f8 00        		.byte	0x0
 3509 01f9 05        		.uleb128 0x5
 3510 01fa 02        		.byte	0x2
 3511 01fb 0000 0000 		.long	.LM45
 3512 01ff 15        		.byte	0x15
 3513 0200 00        		.byte	0x0
 3514 0201 05        		.uleb128 0x5
 3515 0202 02        		.byte	0x2
 3516 0203 0000 0000 		.long	.LM46
 3517 0207 15        		.byte	0x15
 3518 0208 00        		.byte	0x0
 3519 0209 05        		.uleb128 0x5
 3520 020a 02        		.byte	0x2
 3521 020b 0000 0000 		.long	.LM47
 3522 020f 15        		.byte	0x15
 3523 0210 00        		.byte	0x0
 3524 0211 05        		.uleb128 0x5
 3525 0212 02        		.byte	0x2
 3526 0213 0000 0000 		.long	.LM48
 3527 0217 15        		.byte	0x15
 3528 0218 00        		.byte	0x0
 3529 0219 05        		.uleb128 0x5
 3530 021a 02        		.byte	0x2
 3531 021b 0000 0000 		.long	.LM49
 3532 021f 15        		.byte	0x15
 3533 0220 00        		.byte	0x0
 3534 0221 05        		.uleb128 0x5
 3535 0222 02        		.byte	0x2
 3536 0223 0000 0000 		.long	.LM50
 3537 0227 15        		.byte	0x15
 3538 0228 00        		.byte	0x0
 3539 0229 05        		.uleb128 0x5
 3540 022a 02        		.byte	0x2
 3541 022b 0000 0000 		.long	.LM51
 3542 022f 15        		.byte	0x15
 3543 0230 00        		.byte	0x0
 3544 0231 05        		.uleb128 0x5
 3545 0232 02        		.byte	0x2
 3546 0233 0000 0000 		.long	.LM52
 3547 0237 1B        		.byte	0x1b
 3548 0238 00        		.byte	0x0
 3549 0239 05        		.uleb128 0x5
 3550 023a 02        		.byte	0x2
 3551 023b 0000 0000 		.long	.LM53
 3552 023f 15        		.byte	0x15
 3553 0240 00        		.byte	0x0
 3554 0241 05        		.uleb128 0x5
 3555 0242 02        		.byte	0x2
 3556 0243 0000 0000 		.long	.LM54
 3557 0247 15        		.byte	0x15
GAS LISTING C:\Users\21030\AppData\Local\Temp/ccCMDFwY.s 			page 64


 3558 0248 00        		.byte	0x0
 3559 0249 05        		.uleb128 0x5
 3560 024a 02        		.byte	0x2
 3561 024b 0000 0000 		.long	.LM55
 3562 024f 15        		.byte	0x15
 3563 0250 00        		.byte	0x0
 3564 0251 05        		.uleb128 0x5
 3565 0252 02        		.byte	0x2
 3566 0253 0000 0000 		.long	.LM56
 3567 0257 16        		.byte	0x16
 3568 0258 00        		.byte	0x0
 3569 0259 05        		.uleb128 0x5
 3570 025a 02        		.byte	0x2
 3571 025b 0000 0000 		.long	.LM57
 3572 025f 1B        		.byte	0x1b
 3573 0260 00        		.byte	0x0
 3574 0261 05        		.uleb128 0x5
 3575 0262 02        		.byte	0x2
 3576 0263 0000 0000 		.long	.LM58
 3577 0267 15        		.byte	0x15
 3578 0268 00        		.byte	0x0
 3579 0269 05        		.uleb128 0x5
 3580 026a 02        		.byte	0x2
 3581 026b 0000 0000 		.long	.LM59
 3582 026f 16        		.byte	0x16
 3583 0270 00        		.byte	0x0
 3584 0271 05        		.uleb128 0x5
 3585 0272 02        		.byte	0x2
 3586 0273 0000 0000 		.long	.LM60
 3587 0277 15        		.byte	0x15
 3588 0278 00        		.byte	0x0
 3589 0279 05        		.uleb128 0x5
 3590 027a 02        		.byte	0x2
 3591 027b 0000 0000 		.long	.LM61
 3592 027f 16        		.byte	0x16
 3593 0280 00        		.byte	0x0
 3594 0281 05        		.uleb128 0x5
 3595 0282 02        		.byte	0x2
 3596 0283 0000 0000 		.long	.LM62
 3597 0287 15        		.byte	0x15
 3598 0288 00        		.byte	0x0
 3599 0289 05        		.uleb128 0x5
 3600 028a 02        		.byte	0x2
 3601 028b 0000 0000 		.long	.LM63
 3602 028f 15        		.byte	0x15
 3603 0290 00        		.byte	0x0
 3604 0291 05        		.uleb128 0x5
 3605 0292 02        		.byte	0x2
 3606 0293 0000 0000 		.long	.LM64
 3607 0297 15        		.byte	0x15
 3608 0298 00        		.byte	0x0
 3609 0299 05        		.uleb128 0x5
 3610 029a 02        		.byte	0x2
 3611 029b 0000 0000 		.long	.LM65
 3612 029f 15        		.byte	0x15
 3613 02a0 00        		.byte	0x0
 3614 02a1 05        		.uleb128 0x5
GAS LISTING C:\Users\21030\AppData\Local\Temp/ccCMDFwY.s 			page 65


 3615 02a2 02        		.byte	0x2
 3616 02a3 0000 0000 		.long	.LM66
 3617 02a7 15        		.byte	0x15
 3618 02a8 00        		.byte	0x0
 3619 02a9 05        		.uleb128 0x5
 3620 02aa 02        		.byte	0x2
 3621 02ab 0000 0000 		.long	.LM67
 3622 02af 1C        		.byte	0x1c
 3623 02b0 00        		.byte	0x0
 3624 02b1 05        		.uleb128 0x5
 3625 02b2 02        		.byte	0x2
 3626 02b3 0000 0000 		.long	.LM68
 3627 02b7 15        		.byte	0x15
 3628 02b8 00        		.byte	0x0
 3629 02b9 05        		.uleb128 0x5
 3630 02ba 02        		.byte	0x2
 3631 02bb 0000 0000 		.long	.LM69
 3632 02bf 15        		.byte	0x15
 3633 02c0 00        		.byte	0x0
 3634 02c1 05        		.uleb128 0x5
 3635 02c2 02        		.byte	0x2
 3636 02c3 0000 0000 		.long	.LM70
 3637 02c7 15        		.byte	0x15
 3638 02c8 00        		.byte	0x0
 3639 02c9 05        		.uleb128 0x5
 3640 02ca 02        		.byte	0x2
 3641 02cb 0000 0000 		.long	.LM71
 3642 02cf 15        		.byte	0x15
 3643 02d0 00        		.byte	0x0
 3644 02d1 05        		.uleb128 0x5
 3645 02d2 02        		.byte	0x2
 3646 02d3 0000 0000 		.long	.LM72
 3647 02d7 17        		.byte	0x17
 3648 02d8 00        		.byte	0x0
 3649 02d9 05        		.uleb128 0x5
 3650 02da 02        		.byte	0x2
 3651 02db 0000 0000 		.long	.LM73
 3652 02df 03        		.byte	0x3
 3653 02e0 A57F      		.sleb128 -91
 3654 02e2 01        		.byte	0x1
 3655 02e3 00        		.byte	0x0
 3656 02e4 05        		.uleb128 0x5
 3657 02e5 02        		.byte	0x2
 3658 02e6 0000 0000 		.long	.LM74
 3659 02ea 15        		.byte	0x15
 3660 02eb 00        		.byte	0x0
 3661 02ec 05        		.uleb128 0x5
 3662 02ed 02        		.byte	0x2
 3663 02ee 0000 0000 		.long	.LM75
 3664 02f2 15        		.byte	0x15
 3665 02f3 00        		.byte	0x0
 3666 02f4 05        		.uleb128 0x5
 3667 02f5 02        		.byte	0x2
 3668 02f6 0000 0000 		.long	.LM76
 3669 02fa 15        		.byte	0x15
 3670 02fb 00        		.byte	0x0
 3671 02fc 05        		.uleb128 0x5
GAS LISTING C:\Users\21030\AppData\Local\Temp/ccCMDFwY.s 			page 66


 3672 02fd 02        		.byte	0x2
 3673 02fe 0000 0000 		.long	.LM77
 3674 0302 15        		.byte	0x15
 3675 0303 00        		.byte	0x0
 3676 0304 05        		.uleb128 0x5
 3677 0305 02        		.byte	0x2
 3678 0306 0000 0000 		.long	.LM78
 3679 030a 15        		.byte	0x15
 3680 030b 00        		.byte	0x0
 3681 030c 05        		.uleb128 0x5
 3682 030d 02        		.byte	0x2
 3683 030e 0000 0000 		.long	.LM79
 3684 0312 E0        		.byte	0xe0
 3685 0313 00        		.byte	0x0
 3686 0314 05        		.uleb128 0x5
 3687 0315 02        		.byte	0x2
 3688 0316 0000 0000 		.long	.LM80
 3689 031a 16        		.byte	0x16
 3690 031b 00        		.byte	0x0
 3691 031c 05        		.uleb128 0x5
 3692 031d 02        		.byte	0x2
 3693 031e 0000 0000 		.long	.LM81
 3694 0322 03        		.byte	0x3
 3695 0323 9B7E      		.sleb128 -229
 3696 0325 01        		.byte	0x1
 3697 0326 00        		.byte	0x0
 3698 0327 05        		.uleb128 0x5
 3699 0328 02        		.byte	0x2
 3700 0329 0000 0000 		.long	.LM82
 3701 032d FD        		.byte	0xfd
 3702 032e 00        		.byte	0x0
 3703 032f 05        		.uleb128 0x5
 3704 0330 02        		.byte	0x2
 3705 0331 0000 0000 		.long	.LM83
 3706 0335 16        		.byte	0x16
 3707 0336 00        		.byte	0x0
 3708 0337 05        		.uleb128 0x5
 3709 0338 02        		.byte	0x2
 3710 0339 0000 0000 		.long	.LM84
 3711 033d 15        		.byte	0x15
 3712 033e 00        		.byte	0x0
 3713 033f 05        		.uleb128 0x5
 3714 0340 02        		.byte	0x2
 3715 0341 0000 0000 		.long	.LM85
 3716 0345 17        		.byte	0x17
 3717 0346 00        		.byte	0x0
 3718 0347 05        		.uleb128 0x5
 3719 0348 02        		.byte	0x2
 3720 0349 0000 0000 		.long	.LM86
 3721 034d 15        		.byte	0x15
 3722 034e 00        		.byte	0x0
 3723 034f 05        		.uleb128 0x5
 3724 0350 02        		.byte	0x2
 3725 0351 0000 0000 		.long	.LM87
 3726 0355 16        		.byte	0x16
 3727 0356 00        		.byte	0x0
 3728 0357 05        		.uleb128 0x5
GAS LISTING C:\Users\21030\AppData\Local\Temp/ccCMDFwY.s 			page 67


 3729 0358 02        		.byte	0x2
 3730 0359 0000 0000 		.long	.LM88
 3731 035d 16        		.byte	0x16
 3732 035e 00        		.byte	0x0
 3733 035f 05        		.uleb128 0x5
 3734 0360 02        		.byte	0x2
 3735 0361 0000 0000 		.long	.LM89
 3736 0365 15        		.byte	0x15
 3737 0366 00        		.byte	0x0
 3738 0367 05        		.uleb128 0x5
 3739 0368 02        		.byte	0x2
 3740 0369 0000 0000 		.long	.LM90
 3741 036d 17        		.byte	0x17
 3742 036e 00        		.byte	0x0
 3743 036f 05        		.uleb128 0x5
 3744 0370 02        		.byte	0x2
 3745 0371 0000 0000 		.long	.LM91
 3746 0375 15        		.byte	0x15
 3747 0376 00        		.byte	0x0
 3748 0377 05        		.uleb128 0x5
 3749 0378 02        		.byte	0x2
 3750 0379 0000 0000 		.long	.LM92
 3751 037d 15        		.byte	0x15
 3752 037e 00        		.byte	0x0
 3753 037f 05        		.uleb128 0x5
 3754 0380 02        		.byte	0x2
 3755 0381 0000 0000 		.long	.LM93
 3756 0385 15        		.byte	0x15
 3757 0386 00        		.byte	0x0
 3758 0387 05        		.uleb128 0x5
 3759 0388 02        		.byte	0x2
 3760 0389 0000 0000 		.long	.LM94
 3761 038d 1C        		.byte	0x1c
 3762 038e 00        		.byte	0x0
 3763 038f 05        		.uleb128 0x5
 3764 0390 02        		.byte	0x2
 3765 0391 0000 0000 		.long	.LM95
 3766 0395 15        		.byte	0x15
 3767 0396 00        		.byte	0x0
 3768 0397 05        		.uleb128 0x5
 3769 0398 02        		.byte	0x2
 3770 0399 0000 0000 		.long	.LM96
 3771 039d 17        		.byte	0x17
 3772 039e 00        		.byte	0x0
 3773 039f 05        		.uleb128 0x5
 3774 03a0 02        		.byte	0x2
 3775 03a1 0000 0000 		.long	.LM97
 3776 03a5 03        		.byte	0x3
 3777 03a6 F97D      		.sleb128 -263
 3778 03a8 01        		.byte	0x1
 3779 03a9 00        		.byte	0x0
 3780 03aa 05        		.uleb128 0x5
 3781 03ab 02        		.byte	0x2
 3782 03ac 0000 0000 		.long	.LM98
 3783 03b0 03        		.byte	0x3
 3784 03b1 8E02      		.sleb128 270
 3785 03b3 01        		.byte	0x1
GAS LISTING C:\Users\21030\AppData\Local\Temp/ccCMDFwY.s 			page 68


 3786 03b4 00        		.byte	0x0
 3787 03b5 05        		.uleb128 0x5
 3788 03b6 02        		.byte	0x2
 3789 03b7 0000 0000 		.long	.LM99
 3790 03bb 0E        		.byte	0xe
 3791 03bc 00        		.byte	0x0
 3792 03bd 05        		.uleb128 0x5
 3793 03be 02        		.byte	0x2
 3794 03bf 0000 0000 		.long	.LM100
 3795 03c3 15        		.byte	0x15
 3796 03c4 00        		.byte	0x0
 3797 03c5 05        		.uleb128 0x5
 3798 03c6 02        		.byte	0x2
 3799 03c7 0000 0000 		.long	.LM101
 3800 03cb 19        		.byte	0x19
 3801 03cc 00        		.byte	0x0
 3802 03cd 05        		.uleb128 0x5
 3803 03ce 02        		.byte	0x2
 3804 03cf 0000 0000 		.long	.LM102
 3805 03d3 15        		.byte	0x15
 3806 03d4 00        		.byte	0x0
 3807 03d5 05        		.uleb128 0x5
 3808 03d6 02        		.byte	0x2
 3809 03d7 0000 0000 		.long	.LM103
 3810 03db 15        		.byte	0x15
 3811 03dc 00        		.byte	0x0
 3812 03dd 05        		.uleb128 0x5
 3813 03de 02        		.byte	0x2
 3814 03df 0000 0000 		.long	.LM104
 3815 03e3 18        		.byte	0x18
 3816 03e4 00        		.byte	0x0
 3817 03e5 05        		.uleb128 0x5
 3818 03e6 02        		.byte	0x2
 3819 03e7 0000 0000 		.long	.LM105
 3820 03eb 18        		.byte	0x18
 3821 03ec 00        		.byte	0x0
 3822 03ed 05        		.uleb128 0x5
 3823 03ee 02        		.byte	0x2
 3824 03ef 0000 0000 		.long	.LM106
 3825 03f3 17        		.byte	0x17
 3826 03f4 00        		.byte	0x0
 3827 03f5 05        		.uleb128 0x5
 3828 03f6 02        		.byte	0x2
 3829 03f7 0000 0000 		.long	.LM107
 3830 03fb 17        		.byte	0x17
 3831 03fc 00        		.byte	0x0
 3832 03fd 05        		.uleb128 0x5
 3833 03fe 02        		.byte	0x2
 3834 03ff 0000 0000 		.long	.LM108
 3835 0403 19        		.byte	0x19
 3836 0404 00        		.byte	0x0
 3837 0405 05        		.uleb128 0x5
 3838 0406 02        		.byte	0x2
 3839 0407 0000 0000 		.long	.LM109
 3840 040b 15        		.byte	0x15
 3841 040c 00        		.byte	0x0
 3842 040d 05        		.uleb128 0x5
GAS LISTING C:\Users\21030\AppData\Local\Temp/ccCMDFwY.s 			page 69


 3843 040e 02        		.byte	0x2
 3844 040f 0000 0000 		.long	.LM110
 3845 0413 15        		.byte	0x15
 3846 0414 00        		.byte	0x0
 3847 0415 05        		.uleb128 0x5
 3848 0416 02        		.byte	0x2
 3849 0417 0000 0000 		.long	.LM111
 3850 041b 15        		.byte	0x15
 3851 041c 00        		.byte	0x0
 3852 041d 05        		.uleb128 0x5
 3853 041e 02        		.byte	0x2
 3854 041f 0000 0000 		.long	.LM112
 3855 0423 18        		.byte	0x18
 3856 0424 00        		.byte	0x0
 3857 0425 05        		.uleb128 0x5
 3858 0426 02        		.byte	0x2
 3859 0427 0000 0000 		.long	.LM113
 3860 042b 03        		.byte	0x3
 3861 042c C77E      		.sleb128 -185
 3862 042e 01        		.byte	0x1
 3863 042f 00        		.byte	0x0
 3864 0430 05        		.uleb128 0x5
 3865 0431 02        		.byte	0x2
 3866 0432 0000 0000 		.long	.LM114
 3867 0436 1A        		.byte	0x1a
 3868 0437 00        		.byte	0x0
 3869 0438 05        		.uleb128 0x5
 3870 0439 02        		.byte	0x2
 3871 043a 0000 0000 		.long	.LM115
 3872 043e 16        		.byte	0x16
 3873 043f 00        		.byte	0x0
 3874 0440 05        		.uleb128 0x5
 3875 0441 02        		.byte	0x2
 3876 0442 0000 0000 		.long	.LM116
 3877 0446 17        		.byte	0x17
 3878 0447 00        		.byte	0x0
 3879 0448 05        		.uleb128 0x5
 3880 0449 02        		.byte	0x2
 3881 044a 0000 0000 		.long	.LM117
 3882 044e 17        		.byte	0x17
 3883 044f 00        		.byte	0x0
 3884 0450 05        		.uleb128 0x5
 3885 0451 02        		.byte	0x2
 3886 0452 0000 0000 		.long	.LM118
 3887 0456 19        		.byte	0x19
 3888 0457 00        		.byte	0x0
 3889 0458 05        		.uleb128 0x5
 3890 0459 02        		.byte	0x2
 3891 045a 0000 0000 		.long	.LM119
 3892 045e 15        		.byte	0x15
 3893 045f 00        		.byte	0x0
 3894 0460 05        		.uleb128 0x5
 3895 0461 02        		.byte	0x2
 3896 0462 0000 0000 		.long	.LM120
 3897 0466 17        		.byte	0x17
 3898 0467 00        		.byte	0x0
 3899 0468 05        		.uleb128 0x5
GAS LISTING C:\Users\21030\AppData\Local\Temp/ccCMDFwY.s 			page 70


 3900 0469 02        		.byte	0x2
 3901 046a 0000 0000 		.long	.LM121
 3902 046e 17        		.byte	0x17
 3903 046f 00        		.byte	0x0
 3904 0470 05        		.uleb128 0x5
 3905 0471 02        		.byte	0x2
 3906 0472 0000 0000 		.long	.LM122
 3907 0476 18        		.byte	0x18
 3908 0477 00        		.byte	0x0
 3909 0478 05        		.uleb128 0x5
 3910 0479 02        		.byte	0x2
 3911 047a 0000 0000 		.long	.LM123
 3912 047e 13        		.byte	0x13
 3913 047f 00        		.byte	0x0
 3914 0480 05        		.uleb128 0x5
 3915 0481 02        		.byte	0x2
 3916 0482 0000 0000 		.long	.LM124
 3917 0486 18        		.byte	0x18
 3918 0487 00        		.byte	0x0
 3919 0488 05        		.uleb128 0x5
 3920 0489 02        		.byte	0x2
 3921 048a 0000 0000 		.long	.LM125
 3922 048e 1B        		.byte	0x1b
 3923 048f 00        		.byte	0x0
 3924 0490 05        		.uleb128 0x5
 3925 0491 02        		.byte	0x2
 3926 0492 0000 0000 		.long	.LM126
 3927 0496 15        		.byte	0x15
 3928 0497 00        		.byte	0x0
 3929 0498 05        		.uleb128 0x5
 3930 0499 02        		.byte	0x2
 3931 049a 0000 0000 		.long	.LM127
 3932 049e 16        		.byte	0x16
 3933 049f 00        		.byte	0x0
 3934 04a0 05        		.uleb128 0x5
 3935 04a1 02        		.byte	0x2
 3936 04a2 0000 0000 		.long	.LM128
 3937 04a6 18        		.byte	0x18
 3938 04a7 00        		.byte	0x0
 3939 04a8 05        		.uleb128 0x5
 3940 04a9 02        		.byte	0x2
 3941 04aa 0000 0000 		.long	.LM129
 3942 04ae 15        		.byte	0x15
 3943 04af 00        		.byte	0x0
 3944 04b0 05        		.uleb128 0x5
 3945 04b1 02        		.byte	0x2
 3946 04b2 0000 0000 		.long	.LM130
 3947 04b6 16        		.byte	0x16
 3948 04b7 00        		.byte	0x0
 3949 04b8 05        		.uleb128 0x5
 3950 04b9 02        		.byte	0x2
 3951 04ba 0000 0000 		.long	.LM131
 3952 04be 18        		.byte	0x18
 3953 04bf 00        		.byte	0x0
 3954 04c0 05        		.uleb128 0x5
 3955 04c1 02        		.byte	0x2
 3956 04c2 0000 0000 		.long	.LM132
GAS LISTING C:\Users\21030\AppData\Local\Temp/ccCMDFwY.s 			page 71


 3957 04c6 16        		.byte	0x16
 3958 04c7 00        		.byte	0x0
 3959 04c8 05        		.uleb128 0x5
 3960 04c9 02        		.byte	0x2
 3961 04ca 0000 0000 		.long	.LM133
 3962 04ce 18        		.byte	0x18
 3963 04cf 00        		.byte	0x0
 3964 04d0 05        		.uleb128 0x5
 3965 04d1 02        		.byte	0x2
 3966 04d2 0000 0000 		.long	.LM134
 3967 04d6 17        		.byte	0x17
 3968 04d7 00        		.byte	0x0
 3969 04d8 05        		.uleb128 0x5
 3970 04d9 02        		.byte	0x2
 3971 04da 0000 0000 		.long	.LM135
 3972 04de 19        		.byte	0x19
 3973 04df 00        		.byte	0x0
 3974 04e0 05        		.uleb128 0x5
 3975 04e1 02        		.byte	0x2
 3976 04e2 0000 0000 		.long	.LM136
 3977 04e6 16        		.byte	0x16
 3978 04e7 00        		.byte	0x0
 3979 04e8 05        		.uleb128 0x5
 3980 04e9 02        		.byte	0x2
 3981 04ea 0000 0000 		.long	.LM137
 3982 04ee 17        		.byte	0x17
 3983 04ef 00        		.byte	0x0
 3984 04f0 05        		.uleb128 0x5
 3985 04f1 02        		.byte	0x2
 3986 04f2 0000 0000 		.long	.LM138
 3987 04f6 17        		.byte	0x17
 3988 04f7 00        		.byte	0x0
 3989 04f8 05        		.uleb128 0x5
 3990 04f9 02        		.byte	0x2
 3991 04fa 0000 0000 		.long	.LM139
 3992 04fe 17        		.byte	0x17
 3993 04ff 00        		.byte	0x0
 3994 0500 05        		.uleb128 0x5
 3995 0501 02        		.byte	0x2
 3996 0502 0000 0000 		.long	.LM140
 3997 0506 17        		.byte	0x17
 3998 0507 00        		.byte	0x0
 3999 0508 05        		.uleb128 0x5
 4000 0509 02        		.byte	0x2
 4001 050a 0000 0000 		.long	.LM141
 4002 050e 17        		.byte	0x17
 4003 050f 00        		.byte	0x0
 4004 0510 05        		.uleb128 0x5
 4005 0511 02        		.byte	0x2
 4006 0512 0000 0000 		.long	.LM142
 4007 0516 17        		.byte	0x17
 4008 0517 00        		.byte	0x0
 4009 0518 05        		.uleb128 0x5
 4010 0519 02        		.byte	0x2
 4011 051a 0000 0000 		.long	.LM143
 4012 051e 1F        		.byte	0x1f
 4013 051f 00        		.byte	0x0
GAS LISTING C:\Users\21030\AppData\Local\Temp/ccCMDFwY.s 			page 72


 4014 0520 05        		.uleb128 0x5
 4015 0521 02        		.byte	0x2
 4016 0522 0000 0000 		.long	.LM144
 4017 0526 15        		.byte	0x15
 4018 0527 00        		.byte	0x0
 4019 0528 05        		.uleb128 0x5
 4020 0529 02        		.byte	0x2
 4021 052a 0000 0000 		.long	.LM145
 4022 052e 15        		.byte	0x15
 4023 052f 00        		.byte	0x0
 4024 0530 05        		.uleb128 0x5
 4025 0531 02        		.byte	0x2
 4026 0532 0000 0000 		.long	.LM146
 4027 0536 16        		.byte	0x16
 4028 0537 00        		.byte	0x0
 4029 0538 05        		.uleb128 0x5
 4030 0539 02        		.byte	0x2
 4031 053a 0000 0000 		.long	.LM147
 4032 053e 1C        		.byte	0x1c
 4033 053f 00        		.byte	0x0
 4034 0540 05        		.uleb128 0x5
 4035 0541 02        		.byte	0x2
 4036 0542 0000 0000 		.long	.LM148
 4037 0546 63        		.byte	0x63
 4038 0547 00        		.byte	0x0
 4039 0548 05        		.uleb128 0x5
 4040 0549 02        		.byte	0x2
 4041 054a 0000 0000 		.long	.LM149
 4042 054e 16        		.byte	0x16
 4043 054f 00        		.byte	0x0
 4044 0550 05        		.uleb128 0x5
 4045 0551 02        		.byte	0x2
 4046 0552 0000 0000 		.long	.LM150
 4047 0556 15        		.byte	0x15
 4048 0557 00        		.byte	0x0
 4049 0558 05        		.uleb128 0x5
 4050 0559 02        		.byte	0x2
 4051 055a 0000 0000 		.long	.LM151
 4052 055e 19        		.byte	0x19
 4053 055f 00        		.byte	0x0
 4054 0560 05        		.uleb128 0x5
 4055 0561 02        		.byte	0x2
 4056 0562 0000 0000 		.long	.LM152
 4057 0566 16        		.byte	0x16
 4058 0567 00        		.byte	0x0
 4059 0568 05        		.uleb128 0x5
 4060 0569 02        		.byte	0x2
 4061 056a 0000 0000 		.long	.LM153
 4062 056e 15        		.byte	0x15
 4063 056f 00        		.byte	0x0
 4064 0570 05        		.uleb128 0x5
 4065 0571 02        		.byte	0x2
 4066 0572 0000 0000 		.long	.LM154
 4067 0576 18        		.byte	0x18
 4068 0577 00        		.byte	0x0
 4069 0578 05        		.uleb128 0x5
 4070 0579 02        		.byte	0x2
GAS LISTING C:\Users\21030\AppData\Local\Temp/ccCMDFwY.s 			page 73


 4071 057a 0000 0000 		.long	.LM155
 4072 057e 16        		.byte	0x16
 4073 057f 00        		.byte	0x0
 4074 0580 05        		.uleb128 0x5
 4075 0581 02        		.byte	0x2
 4076 0582 0000 0000 		.long	.LM156
 4077 0586 03        		.byte	0x3
 4078 0587 C07D      		.sleb128 -320
 4079 0589 01        		.byte	0x1
 4080 058a 00        		.byte	0x0
 4081 058b 05        		.uleb128 0x5
 4082 058c 02        		.byte	0x2
 4083 058d 0000 0000 		.long	.LM157
 4084 0591 03        		.byte	0x3
 4085 0592 C202      		.sleb128 322
 4086 0594 01        		.byte	0x1
 4087 0595 00        		.byte	0x0
 4088 0596 05        		.uleb128 0x5
 4089 0597 02        		.byte	0x2
 4090 0598 0000 0000 		.long	.LM158
 4091 059c 16        		.byte	0x16
 4092 059d 00        		.byte	0x0
 4093 059e 05        		.uleb128 0x5
 4094 059f 02        		.byte	0x2
 4095 05a0 0000 0000 		.long	.LM159
 4096 05a4 15        		.byte	0x15
 4097 05a5 00        		.byte	0x0
 4098 05a6 05        		.uleb128 0x5
 4099 05a7 02        		.byte	0x2
 4100 05a8 0000 0000 		.long	.Letext0
 4101 05ac 00        		.byte	0x0
 4102 05ad 01        		.uleb128 0x1
 4103 05ae 01        		.byte	0x1
 4104               	.LELT0:
 4105 05af 1600 0000 		.section	.debug_str,"MS",@progbits,1
 4105      0200 1000 
 4105      0000 0101 
 4105      FB0E 0A00 
 4105      0101 0101 
 4106               	.LASF240:
 4107 0000 5F5F 6164 		.string	"__addr16"
 4107      6472 3136 
 4107      00
 4108               	.LASF149:
 4109 0009 4B5F 5241 		.string	"K_RALT"
 4109      4C54 00
 4110               	.LASF241:
 4111 0010 7265 636F 		.string	"record"
 4111      7264 00
 4112               	.LASF173:
 4113 0017 4B5F 5757 		.string	"K_WWW_STOP"
 4113      575F 5354 
 4113      4F50 00
 4114               	.LASF176:
 4115 0022 4B5F 454A 		.string	"K_EJECT"
 4115      4543 5400 
 4116               	.LASF251:
GAS LISTING C:\Users\21030\AppData\Local\Temp/ccCMDFwY.s 			page 74


 4117 002a 7073 326D 		.string	"ps2main"
 4117      6169 6E00 
 4118               	.LASF231:
 4119 0032 4B5F 4D35 		.string	"K_M51"
 4119      3100 
 4120               	.LASF261:
 4121 0038 5459 5045 		.string	"TYPEMATIC_REPEAT"
 4121      4D41 5449 
 4121      435F 5245 
 4121      5045 4154 
 4121      00
 4122               	.LASF90:
 4123 0049 4B5F 4C56 		.string	"K_LVESEL"
 4123      4553 454C 
 4123      00
 4124               	.LASF4:
 4125 0052 756E 7369 		.string	"unsigned int"
 4125      676E 6564 
 4125      2069 6E74 
 4125      00
 4126               	.LASF133:
 4127 005f 4B5F 434C 		.string	"K_CLEAR"
 4127      4541 5200 
 4128               	.LASF33:
 4129 0067 4B5F 534C 		.string	"K_SLASH"
 4129      4153 4800 
 4130               	.LASF256:
 4131 006f 6C61 7374 		.string	"lastMAKE"
 4131      4D41 4B45 
 4131      00
 4132               	.LASF245:
 4133 0078 6B65 7976 		.string	"keyval"
 4133      616C 00
 4134               	.LASF64:
 4135 007f 4B5F 4B50 		.string	"K_KP_PLUS"
 4135      5F50 4C55 
 4135      5300 
 4136               	.LASF91:
 4137 0089 4B5F 4D52 		.string	"K_MRESET"
 4137      4553 4554 
 4137      00
 4138               	.LASF132:
 4139 0092 4B5F 4341 		.string	"K_CANCEL"
 4139      4E43 454C 
 4139      00
 4140               	.LASF180:
 4141 009b 4B5F 4D49 		.string	"K_MINIMIZE"
 4141      4E49 4D49 
 4141      5A45 00
 4142               	.LASF139:
 4143 00a6 4B5F 434C 		.string	"K_CLR_AGIN"
 4143      525F 4147 
 4143      494E 00
 4144               	.LASF75:
 4145 00b1 4B5F 4B50 		.string	"K_KP_0"
 4145      5F30 00
 4146               	.LASF66:
GAS LISTING C:\Users\21030\AppData\Local\Temp/ccCMDFwY.s 			page 75


 4147 00b8 4B5F 4B50 		.string	"K_KP_1"
 4147      5F31 00
 4148               	.LASF67:
 4149 00bf 4B5F 4B50 		.string	"K_KP_2"
 4149      5F32 00
 4150               	.LASF68:
 4151 00c6 4B5F 4B50 		.string	"K_KP_3"
 4151      5F33 00
 4152               	.LASF69:
 4153 00cd 4B5F 4B50 		.string	"K_KP_4"
 4153      5F34 00
 4154               	.LASF70:
 4155 00d4 4B5F 4B50 		.string	"K_KP_5"
 4155      5F35 00
 4156               	.LASF71:
 4157 00db 4B5F 4B50 		.string	"K_KP_6"
 4157      5F36 00
 4158               	.LASF72:
 4159 00e2 4B5F 4B50 		.string	"K_KP_7"
 4159      5F37 00
 4160               	.LASF73:
 4161 00e9 4B5F 4B50 		.string	"K_KP_8"
 4161      5F38 00
 4162               	.LASF74:
 4163 00f0 4B5F 4B50 		.string	"K_KP_9"
 4163      5F39 00
 4164               	.LASF160:
 4165 00f7 4B5F 564F 		.string	"K_VOL_DOWN"
 4165      4C5F 444F 
 4165      574E 00
 4166               	.LASF174:
 4167 0102 4B5F 5757 		.string	"K_WWW_REFRESH"
 4167      575F 5245 
 4167      4652 4553 
 4167      4800 
 4168               	.LASF96:
 4169 0110 4B5F 5345 		.string	"K_SEL"
 4169      4C00 
 4170               	.LASF106:
 4171 0116 4B5F 564F 		.string	"K_VOLDN"
 4171      4C44 4E00 
 4172               	.LASF35:
 4173 011e 4B5F 4631 		.string	"K_F1"
 4173      00
 4174               	.LASF36:
 4175 0123 4B5F 4632 		.string	"K_F2"
 4175      00
 4176               	.LASF37:
 4177 0128 4B5F 4633 		.string	"K_F3"
 4177      00
 4178               	.LASF38:
 4179 012d 4B5F 4634 		.string	"K_F4"
 4179      00
 4180               	.LASF39:
 4181 0132 4B5F 4635 		.string	"K_F5"
 4181      00
 4182               	.LASF40:
GAS LISTING C:\Users\21030\AppData\Local\Temp/ccCMDFwY.s 			page 76


 4183 0137 4B5F 4636 		.string	"K_F6"
 4183      00
 4184               	.LASF41:
 4185 013c 4B5F 4637 		.string	"K_F7"
 4185      00
 4186               	.LASF42:
 4187 0141 4B5F 4638 		.string	"K_F8"
 4187      00
 4188               	.LASF43:
 4189 0146 4B5F 4639 		.string	"K_F9"
 4189      00
 4190               	.LASF101:
 4191 014b 4B5F 434F 		.string	"K_COPY"
 4191      5059 00
 4192               	.LASF59:
 4193 0152 4B5F 5550 		.string	"K_UP"
 4193      00
 4194               	.LASF54:
 4195 0157 4B5F 454E 		.string	"K_END"
 4195      4400 
 4196               	.LASF24:
 4197 015d 4B5F 4C42 		.string	"K_LBR"
 4197      5200 
 4198               	.LASF93:
 4199 0163 4B5F 464E 		.string	"K_FN"
 4199      00
 4200               	.LASF109:
 4201 0168 4B5F 4B4C 		.string	"K_KL_SCL"
 4201      5F53 434C 
 4201      00
 4202               	.LASF268:
 4203 0171 6D5F 7374 		.string	"m_state"
 4203      6174 6500 
 4204               	.LASF6:
 4205 0179 7569 6E74 		.string	"uint32_t"
 4205      3332 5F74 
 4205      00
 4206               	.LASF19:
 4207 0182 4B5F 424B 		.string	"K_BKSP"
 4207      5350 00
 4208               	.LASF53:
 4209 0189 4B5F 4445 		.string	"K_DEL"
 4209      4C00 
 4210               	.LASF249:
 4211 018f 7465 6D70 		.string	"temp_a"
 4211      5F61 00
 4212               	.LASF250:
 4213 0196 7465 6D70 		.string	"temp_b"
 4213      5F62 00
 4214               	.LASF177:
 4215 019d 4B5F 5343 		.string	"K_SCREENSAVE"
 4215      5245 454E 
 4215      5341 5645 
 4215      00
 4216               	.LASF168:
 4217 01aa 4B5F 4D59 		.string	"K_MYCOM"
 4217      434F 4D00 
GAS LISTING C:\Users\21030\AppData\Local\Temp/ccCMDFwY.s 			page 77


 4218               	.LASF267:
 4219 01b2 7478 5363 		.string	"txScanCode"
 4219      616E 436F 
 4219      6465 00
 4220               	.LASF270:
 4221 01bd 6C61 7374 		.string	"lastState"
 4221      5374 6174 
 4221      6500 
 4222               	.LASF233:
 4223 01c7 7075 7368 		.string	"push"
 4223      00
 4224               	.LASF76:
 4225 01cc 4B5F 4B50 		.string	"K_KP_DOT"
 4225      5F44 4F54 
 4225      00
 4226               	.LASF9:
 4227 01d5 6C6F 6E67 		.string	"long long unsigned int"
 4227      206C 6F6E 
 4227      6720 756E 
 4227      7369 676E 
 4227      6564 2069 
 4228               	.LASF272:
 4229 01ec 7073 326D 		.string	"ps2main.c"
 4229      6169 6E2E 
 4229      6300 
 4230               	.LASF130:
 4231 01f6 4B5F 5749 		.string	"K_WINKEYLOCK"
 4231      4E4B 4559 
 4231      4C4F 434B 
 4231      00
 4232               	.LASF151:
 4233 0203 4B5F 4D6F 		.string	"K_Modifiers_end"
 4233      6469 6669 
 4233      6572 735F 
 4233      656E 6400 
 4234               	.LASF20:
 4235 0213 4B5F 5441 		.string	"K_TAB"
 4235      4200 
 4236               	.LASF105:
 4237 0219 4B5F 564F 		.string	"K_VOLUP"
 4237      4C55 5000 
 4238               	.LASF170:
 4239 0221 4B5F 5757 		.string	"K_WWW_HOME"
 4239      575F 484F 
 4239      4D45 00
 4240               	.LASF234:
 4241 022c 636C 6561 		.string	"clear"
 4241      7200 
 4242               	.LASF129:
 4243 0232 4B5F 4B45 		.string	"K_KEYLOCK"
 4243      594C 4F43 
 4243      4B00 
 4244               	.LASF171:
 4245 023c 4B5F 5757 		.string	"K_WWW_BACK"
 4245      575F 4241 
 4245      434B 00
 4246               	.LASF14:
GAS LISTING C:\Users\21030\AppData\Local\Temp/ccCMDFwY.s 			page 78


 4247 0247 4572 726F 		.string	"ErrorRollOver"
 4247      7252 6F6C 
 4247      6C4F 7665 
 4247      7200 
 4248               	.LASF154:
 4249 0255 4B5F 5354 		.string	"K_STOP"
 4249      4F50 00
 4250               	.LASF62:
 4251 025c 4B5F 4B50 		.string	"K_KP_AST"
 4251      5F41 5354 
 4251      00
 4252               	.LASF107:
 4253 0265 4B5F 4B4C 		.string	"K_KL_CAP"
 4253      5F43 4150 
 4253      00
 4254               	.LASF121:
 4255 026e 4B5F 4841 		.string	"K_HANJA"
 4255      4E4A 4100 
 4256               	.LASF111:
 4257 0276 4B5F 4551 		.string	"K_EQUAL_SIGN"
 4257      5541 4C5F 
 4257      5349 474E 
 4257      00
 4258               	.LASF167:
 4259 0283 4B5F 4341 		.string	"K_CALC"
 4259      4C43 00
 4260               	.LASF21:
 4261 028a 4B5F 5350 		.string	"K_SPACE"
 4261      4143 4500 
 4262               	.LASF264:
 4263 0292 4B46 4C41 		.string	"KFLA"
 4263      00
 4264               	.LASF140:
 4265 0297 4B5F 4352 		.string	"K_CRSEL"
 4265      5345 4C00 
 4266               	.LASF157:
 4267 029f 4B5F 4241 		.string	"K_BASS_BST"
 4267      5353 5F42 
 4267      5354 00
 4268               	.LASF99:
 4269 02aa 4B5F 554E 		.string	"K_UNDO"
 4269      444F 00
 4270               	.LASF181:
 4271 02b1 4B5F 4D30 		.string	"K_M01"
 4271      3100 
 4272               	.LASF182:
 4273 02b7 4B5F 4D30 		.string	"K_M02"
 4273      3200 
 4274               	.LASF183:
 4275 02bd 4B5F 4D30 		.string	"K_M03"
 4275      3300 
 4276               	.LASF184:
 4277 02c3 4B5F 4D30 		.string	"K_M04"
 4277      3400 
 4278               	.LASF13:
 4279 02c9 4B5F 4E4F 		.string	"K_NONE"
 4279      4E45 00
GAS LISTING C:\Users\21030\AppData\Local\Temp/ccCMDFwY.s 			page 79


 4280               	.LASF186:
 4281 02d0 4B5F 4D30 		.string	"K_M06"
 4281      3600 
 4282               	.LASF187:
 4283 02d6 4B5F 4D30 		.string	"K_M07"
 4283      3700 
 4284               	.LASF188:
 4285 02dc 4B5F 4D30 		.string	"K_M08"
 4285      3800 
 4286               	.LASF103:
 4287 02e2 4B5F 4649 		.string	"K_FIND"
 4287      4E44 00
 4288               	.LASF56:
 4289 02e9 4B5F 5249 		.string	"K_RIGHT"
 4289      4748 5400 
 4290               	.LASF258:
 4291 02f1 6C61 7374 		.string	"lastMAKE_IDX"
 4291      4D41 4B45 
 4291      5F49 4458 
 4291      00
 4292               	.LASF185:
 4293 02fe 4B5F 4D30 		.string	"K_M05"
 4293      3500 
 4294               	.LASF136:
 4295 0304 4B5F 5350 		.string	"K_SPERATOR"
 4295      4552 4154 
 4295      4F52 00
 4296               	.LASF257:
 4297 030f 6C61 7374 		.string	"lastMAKE_SIZE"
 4297      4D41 4B45 
 4297      5F53 495A 
 4297      4500 
 4298               	.LASF189:
 4299 031d 4B5F 4D30 		.string	"K_M09"
 4299      3900 
 4300               	.LASF15:
 4301 0323 504F 5354 		.string	"POSTFail"
 4301      4661 696C 
 4301      00
 4302               	.LASF237:
 4303 032c 6B65 7969 		.string	"keyidx"
 4303      6478 00
 4304               	.LASF78:
 4305 0333 4B5F 4150 		.string	"K_APPS"
 4305      5053 00
 4306               	.LASF10:
 4307 033a 6368 6172 		.string	"char"
 4307      00
 4308               	.LASF239:
 4309 033f 6B65 7956 		.string	"keyVal"
 4309      616C 00
 4310               	.LASF165:
 4311 0346 4B5F 4D45 		.string	"K_MEDIA_SEL"
 4311      4449 415F 
 4311      5345 4C00 
 4312               	.LASF162:
 4313 0352 4B5F 4241 		.string	"K_BASS_DN"
GAS LISTING C:\Users\21030\AppData\Local\Temp/ccCMDFwY.s 			page 80


 4313      5353 5F44 
 4313      4E00 
 4314               	.LASF190:
 4315 035c 4B5F 4D31 		.string	"K_M10"
 4315      3000 
 4316               	.LASF191:
 4317 0362 4B5F 4D31 		.string	"K_M11"
 4317      3100 
 4318               	.LASF192:
 4319 0368 4B5F 4D31 		.string	"K_M12"
 4319      3200 
 4320               	.LASF193:
 4321 036e 4B5F 4D31 		.string	"K_M13"
 4321      3300 
 4322               	.LASF194:
 4323 0374 4B5F 4D31 		.string	"K_M14"
 4323      3400 
 4324               	.LASF195:
 4325 037a 4B5F 4D31 		.string	"K_M15"
 4325      3500 
 4326               	.LASF196:
 4327 0380 4B5F 4D31 		.string	"K_M16"
 4327      3600 
 4328               	.LASF197:
 4329 0386 4B5F 4D31 		.string	"K_M17"
 4329      3700 
 4330               	.LASF159:
 4331 038c 4B5F 564F 		.string	"K_VOL_UP"
 4331      4C5F 5550 
 4331      00
 4332               	.LASF199:
 4333 0395 4B5F 4D31 		.string	"K_M19"
 4333      3900 
 4334               	.LASF50:
 4335 039b 4B5F 494E 		.string	"K_INSERT"
 4335      5345 5254 
 4335      00
 4336               	.LASF97:
 4337 03a4 4B5F 5354 		.string	"K_STOP_HID"
 4337      4F50 5F48 
 4337      4944 00
 4338               	.LASF269:
 4339 03af 6C61 7374 		.string	"lastSent"
 4339      5365 6E74 
 4339      00
 4340               	.LASF94:
 4341 03b8 4B5F 4845 		.string	"K_HELP"
 4341      4C50 00
 4342               	.LASF175:
 4343 03bf 4B5F 5757 		.string	"K_WWW_FAVORITE"
 4343      575F 4641 
 4343      564F 5249 
 4343      5445 00
 4344               	.LASF85:
 4345 03ce 4B5F 4C46 		.string	"K_LFX"
 4345      5800 
 4346               	.LASF2:
GAS LISTING C:\Users\21030\AppData\Local\Temp/ccCMDFwY.s 			page 81


 4347 03d4 7569 6E74 		.string	"uint8_t"
 4347      385F 7400 
 4348               	.LASF123:
 4349 03dc 4B5F 4B41 		.string	"K_KATA"
 4349      5441 00
 4350               	.LASF244:
 4351 03e3 6E65 7773 		.string	"newstate"
 4351      7461 7465 
 4351      00
 4352               	.LASF80:
 4353 03ec 4B5F 4B50 		.string	"K_KP_EQUAL"
 4353      5F45 5155 
 4353      414C 00
 4354               	.LASF153:
 4355 03f7 4B5F 5052 		.string	"K_PREV_TRK"
 4355      4556 5F54 
 4355      524B 00
 4356               	.LASF8:
 4357 0402 6C6F 6E67 		.string	"long long int"
 4357      206C 6F6E 
 4357      6720 696E 
 4357      7400 
 4358               	.LASF201:
 4359 0410 4B5F 4D32 		.string	"K_M21"
 4359      3100 
 4360               	.LASF202:
 4361 0416 4B5F 4D32 		.string	"K_M22"
 4361      3200 
 4362               	.LASF203:
 4363 041c 4B5F 4D32 		.string	"K_M23"
 4363      3300 
 4364               	.LASF155:
 4365 0422 4B5F 504C 		.string	"K_PLAY"
 4365      4159 00
 4366               	.LASF205:
 4367 0429 4B5F 4D32 		.string	"K_M25"
 4367      3500 
 4368               	.LASF206:
 4369 042f 4B5F 4D32 		.string	"K_M26"
 4369      3600 
 4370               	.LASF207:
 4371 0435 4B5F 4D32 		.string	"K_M27"
 4371      3700 
 4372               	.LASF208:
 4373 043b 4B5F 4D32 		.string	"K_M28"
 4373      3800 
 4374               	.LASF28:
 4375 0441 4B5F 434F 		.string	"K_COLON"
 4375      4C4F 4E00 
 4376               	.LASF146:
 4377 0449 4B5F 4C47 		.string	"K_LGUI"
 4377      5549 00
 4378               	.LASF18:
 4379 0450 4B5F 4553 		.string	"K_ESC"
 4379      4300 
 4380               	.LASF134:
 4381 0456 4B5F 5052 		.string	"K_PRIOR"
GAS LISTING C:\Users\21030\AppData\Local\Temp/ccCMDFwY.s 			page 82


 4381      494F 5200 
 4382               	.LASF266:
 4383 045e 4D41 5452 		.string	"MATRIX"
 4383      4958 00
 4384               	.LASF263:
 4385 0465 6B65 7963 		.string	"keycode_set2"
 4385      6F64 655F 
 4385      7365 7432 
 4385      00
 4386               	.LASF254:
 4387 0472 6672 6F6E 		.string	"front"
 4387      7400 
 4388               	.LASF26:
 4389 0478 4B5F 424B 		.string	"K_BKSLASH"
 4389      534C 4153 
 4389      4800 
 4390               	.LASF161:
 4391 0482 4B5F 4241 		.string	"K_BASS_UP"
 4391      5353 5F55 
 4391      5000 
 4392               	.LASF87:
 4393 048c 4B5F 4C46 		.string	"K_LFULL"
 4393      554C 4C00 
 4394               	.LASF48:
 4395 0494 4B5F 5343 		.string	"K_SCRLCK"
 4395      524C 434B 
 4395      00
 4396               	.LASF108:
 4397 049d 4B5F 4B4C 		.string	"K_KL_NUM"
 4397      5F4E 554D 
 4397      00
 4398               	.LASF112:
 4399 04a6 4B5F 4C30 		.string	"K_L0"
 4399      00
 4400               	.LASF113:
 4401 04ab 4B5F 4C31 		.string	"K_L1"
 4401      00
 4402               	.LASF114:
 4403 04b0 4B5F 4C32 		.string	"K_L2"
 4403      00
 4404               	.LASF115:
 4405 04b5 4B5F 4C33 		.string	"K_L3"
 4405      00
 4406               	.LASF116:
 4407 04ba 4B5F 4C34 		.string	"K_L4"
 4407      00
 4408               	.LASF117:
 4409 04bf 4B5F 4C35 		.string	"K_L5"
 4409      00
 4410               	.LASF118:
 4411 04c4 4B5F 4C36 		.string	"K_L6"
 4411      00
 4412               	.LASF210:
 4413 04c9 4B5F 4D33 		.string	"K_M30"
 4413      3000 
 4414               	.LASF25:
 4415 04cf 4B5F 5242 		.string	"K_RBR"
GAS LISTING C:\Users\21030\AppData\Local\Temp/ccCMDFwY.s 			page 83


 4415      5200 
 4416               	.LASF212:
 4417 04d5 4B5F 4D33 		.string	"K_M32"
 4417      3200 
 4418               	.LASF213:
 4419 04db 4B5F 4D33 		.string	"K_M33"
 4419      3300 
 4420               	.LASF214:
 4421 04e1 4B5F 4D33 		.string	"K_M34"
 4421      3400 
 4422               	.LASF156:
 4423 04e7 4B5F 4D55 		.string	"K_MUTE"
 4423      5445 00
 4424               	.LASF216:
 4425 04ee 4B5F 4D33 		.string	"K_M36"
 4425      3600 
 4426               	.LASF217:
 4427 04f4 4B5F 4D33 		.string	"K_M37"
 4427      3700 
 4428               	.LASF218:
 4429 04fa 4B5F 4D33 		.string	"K_M38"
 4429      3800 
 4430               	.LASF219:
 4431 0500 4B5F 4D33 		.string	"K_M39"
 4431      3900 
 4432               	.LASF81:
 4433 0506 4B5F 4C45 		.string	"K_LED0"
 4433      4430 00
 4434               	.LASF82:
 4435 050d 4B5F 4C45 		.string	"K_LED1"
 4435      4431 00
 4436               	.LASF83:
 4437 0514 4B5F 4C45 		.string	"K_LED2"
 4437      4432 00
 4438               	.LASF84:
 4439 051b 4B5F 4C45 		.string	"K_LED3"
 4439      4433 00
 4440               	.LASF148:
 4441 0522 4B5F 5253 		.string	"K_RSHIFT"
 4441      4849 4654 
 4441      00
 4442               	.LASF29:
 4443 052b 4B5F 5155 		.string	"K_QUOTE"
 4443      4F54 4500 
 4444               	.LASF172:
 4445 0533 4B5F 5757 		.string	"K_WWW_FORWARD"
 4445      575F 464F 
 4445      5257 4152 
 4445      4400 
 4446               	.LASF23:
 4447 0541 4B5F 4551 		.string	"K_EQUAL"
 4447      5541 4C00 
 4448               	.LASF34:
 4449 0549 4B5F 4341 		.string	"K_CAPS"
 4449      5053 00
 4450               	.LASF63:
 4451 0550 4B5F 4B50 		.string	"K_KP_MINUS"
GAS LISTING C:\Users\21030\AppData\Local\Temp/ccCMDFwY.s 			page 84


 4451      5F4D 494E 
 4451      5553 00
 4452               	.LASF137:
 4453 055b 4B5F 4F55 		.string	"K_OUT"
 4453      5400 
 4454               	.LASF65:
 4455 0561 4B5F 4B50 		.string	"K_KP_ENTER"
 4455      5F45 4E54 
 4455      4552 00
 4456               	.LASF179:
 4457 056c 4B5F 5245 		.string	"K_REWIND"
 4457      5749 4E44 
 4457      00
 4458               	.LASF271:
 4459 0575 474E 5520 		.string	"GNU C 4.3.3"
 4459      4320 342E 
 4459      332E 3300 
 4460               	.LASF220:
 4461 0581 4B5F 4D34 		.string	"K_M40"
 4461      3000 
 4462               	.LASF221:
 4463 0587 4B5F 4D34 		.string	"K_M41"
 4463      3100 
 4464               	.LASF110:
 4465 058d 4B5F 4B50 		.string	"K_KP_COMMA"
 4465      5F43 4F4D 
 4465      4D41 00
 4466               	.LASF223:
 4467 0598 4B5F 4D34 		.string	"K_M43"
 4467      3300 
 4468               	.LASF3:
 4469 059e 7569 6E74 		.string	"uint16_t"
 4469      3136 5F74 
 4469      00
 4470               	.LASF92:
 4471 05a7 4B5F 5245 		.string	"K_RESET"
 4471      5345 5400 
 4472               	.LASF226:
 4473 05af 4B5F 4D34 		.string	"K_M46"
 4473      3600 
 4474               	.LASF227:
 4475 05b5 4B5F 4D34 		.string	"K_M47"
 4475      3700 
 4476               	.LASF228:
 4477 05bb 4B5F 4D34 		.string	"K_M48"
 4477      3800 
 4478               	.LASF229:
 4479 05c1 4B5F 4D34 		.string	"K_M49"
 4479      3900 
 4480               	.LASF204:
 4481 05c7 4B5F 4D32 		.string	"K_M24"
 4481      3400 
 4482               	.LASF209:
 4483 05cd 4B5F 4D32 		.string	"K_M29"
 4483      3900 
 4484               	.LASF242:
 4485 05d3 5F5F 7265 		.string	"__result"
GAS LISTING C:\Users\21030\AppData\Local\Temp/ccCMDFwY.s 			page 85


 4485      7375 6C74 
 4485      00
 4486               	.LASF44:
 4487 05dc 4B5F 4631 		.string	"K_F10"
 4487      3000 
 4488               	.LASF45:
 4489 05e2 4B5F 4631 		.string	"K_F11"
 4489      3100 
 4490               	.LASF46:
 4491 05e8 4B5F 4631 		.string	"K_F12"
 4491      3200 
 4492               	.LASF58:
 4493 05ee 4B5F 444F 		.string	"K_DOWN"
 4493      574E 00
 4494               	.LASF198:
 4495 05f5 4B5F 4D31 		.string	"K_M18"
 4495      3800 
 4496               	.LASF12:
 4497 05fb 7368 6F72 		.string	"short int"
 4497      7420 696E 
 4497      7400 
 4498               	.LASF126:
 4499 0605 4B5F 504F 		.string	"K_POWER"
 4499      5745 5200 
 4500               	.LASF158:
 4501 060d 4B5F 4C4F 		.string	"K_LOUDNESS"
 4501      5544 4E45 
 4501      5353 00
 4502               	.LASF5:
 4503 0618 6C6F 6E67 		.string	"long int"
 4503      2069 6E74 
 4503      00
 4504               	.LASF259:
 4505 0621 6C6F 6F70 		.string	"loopCnt"
 4505      436E 7400 
 4506               	.LASF230:
 4507 0629 4B5F 4D35 		.string	"K_M50"
 4507      3000 
 4508               	.LASF163:
 4509 062f 4B5F 5452 		.string	"K_TRE_UP"
 4509      455F 5550 
 4509      00
 4510               	.LASF232:
 4511 0638 4B5F 4D35 		.string	"K_M52"
 4511      3200 
 4512               	.LASF55:
 4513 063e 4B5F 5047 		.string	"K_PGDN"
 4513      444E 00
 4514               	.LASF144:
 4515 0645 4B5F 4C53 		.string	"K_LSHIFT"
 4515      4849 4654 
 4515      00
 4516               	.LASF152:
 4517 064e 4B5F 4E45 		.string	"K_NEXT_TRK"
 4517      5854 5F54 
 4517      524B 00
 4518               	.LASF260:
GAS LISTING C:\Users\21030\AppData\Local\Temp/ccCMDFwY.s 			page 86


 4519 0659 5459 5045 		.string	"TYPEMATIC_DELAY"
 4519      4D41 5449 
 4519      435F 4445 
 4519      4C41 5900 
 4520               	.LASF274:
 4521 0669 6973 456D 		.string	"isEmpty"
 4521      7074 7900 
 4522               	.LASF49:
 4523 0671 4B5F 5041 		.string	"K_PAUSE"
 4523      5553 4500 
 4524               	.LASF147:
 4525 0679 4B5F 5243 		.string	"K_RCTRL"
 4525      5452 4C00 
 4526               	.LASF262:
 4527 0681 6B62 645F 		.string	"kbd_flags"
 4527      666C 6167 
 4527      7300 
 4528               	.LASF238:
 4529 068b 6973 5075 		.string	"isPushed"
 4529      7368 6564 
 4529      00
 4530               	.LASF273:
 4531 0694 433A 5C55 		.string	"C:\\Users\\21030\\Documents\\GitHub\\l3\\source"
 4531      7365 7273 
 4531      5C32 3130 
 4531      3330 5C44 
 4531      6F63 756D 
 4532               	.LASF57:
 4533 06be 4B5F 4C45 		.string	"K_LEFT"
 4533      4654 00
 4534               	.LASF178:
 4535 06c5 4B5F 5245 		.string	"K_REC"
 4535      4300 
 4536               	.LASF248:
 4537 06cb 7278 6564 		.string	"rxed"
 4537      00
 4538               	.LASF22:
 4539 06d0 4B5F 4D49 		.string	"K_MINUS"
 4539      4E55 5300 
 4540               	.LASF128:
 4541 06d8 4B5F 5741 		.string	"K_WAKE"
 4541      4B45 00
 4542               	.LASF27:
 4543 06df 4B5F 4575 		.string	"K_Europe1"
 4543      726F 7065 
 4543      3100 
 4544               	.LASF17:
 4545 06e9 4B5F 454E 		.string	"K_ENTER"
 4545      5445 5200 
 4546               	.LASF246:
 4547 06f1 7072 6F63 		.string	"processTX"
 4547      6573 7354 
 4547      5800 
 4548               	.LASF142:
 4549 06fb 4B5F 4D6F 		.string	"K_Modifiers"
 4549      6469 6669 
 4549      6572 7300 
GAS LISTING C:\Users\21030\AppData\Local\Temp/ccCMDFwY.s 			page 87


 4550               	.LASF31:
 4551 0707 4B5F 434F 		.string	"K_COMMA"
 4551      4D4D 4100 
 4552               	.LASF86:
 4553 070f 4B5F 4C50 		.string	"K_LPAD"
 4553      4144 00
 4554               	.LASF265:
 4555 0716 4C45 4473 		.string	"LEDstate"
 4555      7461 7465 
 4555      00
 4556               	.LASF16:
 4557 071f 4572 726F 		.string	"ErrorUndefined"
 4557      7255 6E64 
 4557      6566 696E 
 4557      6564 00
 4558               	.LASF127:
 4559 072e 4B5F 534C 		.string	"K_SLEEP"
 4559      4545 5000 
 4560               	.LASF138:
 4561 0736 4B5F 4F50 		.string	"K_OPER"
 4561      4552 00
 4562               	.LASF200:
 4563 073d 4B5F 4D32 		.string	"K_M20"
 4563      3000 
 4564               	.LASF253:
 4565 0743 7265 6172 		.string	"rear"
 4565      00
 4566               	.LASF141:
 4567 0748 4B5F 4558 		.string	"K_EXCEL"
 4567      4345 4C00 
 4568               	.LASF52:
 4569 0750 4B5F 5047 		.string	"K_PGUP"
 4569      5550 00
 4570               	.LASF252:
 4571 0757 5155 4555 		.string	"QUEUE"
 4571      4500 
 4572               	.LASF104:
 4573 075d 4B5F 4D55 		.string	"K_MUTE_HID"
 4573      5445 5F48 
 4573      4944 00
 4574               	.LASF124:
 4575 0768 4B5F 4849 		.string	"K_HIRA"
 4575      5241 00
 4576               	.LASF7:
 4577 076f 6C6F 6E67 		.string	"long unsigned int"
 4577      2075 6E73 
 4577      6967 6E65 
 4577      6420 696E 
 4577      7400 
 4578               	.LASF1:
 4579 0781 756E 7369 		.string	"unsigned char"
 4579      676E 6564 
 4579      2063 6861 
 4579      7200 
 4580               	.LASF122:
 4581 078f 4B5F 4841 		.string	"K_HANGLE"
 4581      4E47 4C45 
GAS LISTING C:\Users\21030\AppData\Local\Temp/ccCMDFwY.s 			page 88


 4581      00
 4582               	.LASF95:
 4583 0798 4B5F 4D45 		.string	"K_MENU"
 4583      4E55 00
 4584               	.LASF51:
 4585 079f 4B5F 484F 		.string	"K_HOME"
 4585      4D45 00
 4586               	.LASF255:
 4587 07a6 6C61 7374 		.string	"lastMAKE_keyidx"
 4587      4D41 4B45 
 4587      5F6B 6579 
 4587      6964 7800 
 4588               	.LASF143:
 4589 07b6 4B5F 4C43 		.string	"K_LCTRL"
 4589      5452 4C00 
 4590               	.LASF145:
 4591 07be 4B5F 4C41 		.string	"K_LALT"
 4591      4C54 00
 4592               	.LASF100:
 4593 07c5 4B5F 4355 		.string	"K_CUT"
 4593      5400 
 4594               	.LASF32:
 4595 07cb 4B5F 444F 		.string	"K_DOT"
 4595      5400 
 4596               	.LASF60:
 4597 07d1 4B5F 4E55 		.string	"K_NUMLOCK"
 4597      4D4C 4F43 
 4597      4B00 
 4598               	.LASF77:
 4599 07db 4B5F 4575 		.string	"K_Europe2"
 4599      726F 7065 
 4599      3200 
 4600               	.LASF125:
 4601 07e5 4B5F 5379 		.string	"K_System"
 4601      7374 656D 
 4601      00
 4602               	.LASF236:
 4603 07ee 6974 656D 		.string	"item"
 4603      00
 4604               	.LASF222:
 4605 07f3 4B5F 4D34 		.string	"K_M42"
 4605      3200 
 4606               	.LASF224:
 4607 07f9 4B5F 4D34 		.string	"K_M44"
 4607      3400 
 4608               	.LASF225:
 4609 07ff 4B5F 4D34 		.string	"K_M45"
 4609      3500 
 4610               	.LASF98:
 4611 0805 4B5F 4147 		.string	"K_AGAIN"
 4611      4149 4E00 
 4612               	.LASF0:
 4613 080d 7369 676E 		.string	"signed char"
 4613      6564 2063 
 4613      6861 7200 
 4614               	.LASF166:
 4615 0819 4B5F 4D41 		.string	"K_MAIL"
GAS LISTING C:\Users\21030\AppData\Local\Temp/ccCMDFwY.s 			page 89


 4615      494C 00
 4616               	.LASF11:
 4617 0820 7368 6F72 		.string	"short unsigned int"
 4617      7420 756E 
 4617      7369 676E 
 4617      6564 2069 
 4617      6E74 00
 4618               	.LASF135:
 4619 0833 4B5F 5245 		.string	"K_RETURN"
 4619      5455 524E 
 4619      00
 4620               	.LASF89:
 4621 083c 4B5F 4C41 		.string	"K_LARR"
 4621      5252 00
 4622               	.LASF119:
 4623 0843 4B5F 494E 		.string	"K_INTL8"
 4623      544C 3800 
 4624               	.LASF120:
 4625 084b 4B5F 494E 		.string	"K_INTL9"
 4625      544C 3900 
 4626               	.LASF79:
 4627 0853 4B5F 504F 		.string	"K_POWER_HID"
 4627      5745 525F 
 4627      4849 4400 
 4628               	.LASF235:
 4629 085f 7075 744B 		.string	"putKey"
 4629      6579 00
 4630               	.LASF169:
 4631 0866 4B5F 5757 		.string	"K_WWW_SEARCH"
 4631      575F 5345 
 4631      4152 4348 
 4631      00
 4632               	.LASF164:
 4633 0873 4B5F 5452 		.string	"K_TRE_DN"
 4633      455F 444E 
 4633      00
 4634               	.LASF61:
 4635 087c 4B5F 4B50 		.string	"K_KP_SLASH"
 4635      5F53 4C41 
 4635      5348 00
 4636               	.LASF247:
 4637 0887 7072 6F63 		.string	"processRX"
 4637      6573 7352 
 4637      5800 
 4638               	.LASF150:
 4639 0891 4B5F 5247 		.string	"K_RGUI"
 4639      5549 00
 4640               	.LASF211:
 4641 0898 4B5F 4D33 		.string	"K_M31"
 4641      3100 
 4642               	.LASF30:
 4643 089e 4B5F 4841 		.string	"K_HASH"
 4643      5348 00
 4644               	.LASF131:
 4645 08a5 4B5F 5359 		.string	"K_SYSREQ"
 4645      5352 4551 
 4645      00
GAS LISTING C:\Users\21030\AppData\Local\Temp/ccCMDFwY.s 			page 90


 4646               	.LASF215:
 4647 08ae 4B5F 4D33 		.string	"K_M35"
 4647      3500 
 4648               	.LASF243:
 4649 08b4 7478 5F73 		.string	"tx_state"
 4649      7461 7465 
 4649      00
 4650               	.LASF47:
 4651 08bd 4B5F 5052 		.string	"K_PRNSCR"
 4651      4E53 4352 
 4651      00
 4652               	.LASF88:
 4653 08c6 4B5F 4C41 		.string	"K_LASD"
 4653      5344 00
 4654               	.LASF102:
 4655 08cd 4B5F 5041 		.string	"K_PASTE"
 4655      5354 4500 
 4656               	.global __do_copy_data
 4657               	.global __do_clear_bss
GAS LISTING C:\Users\21030\AppData\Local\Temp/ccCMDFwY.s 			page 91


DEFINED SYMBOLS
                            *ABS*:00000000 ps2main.c
C:\Users\21030\AppData\Local\Temp/ccCMDFwY.s:2      *ABS*:0000003f __SREG__
C:\Users\21030\AppData\Local\Temp/ccCMDFwY.s:3      *ABS*:0000003e __SP_H__
C:\Users\21030\AppData\Local\Temp/ccCMDFwY.s:4      *ABS*:0000003d __SP_L__
C:\Users\21030\AppData\Local\Temp/ccCMDFwY.s:5      *ABS*:00000034 __CCP__
C:\Users\21030\AppData\Local\Temp/ccCMDFwY.s:6      *ABS*:00000000 __tmp_reg__
C:\Users\21030\AppData\Local\Temp/ccCMDFwY.s:7      *ABS*:00000001 __zero_reg__
C:\Users\21030\AppData\Local\Temp/ccCMDFwY.s:18     .text:00000000 push
                             .bss:00000001 lastMAKE_SIZE
C:\Users\21030\AppData\Local\Temp/ccCMDFwY.s:1061   .bss:00000007 record.2028
C:\Users\21030\AppData\Local\Temp/ccCMDFwY.s:1064   .bss:000000d1 lastMAKE
C:\Users\21030\AppData\Local\Temp/ccCMDFwY.s:1060   .bss:00000005 rear
C:\Users\21030\AppData\Local\Temp/ccCMDFwY.s:1052   .bss:00000003 front
C:\Users\21030\AppData\Local\Temp/ccCMDFwY.s:1062   .bss:00000008 QUEUE
C:\Users\21030\AppData\Local\Temp/ccCMDFwY.s:104    .text:00000088 pop
C:\Users\21030\AppData\Local\Temp/ccCMDFwY.s:139    .text:000000c0 isEmpty
C:\Users\21030\AppData\Local\Temp/ccCMDFwY.s:163    .text:000000de clear
C:\Users\21030\AppData\Local\Temp/ccCMDFwY.s:1046   .bss:00000002 lastMAKE_IDX
C:\Users\21030\AppData\Local\Temp/ccCMDFwY.s:1065   .bss:000000db loopCnt
C:\Users\21030\AppData\Local\Temp/ccCMDFwY.s:214    .text:00000168 putKey
C:\Users\21030\AppData\Local\Temp/ccCMDFwY.s:1063   .bss:000000d0 lastMAKE_keyidx
                            *COM*:00000001 m_state
C:\Users\21030\AppData\Local\Temp/ccCMDFwY.s:414    .text:00000282 tx_state
                            *COM*:00000001 lastSent
C:\Users\21030\AppData\Local\Temp/ccCMDFwY.s:443    .text:0000029a processTX
C:\Users\21030\AppData\Local\Temp/ccCMDFwY.s:1050   .data:00000000 TYPEMATIC_DELAY
C:\Users\21030\AppData\Local\Temp/ccCMDFwY.s:1055   .data:00000001 TYPEMATIC_REPEAT
C:\Users\21030\AppData\Local\Temp/ccCMDFwY.s:708    .text:0000049e processRX
C:\Users\21030\AppData\Local\Temp/ccCMDFwY.s:960    .text:0000061c ps2main
C:\Users\21030\AppData\Local\Temp/ccCMDFwY.s:1044   .bss:00000000 txScanCode
                            *COM*:00000001 lastState

UNDEFINED SYMBOLS
__divmodhi4
MATRIX
keycode_set2
KFLA
kbd_set_tx
scankey
__udivmodqi4
__mulsi3
__divmodsi4
led_check
led_mode_init
kbd_get_rx_char
LEDstate
led_3lockupdate
kbd_init
kbd_flags
__do_copy_data
__do_clear_bss
