Archive member included because of file (symbol)

c:/winavr-20100110/bin/../lib/gcc/avr/4.3.3/avr51\libgcc.a(_mulsi3.o)
                              ./avrlib/timer128.o (__mulsi3)
c:/winavr-20100110/bin/../lib/gcc/avr/4.3.3/avr51\libgcc.a(_udivmodqi4.o)
                              ps2main.o (__udivmodqi4)
c:/winavr-20100110/bin/../lib/gcc/avr/4.3.3/avr51\libgcc.a(_udivmodhi4.o)
                              led/led.o (__udivmodhi4)
c:/winavr-20100110/bin/../lib/gcc/avr/4.3.3/avr51\libgcc.a(_divmodhi4.o)
                              led/led.o (__divmodhi4)
c:/winavr-20100110/bin/../lib/gcc/avr/4.3.3/avr51\libgcc.a(_udivmodsi4.o)
                              ./avrlib/timer128.o (__udivmodsi4)
c:/winavr-20100110/bin/../lib/gcc/avr/4.3.3/avr51\libgcc.a(_divmodsi4.o)
                              ps2main.o (__divmodsi4)
c:/winavr-20100110/bin/../lib/gcc/avr/4.3.3/avr51\libgcc.a(_exit.o)
                              c:/winavr-20100110/bin/../lib/gcc/avr/4.3.3/../../../../avr/lib/avr51/crtm128.o (exit)
c:/winavr-20100110/bin/../lib/gcc/avr/4.3.3/avr51\libgcc.a(_clear_bss.o)
                              ./avrlib/timer128.o (__do_clear_bss)
c:/winavr-20100110/bin/../lib/gcc/avr/4.3.3/../../../../avr/lib/avr51\libc.a(memset.o)
                              usbmain.o (memset)
c:/winavr-20100110/bin/../lib/gcc/avr/4.3.3/../../../../avr/lib/avr51\libc.a(eerd_byte_atmega128.o)
                              matrix/matrix.o (__eerd_byte_m128)
c:/winavr-20100110/bin/../lib/gcc/avr/4.3.3/../../../../avr/lib/avr51\libc.a(eewr_byte_atmega128.o)
                              matrix/matrix.o (__eewr_byte_m128)

Allocating common symbols
Common symbol       size              file

usbTxBuf            0xb               usbdrv/usbdrv.o
LEDstate            0x1               led/led.o
extraReportUpdate   0x1               usbmain.o
svkeyidx            0x6c              matrix/matrix.o
MATRIX              0x12              matrix/matrix.o
extraReport         0x3               usbmain.o
usbTxStatus1        0xc               usbdrv/usbdrv.o
Timer0Reg0          0x4               ./avrlib/timer128.o
Timer2Reg1          0x4               ./avrlib/timer128.o
TimerPauseReg       0x4               ./avrlib/timer128.o
lastState           0x1               ps2main.o
Timer2Reg0          0x4               ./avrlib/timer128.o
curMATRIX           0x12              matrix/matrix.o
oldextraReport      0x3               usbmain.o
ledmodeIndex        0x1               led/led.o
usbDeviceAddr       0x1               usbdrv/usbdrv.o
Timer0Reg1          0x4               ./avrlib/timer128.o
usbRxToken          0x1               usbdrv/usbdrv.o
usbInputBufOffset   0x1               usbdrv/usbdrv.o
KFLA                0xac              matrix/keymap.o
reportIndex         0x1               usbmain.o
lastSent            0x1               ps2main.o
m_state             0x1               ps2main.o
usbMsgPtr           0x2               usbdrv/usbdrv.o
usbRxLen            0x1               usbdrv/usbdrv.o
kbd_state           0x1               keysta.o
usbNewDeviceAddr    0x1               usbdrv/usbdrv.o
matrixFN            0x1               matrix/matrix.o
usbCurrentTok       0x1               usbdrv/usbdrv.o
kbd_flags           0x1               keysta.o
usbConfiguration    0x1               usbdrv/usbdrv.o
usbRxBuf            0x16              usbdrv/usbdrv.o
usbTxStatus3        0xc               usbdrv/usbdrv.o

Memory Configuration

Name             Origin             Length             Attributes
text             0x00000000         0x00020000         xr
data             0x00800060         0x0000ffa0         rw !x
eeprom           0x00810000         0x00010000         rw !x
fuse             0x00820000         0x00000400         rw !x
lock             0x00830000         0x00000400         rw !x
signature        0x00840000         0x00000400         rw !x
*default*        0x00000000         0xffffffff

Linker script and memory map

Address of section .data set to 0x800100
LOAD c:/winavr-20100110/bin/../lib/gcc/avr/4.3.3/../../../../avr/lib/avr51/crtm128.o
LOAD usbdrv/usbdrvasm.o
LOAD ./avrlib/timer128.o
LOAD usbdrv/usbdrv.o
LOAD usbdrv/oddebug.o
LOAD matrix/matrix.o
LOAD matrix/keymap.o
LOAD led/led.o
LOAD usbmain.o
LOAD ps2main.o
LOAD keysta.o
LOAD main.o
LOAD c:/winavr-20100110/bin/../lib/gcc/avr/4.3.3/avr51\libgcc.a
LOAD c:/winavr-20100110/bin/../lib/gcc/avr/4.3.3/../../../../avr/lib/avr51\libc.a
LOAD c:/winavr-20100110/bin/../lib/gcc/avr/4.3.3/avr51\libgcc.a

.hash
 *(.hash)

.dynsym
 *(.dynsym)

.dynstr
 *(.dynstr)

.gnu.version
 *(.gnu.version)

.gnu.version_d
 *(.gnu.version_d)

.gnu.version_r
 *(.gnu.version_r)

.rel.init
 *(.rel.init)

.rela.init
 *(.rela.init)

.rel.text
 *(.rel.text)
 *(.rel.text.*)
 *(.rel.gnu.linkonce.t*)

.rela.text
 *(.rela.text)
 *(.rela.text.*)
 *(.rela.gnu.linkonce.t*)

.rel.fini
 *(.rel.fini)

.rela.fini
 *(.rela.fini)

.rel.rodata
 *(.rel.rodata)
 *(.rel.rodata.*)
 *(.rel.gnu.linkonce.r*)

.rela.rodata
 *(.rela.rodata)
 *(.rela.rodata.*)
 *(.rela.gnu.linkonce.r*)

.rel.data
 *(.rel.data)
 *(.rel.data.*)
 *(.rel.gnu.linkonce.d*)

.rela.data
 *(.rela.data)
 *(.rela.data.*)
 *(.rela.gnu.linkonce.d*)

.rel.ctors
 *(.rel.ctors)

.rela.ctors
 *(.rela.ctors)

.rel.dtors
 *(.rel.dtors)

.rela.dtors
 *(.rela.dtors)

.rel.got
 *(.rel.got)

.rela.got
 *(.rela.got)

.rel.bss
 *(.rel.bss)

.rela.bss
 *(.rela.bss)

.rel.plt
 *(.rel.plt)

.rela.plt
 *(.rela.plt)

.text           0x00000000     0x36ea
 *(.vectors)
 .vectors       0x00000000       0x8c c:/winavr-20100110/bin/../lib/gcc/avr/4.3.3/../../../../avr/lib/avr51/crtm128.o
                0x00000000                __vectors
                0x00000000                __vector_default
 *(.vectors)
 *(.progmem.gcc*)
 .progmem.gcc_sw_table
                0x0000008c       0xbe usbmain.o
 *(.progmem*)
 .progmem.data  0x0000014a       0x1c ./avrlib/timer128.o
                0x00000156                TimerRTCPrescaleFactor
                0x0000014a                TimerPrescaleFactor
 .progmem.data  0x00000166       0x32 usbdrv/usbdrv.o
                0x00000186                usbDescriptorDevice
                0x00000166                usbDescriptorString0
                0x0000016a                usbDescriptorStringVendor
                0x00000178                usbDescriptorStringDevice
 .progmem.data  0x00000198      0x453 matrix/keymap.o
                0x0000024f                keycode_set2_extend
                0x00000198                keycode_set2
                0x00000244                keycode_set2_special
                0x0000028b                keymap_code
                0x0000024b                keycode_set2_make_break
                0x00000247                keycode_set2_makeonly
                0x0000027c                keycode_set2_proc_shift
 .progmem.data  0x000005eb       0xfd usbmain.o
                0x000006ad                usbDescriptorConfiguration
                0x0000062a                mouse_hid_report
                0x000005eb                keyboard_hid_report
                0x000006e8                . = ALIGN (0x2)
                0x000006e8                __trampolines_start = .
 *(.trampolines)
 .trampolines   0x000006e8        0x0 linker stubs
 *(.trampolines*)
                0x000006e8                __trampolines_end = .
 *(.jumptables)
 *(.jumptables*)
 *(.lowtext)
 *(.lowtext*)
                0x000006e8                __ctors_start = .
 *(.ctors)
                0x000006e8                __ctors_end = .
                0x000006e8                __dtors_start = .
 *(.dtors)
                0x000006e8                __dtors_end = .
 SORT(*)(.ctors)
 SORT(*)(.dtors)
 *(.init0)
 .init0         0x000006e8        0x0 c:/winavr-20100110/bin/../lib/gcc/avr/4.3.3/../../../../avr/lib/avr51/crtm128.o
                0x000006e8                __init
 *(.init0)
 *(.init1)
 *(.init1)
 *(.init2)
 .init2         0x000006e8        0xc c:/winavr-20100110/bin/../lib/gcc/avr/4.3.3/../../../../avr/lib/avr51/crtm128.o
 *(.init2)
 *(.init3)
 *(.init3)
 *(.init4)
 .init4         0x000006f4       0x1a c:/winavr-20100110/bin/../lib/gcc/avr/4.3.3/../../../../avr/lib/avr51/crtm128.o
                0x000006f4                __do_copy_data
 .init4         0x0000070e       0x10 c:/winavr-20100110/bin/../lib/gcc/avr/4.3.3/avr51\libgcc.a(_clear_bss.o)
                0x0000070e                __do_clear_bss
 *(.init4)
 *(.init5)
 *(.init5)
 *(.init6)
 *(.init6)
 *(.init7)
 *(.init7)
 *(.init8)
 *(.init8)
 *(.init9)
 .init9         0x0000071e        0x8 c:/winavr-20100110/bin/../lib/gcc/avr/4.3.3/../../../../avr/lib/avr51/crtm128.o
 *(.init9)
 *(.text)
 .text          0x00000726        0x4 c:/winavr-20100110/bin/../lib/gcc/avr/4.3.3/../../../../avr/lib/avr51/crtm128.o
                0x00000726                __vector_22
                0x00000726                __vector_32
                0x00000726                __vector_34
                0x00000726                __bad_interrupt
                0x00000726                __vector_6
                0x00000726                __vector_31
                0x00000726                __vector_3
                0x00000726                __vector_23
                0x00000726                __vector_30
                0x00000726                __vector_17
                0x00000726                __vector_19
                0x00000726                __vector_7
                0x00000726                __vector_5
                0x00000726                __vector_33
                0x00000726                __vector_4
                0x00000726                __vector_2
                0x00000726                __vector_21
                0x00000726                __vector_8
                0x00000726                __vector_18
                0x00000726                __vector_20
 .text          0x0000072a      0x2bc usbdrv/usbdrvasm.o
                0x0000075c                __vector_1
                0x0000072a                usbCrc16
                0x00000754                usbCrc16Append
 .text          0x000009e6      0xbfa ./avrlib/timer128.o
                0x00000ce2                timer2GetOverflowCount
                0x0000151c                __vector_28
                0x00000b5e                timerDetach
                0x00000abc                timer1SetPrescaler
                0x00000f0c                timer3PWMAOn
                0x00000d22                timer0PWMOn
                0x00000d3e                timer0PWMSet
                0x00001332                __vector_24
                0x00000cf8                timer0PWMInit
                0x0000126e                __vector_12
                0x00000e12                timer1PWMBOff
                0x00000b12                timer2GetPrescaler
                0x00000a94                timer2IntEnable
                0x00000ed6                timer3PWMOff
                0x000009e8                timer0Init
                0x00000e04                timer1PWMAOff
                0x00000e34                timer1PWMBSet
                0x00000ad0                timer3SetPrescaler
                0x00000df6                timer1PWMCOn
                0x00000f30                timer3PWMCOn
                0x0000157e                __vector_25
                0x00000f1e                timer3PWMBOn
                0x00001394                __vector_11
                0x00000d7a                timer1PWMInitICR
                0x000012d0                __vector_13
                0x00000a9c                timer3Init
                0x00000f54                timer3PWMBOff
                0x00000ade                timer0GetPrescaler
                0x00000b2c                timer3GetPrescaler
                0x00000f78                timer3PWMASet
                0x000014ba                __vector_27
                0x00000caa                timer0GetOverflowCount
                0x00000a4e                timerInit
                0x00000f82                timer3PWMBSet
                0x00000f42                timer3PWMAOff
                0x00000ac6                timer2SetPrescaler
                0x00000e94                timer3PWMInitICR
                0x00000dda                timer1PWMAOn
                0x00000ab2                timer0SetPrescaler
                0x000009e6                delay_us
                0x00000e3a                timer1PWMCSet
                0x00000c88                timer0ClearOverflowCount
                0x000013f6                __vector_9
                0x00000a14                timer1Init
                0x0000120c                __vector_15
                0x000011aa                __vector_29
                0x00000d42                timer1PWMInit
                0x00000de8                timer1PWMBOn
                0x00000a22                timer2Init
                0x00000f66                timer3PWMCOff
                0x00001458                __vector_26
                0x00000e2e                timer1PWMASet
                0x00000b48                timerAttach
                0x00000da8                timer1PWMOff
                0x00000e20                timer1PWMCOff
                0x0000105c                __vector_14
                0x00000f8c                timer3PWMCSet
                0x000010be                __vector_10
                0x00000f96                __vector_16
                0x00000af8                timer1GetPrescaler
                0x00000e44                timer3PWMInit
                0x00000cc0                timer2ClearOverflowCount
                0x00000b74                timerPause
                0x00000d30                timer0PWMOff
 .text          0x000015e0      0x2a0 usbdrv/usbdrv.o
                0x00001606                usbPoll
                0x0000186c                usbSetInterrupt3
                0x00001876                usbSetInterrupt
                0x000015e0                usbInit
 .text          0x00001880        0x0 usbdrv/oddebug.o
 .text          0x00001880      0x4be matrix/matrix.o
                0x00001880                getLayer
                0x00001c36                keymap_init
                0x000019d2                scankey
                0x000018f8                processFNkeys
 .text          0x00001d3e        0x0 matrix/keymap.o
 .text          0x00001d3e      0x904 led/led.o
                0x000022f8                led_fader
                0x0000220c                led_blink
                0x00001eb0                led_3lockupdate
                0x00001f26                led_pushed_level_cal
                0x00001f96                led_wave_set
                0x0000212e                led_mode_change
                0x000020b0                led_wave_on
                0x00001db4                led_on
                0x00001e26                led_check
                0x00001d3e                led_off
                0x00002032                led_wave_off
                0x000021a6                led_mode_init
 .text          0x00002642      0x5b0 usbmain.o
                0x00002864                usbSendReport
                0x00002642                usbFunctionDescriptor
                0x00002a18                clearReportBuffer
                0x00002a4c                saveReportBuffer
                0x000026b6                usbFunctionSetup
                0x00002814                bufcmp
                0x0000283e                cmpReportBuffer
                0x00002a60                usbmain
                0x00002a38                restoreReportBuffer
                0x000028be                buildHIDreports
                0x00002b80                sendString
                0x000028ae                sendKey
                0x0000273c                charToKey
                0x00002bd2                usbFunctionWrite
 .text          0x00002bf2      0x62c ps2main.o
                0x000031bc                ps2main
                0x00002d08                putKey
                0x00002e3a                processTX
                0x00002e22                tx_state
                0x0000303e                processRX
                0x00002cd0                clear
                0x00002c7a                pop
                0x00002cb2                isEmpty
                0x00002bf2                push
 .text          0x0000321e      0x27a keysta.o
                0x0000323c                kbd_get_rx_char
                0x0000346c                kbd_init
                0x0000321e                kbd_set_tx
 .text          0x00003498       0xf8 main.o
                0x00003498                enable_printf
                0x0000349a                DPpullEn
                0x000034ea                checkInterface
                0x00003534                main
                0x000034b2                portInit
 .text          0x00003590        0x0 c:/winavr-20100110/bin/../lib/gcc/avr/4.3.3/avr51\libgcc.a(_mulsi3.o)
 .text          0x00003590        0x0 c:/winavr-20100110/bin/../lib/gcc/avr/4.3.3/avr51\libgcc.a(_udivmodqi4.o)
 .text          0x00003590        0x0 c:/winavr-20100110/bin/../lib/gcc/avr/4.3.3/avr51\libgcc.a(_udivmodhi4.o)
 .text          0x00003590        0x0 c:/winavr-20100110/bin/../lib/gcc/avr/4.3.3/avr51\libgcc.a(_divmodhi4.o)
 .text          0x00003590        0x0 c:/winavr-20100110/bin/../lib/gcc/avr/4.3.3/avr51\libgcc.a(_udivmodsi4.o)
 .text          0x00003590        0x0 c:/winavr-20100110/bin/../lib/gcc/avr/4.3.3/avr51\libgcc.a(_divmodsi4.o)
 .text          0x00003590        0x0 c:/winavr-20100110/bin/../lib/gcc/avr/4.3.3/avr51\libgcc.a(_exit.o)
 .text          0x00003590        0x0 c:/winavr-20100110/bin/../lib/gcc/avr/4.3.3/avr51\libgcc.a(_clear_bss.o)
 .text          0x00003590        0x0 c:/winavr-20100110/bin/../lib/gcc/avr/4.3.3/../../../../avr/lib/avr51\libc.a(memset.o)
 .text          0x00003590        0x0 c:/winavr-20100110/bin/../lib/gcc/avr/4.3.3/../../../../avr/lib/avr51\libc.a(eerd_byte_atmega128.o)
 .text          0x00003590        0x0 c:/winavr-20100110/bin/../lib/gcc/avr/4.3.3/../../../../avr/lib/avr51\libc.a(eewr_byte_atmega128.o)
                0x00003590                . = ALIGN (0x2)
 *(.text.*)
 .text.libgcc   0x00003590       0x3e c:/winavr-20100110/bin/../lib/gcc/avr/4.3.3/avr51\libgcc.a(_mulsi3.o)
                0x00003590                __mulsi3
 .text.libgcc   0x000035ce       0x18 c:/winavr-20100110/bin/../lib/gcc/avr/4.3.3/avr51\libgcc.a(_udivmodqi4.o)
                0x000035ce                __udivmodqi4
 .text.libgcc   0x000035e6       0x28 c:/winavr-20100110/bin/../lib/gcc/avr/4.3.3/avr51\libgcc.a(_udivmodhi4.o)
                0x000035e6                __udivmodhi4
 .text.libgcc   0x0000360e       0x26 c:/winavr-20100110/bin/../lib/gcc/avr/4.3.3/avr51\libgcc.a(_divmodhi4.o)
                0x0000360e                __divmodhi4
                0x0000360e                _div
 .text.libgcc   0x00003634       0x44 c:/winavr-20100110/bin/../lib/gcc/avr/4.3.3/avr51\libgcc.a(_udivmodsi4.o)
                0x00003634                __udivmodsi4
 .text.libgcc   0x00003678       0x36 c:/winavr-20100110/bin/../lib/gcc/avr/4.3.3/avr51\libgcc.a(_divmodsi4.o)
                0x00003678                __divmodsi4
 .text.libgcc   0x000036ae        0x0 c:/winavr-20100110/bin/../lib/gcc/avr/4.3.3/avr51\libgcc.a(_exit.o)
 .text.libgcc   0x000036ae        0x0 c:/winavr-20100110/bin/../lib/gcc/avr/4.3.3/avr51\libgcc.a(_clear_bss.o)
 .text.avr-libc
                0x000036ae        0xe c:/winavr-20100110/bin/../lib/gcc/avr/4.3.3/../../../../avr/lib/avr51\libc.a(memset.o)
                0x000036ae                memset
 .text.avr-libc
                0x000036bc       0x10 c:/winavr-20100110/bin/../lib/gcc/avr/4.3.3/../../../../avr/lib/avr51\libc.a(eerd_byte_atmega128.o)
                0x000036bc                __eerd_byte_m128
 .text.avr-libc
                0x000036cc       0x1a c:/winavr-20100110/bin/../lib/gcc/avr/4.3.3/../../../../avr/lib/avr51\libc.a(eewr_byte_atmega128.o)
                0x000036ce                __eewr_r18_m128
                0x000036cc                __eewr_byte_m128
                0x000036e6                . = ALIGN (0x2)
 *(.fini9)
 .fini9         0x000036e6        0x0 c:/winavr-20100110/bin/../lib/gcc/avr/4.3.3/avr51\libgcc.a(_exit.o)
                0x000036e6                exit
                0x000036e6                _exit
 *(.fini9)
 *(.fini8)
 *(.fini8)
 *(.fini7)
 *(.fini7)
 *(.fini6)
 *(.fini6)
 *(.fini5)
 *(.fini5)
 *(.fini4)
 *(.fini4)
 *(.fini3)
 *(.fini3)
 *(.fini2)
 *(.fini2)
 *(.fini1)
 *(.fini1)
 *(.fini0)
 .fini0         0x000036e6        0x4 c:/winavr-20100110/bin/../lib/gcc/avr/4.3.3/avr51\libgcc.a(_exit.o)
 *(.fini0)
                0x000036ea                _etext = .

.data           0x00800100       0xd2 load address 0x000036ea
                0x00800100                PROVIDE (__data_start, .)
 *(.data)
 .data          0x00800100        0x0 c:/winavr-20100110/bin/../lib/gcc/avr/4.3.3/../../../../avr/lib/avr51/crtm128.o
 .data          0x00800100        0x0 usbdrv/usbdrvasm.o
 .data          0x00800100        0x0 ./avrlib/timer128.o
 .data          0x00800100        0x2 usbdrv/usbdrv.o
                0x00800100                usbTxLen
 .data          0x00800102        0x0 usbdrv/oddebug.o
 .data          0x00800102        0x0 matrix/matrix.o
 .data          0x00800102       0x10 matrix/keymap.o
                0x00800102                keymap
 .data          0x00800112       0x9a led/led.o
                0x00800112                ledmode
 .data          0x008001ac       0x1f usbmain.o
                0x008001be                hello
                0x008001ac                modifierBitmap
 .data          0x008001cb        0x5 ps2main.o
 .data          0x008001d0        0x0 keysta.o
 .data          0x008001d0        0x1 main.o
                0x008001d0                usbmode
 .data          0x008001d1        0x0 c:/winavr-20100110/bin/../lib/gcc/avr/4.3.3/avr51\libgcc.a(_mulsi3.o)
 .data          0x008001d1        0x0 c:/winavr-20100110/bin/../lib/gcc/avr/4.3.3/avr51\libgcc.a(_udivmodqi4.o)
 .data          0x008001d1        0x0 c:/winavr-20100110/bin/../lib/gcc/avr/4.3.3/avr51\libgcc.a(_udivmodhi4.o)
 .data          0x008001d1        0x0 c:/winavr-20100110/bin/../lib/gcc/avr/4.3.3/avr51\libgcc.a(_divmodhi4.o)
 .data          0x008001d1        0x0 c:/winavr-20100110/bin/../lib/gcc/avr/4.3.3/avr51\libgcc.a(_udivmodsi4.o)
 .data          0x008001d1        0x0 c:/winavr-20100110/bin/../lib/gcc/avr/4.3.3/avr51\libgcc.a(_divmodsi4.o)
 .data          0x008001d1        0x0 c:/winavr-20100110/bin/../lib/gcc/avr/4.3.3/avr51\libgcc.a(_exit.o)
 .data          0x008001d1        0x0 c:/winavr-20100110/bin/../lib/gcc/avr/4.3.3/avr51\libgcc.a(_clear_bss.o)
 .data          0x008001d1        0x0 c:/winavr-20100110/bin/../lib/gcc/avr/4.3.3/../../../../avr/lib/avr51\libc.a(memset.o)
 .data          0x008001d1        0x0 c:/winavr-20100110/bin/../lib/gcc/avr/4.3.3/../../../../avr/lib/avr51\libc.a(eerd_byte_atmega128.o)
 .data          0x008001d1        0x0 c:/winavr-20100110/bin/../lib/gcc/avr/4.3.3/../../../../avr/lib/avr51\libc.a(eewr_byte_atmega128.o)
 *(.data*)
 *(.rodata)
 *(.rodata*)
 *(.gnu.linkonce.d*)
                0x008001d2                . = ALIGN (0x2)
 *fill*         0x008001d1        0x1 00
                0x008001d2                _edata = .
                0x008001d2                PROVIDE (__data_end, .)

.bss            0x008001d2      0x32e
                0x008001d2                PROVIDE (__bss_start, .)
 *(.bss)
 .bss           0x008001d2        0x0 c:/winavr-20100110/bin/../lib/gcc/avr/4.3.3/../../../../avr/lib/avr51/crtm128.o
 .bss           0x008001d2        0x0 usbdrv/usbdrvasm.o
 .bss           0x008001d2       0x1c ./avrlib/timer128.o
 .bss           0x008001ee        0x1 usbdrv/usbdrv.o
 .bss           0x008001ef        0x0 usbdrv/oddebug.o
 .bss           0x008001ef        0x7 matrix/matrix.o
                0x008001f2                kbdsleepmode
                0x008001ef                scankeycntms
                0x008001f1                layer
                0x008001f4                toggle
                0x008001f3                ledPortBackup
 .bss           0x008001f6        0x0 matrix/keymap.o
 .bss           0x008001f6       0x71 led/led.o
                0x008001f6                led_mode
 .bss           0x00800267       0x14 usbmain.o
                0x00800267                interfaceReady
                0x00800269                usbRollOver
                0x00800268                expectReport
 .bss           0x0080027b       0xdf ps2main.o
                0x0080027b                txScanCode
 .bss           0x0080035a        0x4 keysta.o
 .bss           0x0080035e        0x0 main.o
 .bss           0x0080035e        0x0 c:/winavr-20100110/bin/../lib/gcc/avr/4.3.3/avr51\libgcc.a(_mulsi3.o)
 .bss           0x0080035e        0x0 c:/winavr-20100110/bin/../lib/gcc/avr/4.3.3/avr51\libgcc.a(_udivmodqi4.o)
 .bss           0x0080035e        0x0 c:/winavr-20100110/bin/../lib/gcc/avr/4.3.3/avr51\libgcc.a(_udivmodhi4.o)
 .bss           0x0080035e        0x0 c:/winavr-20100110/bin/../lib/gcc/avr/4.3.3/avr51\libgcc.a(_divmodhi4.o)
 .bss           0x0080035e        0x0 c:/winavr-20100110/bin/../lib/gcc/avr/4.3.3/avr51\libgcc.a(_udivmodsi4.o)
 .bss           0x0080035e        0x0 c:/winavr-20100110/bin/../lib/gcc/avr/4.3.3/avr51\libgcc.a(_divmodsi4.o)
 .bss           0x0080035e        0x0 c:/winavr-20100110/bin/../lib/gcc/avr/4.3.3/avr51\libgcc.a(_exit.o)
 .bss           0x0080035e        0x0 c:/winavr-20100110/bin/../lib/gcc/avr/4.3.3/avr51\libgcc.a(_clear_bss.o)
 .bss           0x0080035e        0x0 c:/winavr-20100110/bin/../lib/gcc/avr/4.3.3/../../../../avr/lib/avr51\libc.a(memset.o)
 .bss           0x0080035e        0x0 c:/winavr-20100110/bin/../lib/gcc/avr/4.3.3/../../../../avr/lib/avr51\libc.a(eerd_byte_atmega128.o)
 .bss           0x0080035e        0x0 c:/winavr-20100110/bin/../lib/gcc/avr/4.3.3/../../../../avr/lib/avr51\libc.a(eewr_byte_atmega128.o)
 *(.bss*)
 *(COMMON)
 COMMON         0x0080035e       0x14 ./avrlib/timer128.o
                0x0080035e                Timer0Reg0
                0x00800362                Timer2Reg1
                0x00800366                TimerPauseReg
                0x0080036a                Timer2Reg0
                0x0080036e                Timer0Reg1
 COMMON         0x00800372       0x42 usbdrv/usbdrv.o
                0x00800372                usbTxBuf
                0x0080037d                usbTxStatus1
                0x00800389                usbDeviceAddr
                0x0080038a                usbRxToken
                0x0080038b                usbInputBufOffset
                0x0080038c                usbMsgPtr
                0x0080038e                usbRxLen
                0x0080038f                usbNewDeviceAddr
                0x00800390                usbCurrentTok
                0x00800391                usbConfiguration
                0x00800392                usbRxBuf
                0x008003a8                usbTxStatus3
 COMMON         0x008003b4       0x91 matrix/matrix.o
                0x008003b4                svkeyidx
                0x00800420                MATRIX
                0x00800432                curMATRIX
                0x00800444                matrixFN
 COMMON         0x00800445       0xac matrix/keymap.o
                0x00800445                KFLA
 COMMON         0x008004f1        0x2 led/led.o
                0x008004f1                LEDstate
                0x008004f2                ledmodeIndex
 COMMON         0x008004f3        0x8 usbmain.o
                0x008004f3                extraReportUpdate
                0x008004f4                extraReport
                0x008004f7                oldextraReport
                0x008004fa                reportIndex
 COMMON         0x008004fb        0x3 ps2main.o
                0x008004fb                lastState
                0x008004fc                lastSent
                0x008004fd                m_state
 COMMON         0x008004fe        0x2 keysta.o
                0x008004fe                kbd_state
                0x008004ff                kbd_flags
                0x00800500                PROVIDE (__bss_end, .)
                0x000036ea                __data_load_start = LOADADDR (.data)
                0x000037bc                __data_load_end = (__data_load_start + SIZEOF (.data))

.noinit         0x00800500        0x0
                0x00800500                PROVIDE (__noinit_start, .)
 *(.noinit*)
                0x00800500                PROVIDE (__noinit_end, .)
                0x00800500                _end = .
                0x00800500                PROVIDE (__heap_start, .)

.eeprom         0x00810000        0x0
 *(.eeprom*)
                0x00810000                __eeprom_end = .

.fuse
 *(.fuse)
 *(.lfuse)
 *(.hfuse)
 *(.efuse)

.lock
 *(.lock*)

.signature
 *(.signature*)

.stab
 *(.stab)

.stabstr
 *(.stabstr)

.stab.excl
 *(.stab.excl)

.stab.exclstr
 *(.stab.exclstr)

.stab.index
 *(.stab.index)

.stab.indexstr
 *(.stab.indexstr)

.comment
 *(.comment)

.debug
 *(.debug)

.line
 *(.line)

.debug_srcinfo
 *(.debug_srcinfo)

.debug_sfnames
 *(.debug_sfnames)

.debug_aranges  0x00000000      0x100
 *(.debug_aranges)
 .debug_aranges
                0x00000000       0x20 ./avrlib/timer128.o
 .debug_aranges
                0x00000020       0x20 usbdrv/usbdrv.o
 .debug_aranges
                0x00000040       0x20 matrix/matrix.o
 .debug_aranges
                0x00000060       0x20 led/led.o
 .debug_aranges
                0x00000080       0x20 usbmain.o
 .debug_aranges
                0x000000a0       0x20 ps2main.o
 .debug_aranges
                0x000000c0       0x20 keysta.o
 .debug_aranges
                0x000000e0       0x20 main.o

.debug_pubnames
                0x00000000      0xccb
 *(.debug_pubnames)
 .debug_pubnames
                0x00000000      0x526 ./avrlib/timer128.o
 .debug_pubnames
                0x00000526      0x197 usbdrv/usbdrv.o
 .debug_pubnames
                0x000006bd       0xc9 matrix/matrix.o
 .debug_pubnames
                0x00000786       0xca matrix/keymap.o
 .debug_pubnames
                0x00000850      0x10f led/led.o
 .debug_pubnames
                0x0000095f      0x1f9 usbmain.o
 .debug_pubnames
                0x00000b58       0xaf ps2main.o
 .debug_pubnames
                0x00000c07       0x5e keysta.o
 .debug_pubnames
                0x00000c65       0x66 main.o

.debug_info     0x00000000     0x47f8
 *(.debug_info)
 .debug_info    0x00000000      0xbe8 ./avrlib/timer128.o
 .debug_info    0x00000be8      0x8f2 usbdrv/usbdrv.o
 .debug_info    0x000014da       0x64 usbdrv/oddebug.o
 .debug_info    0x0000153e      0xd85 matrix/matrix.o
 .debug_info    0x000022c3      0x1b9 matrix/keymap.o
 .debug_info    0x0000247c      0x636 led/led.o
 .debug_info    0x00002ab2      0xe24 usbmain.o
 .debug_info    0x000038d6      0x9a5 ps2main.o
 .debug_info    0x0000427b      0x32b keysta.o
 .debug_info    0x000045a6      0x252 main.o
 *(.gnu.linkonce.wi.*)

.debug_abbrev   0x00000000     0x10b8
 *(.debug_abbrev)
 .debug_abbrev  0x00000000      0x282 ./avrlib/timer128.o
 .debug_abbrev  0x00000282      0x289 usbdrv/usbdrv.o
 .debug_abbrev  0x0000050b       0x33 usbdrv/oddebug.o
 .debug_abbrev  0x0000053e      0x248 matrix/matrix.o
 .debug_abbrev  0x00000786       0x73 matrix/keymap.o
 .debug_abbrev  0x000007f9      0x199 led/led.o
 .debug_abbrev  0x00000992      0x336 usbmain.o
 .debug_abbrev  0x00000cc8      0x1c9 ps2main.o
 .debug_abbrev  0x00000e91       0xe8 keysta.o
 .debug_abbrev  0x00000f79      0x13f main.o

.debug_line     0x00000000     0x2e0a
 *(.debug_line)
 .debug_line    0x00000000      0xb1e ./avrlib/timer128.o
 .debug_line    0x00000b1e      0x418 usbdrv/usbdrv.o
 .debug_line    0x00000f36       0x3e usbdrv/oddebug.o
 .debug_line    0x00000f74      0x49a matrix/matrix.o
 .debug_line    0x0000140e       0x8a matrix/keymap.o
 .debug_line    0x00001498      0x6f0 led/led.o
 .debug_line    0x00001b88      0x63a usbmain.o
 .debug_line    0x000021c2      0x5c5 ps2main.o
 .debug_line    0x00002787      0x3cb keysta.o
 .debug_line    0x00002b52      0x2b8 main.o

.debug_frame    0x00000000      0x7d0
 *(.debug_frame)
 .debug_frame   0x00000000      0x410 ./avrlib/timer128.o
 .debug_frame   0x00000410       0x60 usbdrv/usbdrv.o
 .debug_frame   0x00000470       0x50 matrix/matrix.o
 .debug_frame   0x000004c0       0xd0 led/led.o
 .debug_frame   0x00000590       0xf0 usbmain.o
 .debug_frame   0x00000680       0xa0 ps2main.o
 .debug_frame   0x00000720       0x50 keysta.o
 .debug_frame   0x00000770       0x60 main.o

.debug_str      0x00000000     0x1acd
 *(.debug_str)
 .debug_str     0x00000000      0x529 ./avrlib/timer128.o
                                0x56b (size before relaxing)
 .debug_str     0x00000529      0x348 usbdrv/usbdrv.o
                                0x41f (size before relaxing)
 .debug_str     0x00000871       0x11 usbdrv/oddebug.o
                                 0xa6 (size before relaxing)
 .debug_str     0x00000882      0xb3f matrix/matrix.o
                                0xc44 (size before relaxing)
 .debug_str     0x000013c1       0x24 matrix/keymap.o
                                0x141 (size before relaxing)
 .debug_str     0x000013e5      0x120 led/led.o
                                0x401 (size before relaxing)
 .debug_str     0x00001505      0x2b0 usbmain.o
                                0xc71 (size before relaxing)
 .debug_str     0x000017b5      0x11e ps2main.o
                                0x9f9 (size before relaxing)
 .debug_str     0x000018d3      0x1b8 keysta.o
                                0x279 (size before relaxing)
 .debug_str     0x00001a8b       0x42 main.o
                                0x18e (size before relaxing)

.debug_loc      0x00000000     0x140a
 *(.debug_loc)
 .debug_loc     0x00000000      0x200 ./avrlib/timer128.o
 .debug_loc     0x00000200      0x3f0 usbdrv/usbdrv.o
 .debug_loc     0x000005f0      0x3ce matrix/matrix.o
 .debug_loc     0x000009be      0x429 led/led.o
 .debug_loc     0x00000de7      0x374 usbmain.o
 .debug_loc     0x0000115b      0x26b ps2main.o
 .debug_loc     0x000013c6       0x13 keysta.o
 .debug_loc     0x000013d9       0x31 main.o

.debug_macinfo
 *(.debug_macinfo)
OUTPUT(kbdmodmx.elf elf32-avr)
LOAD linker stubs

.debug_ranges   0x00000000       0x98
 .debug_ranges  0x00000000       0x50 usbdrv/usbdrv.o
 .debug_ranges  0x00000050       0x48 matrix/matrix.o

Cross Reference Table

Symbol                                            File
DPpullEn                                          main.o
KFLA                                              ps2main.o
                                                  matrix/keymap.o
                                                  matrix/matrix.o
LEDstate                                          ps2main.o
                                                  usbmain.o
                                                  led/led.o
MATRIX                                            ps2main.o
                                                  matrix/matrix.o
Timer0Reg0                                        ./avrlib/timer128.o
Timer0Reg1                                        ./avrlib/timer128.o
Timer2Reg0                                        ./avrlib/timer128.o
Timer2Reg1                                        ./avrlib/timer128.o
TimerPauseReg                                     ./avrlib/timer128.o
TimerPrescaleFactor                               ./avrlib/timer128.o
TimerRTCPrescaleFactor                            ./avrlib/timer128.o
__bad_interrupt                                   c:/winavr-20100110/bin/../lib/gcc/avr/4.3.3/../../../../avr/lib/avr51/crtm128.o
__bss_end                                         c:/winavr-20100110/bin/../lib/gcc/avr/4.3.3/avr51\libgcc.a(_clear_bss.o)
__bss_start                                       c:/winavr-20100110/bin/../lib/gcc/avr/4.3.3/avr51\libgcc.a(_clear_bss.o)
__data_end                                        c:/winavr-20100110/bin/../lib/gcc/avr/4.3.3/../../../../avr/lib/avr51/crtm128.o
__data_load_start                                 c:/winavr-20100110/bin/../lib/gcc/avr/4.3.3/../../../../avr/lib/avr51/crtm128.o
__data_start                                      c:/winavr-20100110/bin/../lib/gcc/avr/4.3.3/../../../../avr/lib/avr51/crtm128.o
__divmodhi4                                       c:/winavr-20100110/bin/../lib/gcc/avr/4.3.3/avr51\libgcc.a(_divmodhi4.o)
                                                  ps2main.o
                                                  led/led.o
__divmodsi4                                       c:/winavr-20100110/bin/../lib/gcc/avr/4.3.3/avr51\libgcc.a(_divmodsi4.o)
                                                  ps2main.o
__do_clear_bss                                    c:/winavr-20100110/bin/../lib/gcc/avr/4.3.3/avr51\libgcc.a(_clear_bss.o)
                                                  keysta.o
                                                  ps2main.o
                                                  usbmain.o
                                                  led/led.o
                                                  matrix/keymap.o
                                                  matrix/matrix.o
                                                  usbdrv/usbdrv.o
                                                  ./avrlib/timer128.o
__do_copy_data                                    c:/winavr-20100110/bin/../lib/gcc/avr/4.3.3/../../../../avr/lib/avr51/crtm128.o
                                                  main.o
                                                  ps2main.o
                                                  usbmain.o
                                                  led/led.o
                                                  matrix/keymap.o
                                                  usbdrv/usbdrv.o
__eerd_byte_m128                                  c:/winavr-20100110/bin/../lib/gcc/avr/4.3.3/../../../../avr/lib/avr51\libc.a(eerd_byte_atmega128.o)
                                                  main.o
                                                  led/led.o
                                                  matrix/matrix.o
__eewr_byte_m128                                  c:/winavr-20100110/bin/../lib/gcc/avr/4.3.3/../../../../avr/lib/avr51\libc.a(eewr_byte_atmega128.o)
                                                  main.o
                                                  led/led.o
                                                  matrix/matrix.o
__eewr_r18_m128                                   c:/winavr-20100110/bin/../lib/gcc/avr/4.3.3/../../../../avr/lib/avr51\libc.a(eewr_byte_atmega128.o)
__heap_end                                        c:/winavr-20100110/bin/../lib/gcc/avr/4.3.3/../../../../avr/lib/avr51/crtm128.o
__init                                            c:/winavr-20100110/bin/../lib/gcc/avr/4.3.3/../../../../avr/lib/avr51/crtm128.o
__mulsi3                                          c:/winavr-20100110/bin/../lib/gcc/avr/4.3.3/avr51\libgcc.a(_mulsi3.o)
                                                  ps2main.o
                                                  ./avrlib/timer128.o
__stack                                           c:/winavr-20100110/bin/../lib/gcc/avr/4.3.3/../../../../avr/lib/avr51/crtm128.o
__udivmodhi4                                      c:/winavr-20100110/bin/../lib/gcc/avr/4.3.3/avr51\libgcc.a(_udivmodhi4.o)
                                                  c:/winavr-20100110/bin/../lib/gcc/avr/4.3.3/avr51\libgcc.a(_divmodhi4.o)
                                                  led/led.o
__udivmodqi4                                      c:/winavr-20100110/bin/../lib/gcc/avr/4.3.3/avr51\libgcc.a(_udivmodqi4.o)
                                                  ps2main.o
__udivmodsi4                                      c:/winavr-20100110/bin/../lib/gcc/avr/4.3.3/avr51\libgcc.a(_udivmodsi4.o)
                                                  c:/winavr-20100110/bin/../lib/gcc/avr/4.3.3/avr51\libgcc.a(_divmodsi4.o)
                                                  led/led.o
                                                  ./avrlib/timer128.o
__vector_1                                        usbdrv/usbdrvasm.o
                                                  c:/winavr-20100110/bin/../lib/gcc/avr/4.3.3/../../../../avr/lib/avr51/crtm128.o
__vector_10                                       ./avrlib/timer128.o
                                                  c:/winavr-20100110/bin/../lib/gcc/avr/4.3.3/../../../../avr/lib/avr51/crtm128.o
__vector_11                                       ./avrlib/timer128.o
                                                  c:/winavr-20100110/bin/../lib/gcc/avr/4.3.3/../../../../avr/lib/avr51/crtm128.o
__vector_12                                       ./avrlib/timer128.o
                                                  c:/winavr-20100110/bin/../lib/gcc/avr/4.3.3/../../../../avr/lib/avr51/crtm128.o
__vector_13                                       ./avrlib/timer128.o
                                                  c:/winavr-20100110/bin/../lib/gcc/avr/4.3.3/../../../../avr/lib/avr51/crtm128.o
__vector_14                                       ./avrlib/timer128.o
                                                  c:/winavr-20100110/bin/../lib/gcc/avr/4.3.3/../../../../avr/lib/avr51/crtm128.o
__vector_15                                       ./avrlib/timer128.o
                                                  c:/winavr-20100110/bin/../lib/gcc/avr/4.3.3/../../../../avr/lib/avr51/crtm128.o
__vector_16                                       ./avrlib/timer128.o
                                                  c:/winavr-20100110/bin/../lib/gcc/avr/4.3.3/../../../../avr/lib/avr51/crtm128.o
__vector_17                                       c:/winavr-20100110/bin/../lib/gcc/avr/4.3.3/../../../../avr/lib/avr51/crtm128.o
__vector_18                                       c:/winavr-20100110/bin/../lib/gcc/avr/4.3.3/../../../../avr/lib/avr51/crtm128.o
__vector_19                                       c:/winavr-20100110/bin/../lib/gcc/avr/4.3.3/../../../../avr/lib/avr51/crtm128.o
__vector_2                                        c:/winavr-20100110/bin/../lib/gcc/avr/4.3.3/../../../../avr/lib/avr51/crtm128.o
__vector_20                                       c:/winavr-20100110/bin/../lib/gcc/avr/4.3.3/../../../../avr/lib/avr51/crtm128.o
__vector_21                                       c:/winavr-20100110/bin/../lib/gcc/avr/4.3.3/../../../../avr/lib/avr51/crtm128.o
__vector_22                                       c:/winavr-20100110/bin/../lib/gcc/avr/4.3.3/../../../../avr/lib/avr51/crtm128.o
__vector_23                                       c:/winavr-20100110/bin/../lib/gcc/avr/4.3.3/../../../../avr/lib/avr51/crtm128.o
__vector_24                                       ./avrlib/timer128.o
                                                  c:/winavr-20100110/bin/../lib/gcc/avr/4.3.3/../../../../avr/lib/avr51/crtm128.o
__vector_25                                       ./avrlib/timer128.o
                                                  c:/winavr-20100110/bin/../lib/gcc/avr/4.3.3/../../../../avr/lib/avr51/crtm128.o
__vector_26                                       ./avrlib/timer128.o
                                                  c:/winavr-20100110/bin/../lib/gcc/avr/4.3.3/../../../../avr/lib/avr51/crtm128.o
__vector_27                                       ./avrlib/timer128.o
                                                  c:/winavr-20100110/bin/../lib/gcc/avr/4.3.3/../../../../avr/lib/avr51/crtm128.o
__vector_28                                       ./avrlib/timer128.o
                                                  c:/winavr-20100110/bin/../lib/gcc/avr/4.3.3/../../../../avr/lib/avr51/crtm128.o
__vector_29                                       ./avrlib/timer128.o
                                                  c:/winavr-20100110/bin/../lib/gcc/avr/4.3.3/../../../../avr/lib/avr51/crtm128.o
__vector_3                                        c:/winavr-20100110/bin/../lib/gcc/avr/4.3.3/../../../../avr/lib/avr51/crtm128.o
__vector_30                                       c:/winavr-20100110/bin/../lib/gcc/avr/4.3.3/../../../../avr/lib/avr51/crtm128.o
__vector_31                                       c:/winavr-20100110/bin/../lib/gcc/avr/4.3.3/../../../../avr/lib/avr51/crtm128.o
__vector_32                                       c:/winavr-20100110/bin/../lib/gcc/avr/4.3.3/../../../../avr/lib/avr51/crtm128.o
__vector_33                                       c:/winavr-20100110/bin/../lib/gcc/avr/4.3.3/../../../../avr/lib/avr51/crtm128.o
__vector_34                                       c:/winavr-20100110/bin/../lib/gcc/avr/4.3.3/../../../../avr/lib/avr51/crtm128.o
__vector_4                                        c:/winavr-20100110/bin/../lib/gcc/avr/4.3.3/../../../../avr/lib/avr51/crtm128.o
__vector_5                                        c:/winavr-20100110/bin/../lib/gcc/avr/4.3.3/../../../../avr/lib/avr51/crtm128.o
__vector_6                                        c:/winavr-20100110/bin/../lib/gcc/avr/4.3.3/../../../../avr/lib/avr51/crtm128.o
__vector_7                                        c:/winavr-20100110/bin/../lib/gcc/avr/4.3.3/../../../../avr/lib/avr51/crtm128.o
__vector_8                                        c:/winavr-20100110/bin/../lib/gcc/avr/4.3.3/../../../../avr/lib/avr51/crtm128.o
__vector_9                                        ./avrlib/timer128.o
                                                  c:/winavr-20100110/bin/../lib/gcc/avr/4.3.3/../../../../avr/lib/avr51/crtm128.o
__vector_default                                  c:/winavr-20100110/bin/../lib/gcc/avr/4.3.3/../../../../avr/lib/avr51/crtm128.o
__vectors                                         c:/winavr-20100110/bin/../lib/gcc/avr/4.3.3/../../../../avr/lib/avr51/crtm128.o
_div                                              c:/winavr-20100110/bin/../lib/gcc/avr/4.3.3/avr51\libgcc.a(_divmodhi4.o)
_exit                                             c:/winavr-20100110/bin/../lib/gcc/avr/4.3.3/avr51\libgcc.a(_exit.o)
bufcmp                                            usbmain.o
buildHIDreports                                   usbmain.o
                                                  matrix/matrix.o
charToKey                                         usbmain.o
checkInterface                                    main.o
clear                                             ps2main.o
clearReportBuffer                                 usbmain.o
                                                  matrix/matrix.o
cmpReportBuffer                                   usbmain.o
curMATRIX                                         matrix/matrix.o
delay_us                                          ./avrlib/timer128.o
enable_printf                                     main.o
exit                                              c:/winavr-20100110/bin/../lib/gcc/avr/4.3.3/avr51\libgcc.a(_exit.o)
                                                  c:/winavr-20100110/bin/../lib/gcc/avr/4.3.3/../../../../avr/lib/avr51/crtm128.o
expectReport                                      usbmain.o
extraReport                                       usbmain.o
extraReportUpdate                                 usbmain.o
getLayer                                          matrix/matrix.o
hello                                             usbmain.o
interfaceReady                                    usbmain.o
isEmpty                                           ps2main.o
kbd_flags                                         keysta.o
                                                  ps2main.o
kbd_get_rx_char                                   keysta.o
                                                  ps2main.o
kbd_init                                          keysta.o
                                                  ps2main.o
kbd_set_tx                                        keysta.o
                                                  ps2main.o
kbd_state                                         keysta.o
kbdsleepmode                                      matrix/matrix.o
                                                  led/led.o
keyboard_hid_report                               usbmain.o
keycode_set2                                      matrix/keymap.o
                                                  ps2main.o
keycode_set2_extend                               matrix/keymap.o
                                                  matrix/matrix.o
keycode_set2_make_break                           matrix/keymap.o
                                                  matrix/matrix.o
keycode_set2_makeonly                             matrix/keymap.o
                                                  matrix/matrix.o
keycode_set2_proc_shift                           matrix/keymap.o
                                                  matrix/matrix.o
keycode_set2_special                              matrix/keymap.o
                                                  matrix/matrix.o
keymap                                            matrix/keymap.o
keymap_code                                       matrix/keymap.o
                                                  matrix/matrix.o
keymap_init                                       matrix/matrix.o
                                                  main.o
lastSent                                          ps2main.o
lastState                                         ps2main.o
layer                                             matrix/matrix.o
ledPortBackup                                     matrix/matrix.o
led_3lockupdate                                   led/led.o
                                                  ps2main.o
                                                  usbmain.o
led_blink                                         led/led.o
                                                  matrix/matrix.o
led_check                                         led/led.o
                                                  main.o
                                                  ps2main.o
led_fader                                         led/led.o
                                                  matrix/matrix.o
led_mode                                          led/led.o
led_mode_change                                   led/led.o
                                                  matrix/matrix.o
led_mode_init                                     led/led.o
                                                  main.o
                                                  ps2main.o
led_off                                           led/led.o
led_on                                            led/led.o
led_pushed_level_cal                              led/led.o
                                                  matrix/matrix.o
led_wave_off                                      led/led.o
led_wave_on                                       led/led.o
led_wave_set                                      led/led.o
ledmode                                           led/led.o
                                                  matrix/matrix.o
ledmodeIndex                                      led/led.o
                                                  matrix/matrix.o
m_state                                           ps2main.o
main                                              main.o
                                                  c:/winavr-20100110/bin/../lib/gcc/avr/4.3.3/../../../../avr/lib/avr51/crtm128.o
matrixFN                                          matrix/matrix.o
memset                                            c:/winavr-20100110/bin/../lib/gcc/avr/4.3.3/../../../../avr/lib/avr51\libc.a(memset.o)
                                                  usbmain.o
modifierBitmap                                    usbmain.o
mouse_hid_report                                  usbmain.o
oldextraReport                                    usbmain.o
pop                                               ps2main.o
portInit                                          main.o
processFNkeys                                     matrix/matrix.o
processRX                                         ps2main.o
processTX                                         ps2main.o
ps2main                                           ps2main.o
                                                  main.o
push                                              ps2main.o
putKey                                            ps2main.o
                                                  matrix/matrix.o
reportIndex                                       usbmain.o
restoreReportBuffer                               usbmain.o
saveReportBuffer                                  usbmain.o
scankey                                           matrix/matrix.o
                                                  ps2main.o
                                                  usbmain.o
scankeycntms                                      matrix/matrix.o
                                                  led/led.o
sendKey                                           usbmain.o
sendString                                        usbmain.o
svkeyidx                                          matrix/matrix.o
timer0ClearOverflowCount                          ./avrlib/timer128.o
timer0GetOverflowCount                            ./avrlib/timer128.o
timer0GetPrescaler                                ./avrlib/timer128.o
timer0Init                                        ./avrlib/timer128.o
timer0PWMInit                                     ./avrlib/timer128.o
                                                  main.o
timer0PWMOff                                      ./avrlib/timer128.o
                                                  led/led.o
timer0PWMOn                                       ./avrlib/timer128.o
                                                  led/led.o
timer0PWMSet                                      ./avrlib/timer128.o
                                                  led/led.o
timer0SetPrescaler                                ./avrlib/timer128.o
timer1GetPrescaler                                ./avrlib/timer128.o
timer1Init                                        ./avrlib/timer128.o
timer1PWMAOff                                     ./avrlib/timer128.o
                                                  led/led.o
timer1PWMAOn                                      ./avrlib/timer128.o
                                                  led/led.o
timer1PWMASet                                     ./avrlib/timer128.o
                                                  led/led.o
timer1PWMBOff                                     ./avrlib/timer128.o
                                                  led/led.o
timer1PWMBOn                                      ./avrlib/timer128.o
                                                  led/led.o
timer1PWMBSet                                     ./avrlib/timer128.o
                                                  led/led.o
timer1PWMCOff                                     ./avrlib/timer128.o
                                                  led/led.o
timer1PWMCOn                                      ./avrlib/timer128.o
                                                  led/led.o
timer1PWMCSet                                     ./avrlib/timer128.o
                                                  led/led.o
timer1PWMInit                                     ./avrlib/timer128.o
                                                  main.o
timer1PWMInitICR                                  ./avrlib/timer128.o
timer1PWMOff                                      ./avrlib/timer128.o
timer1SetPrescaler                                ./avrlib/timer128.o
timer2ClearOverflowCount                          ./avrlib/timer128.o
timer2GetOverflowCount                            ./avrlib/timer128.o
timer2GetPrescaler                                ./avrlib/timer128.o
timer2Init                                        ./avrlib/timer128.o
                                                  keysta.o
timer2IntEnable                                   ./avrlib/timer128.o
                                                  main.o
timer2SetPrescaler                                ./avrlib/timer128.o
                                                  keysta.o
timer3GetPrescaler                                ./avrlib/timer128.o
timer3Init                                        ./avrlib/timer128.o
timer3PWMAOff                                     ./avrlib/timer128.o
                                                  led/led.o
timer3PWMAOn                                      ./avrlib/timer128.o
                                                  led/led.o
timer3PWMASet                                     ./avrlib/timer128.o
                                                  led/led.o
timer3PWMBOff                                     ./avrlib/timer128.o
                                                  led/led.o
timer3PWMBOn                                      ./avrlib/timer128.o
                                                  led/led.o
timer3PWMBSet                                     ./avrlib/timer128.o
                                                  led/led.o
timer3PWMCOff                                     ./avrlib/timer128.o
                                                  led/led.o
timer3PWMCOn                                      ./avrlib/timer128.o
                                                  led/led.o
timer3PWMCSet                                     ./avrlib/timer128.o
                                                  led/led.o
timer3PWMInit                                     ./avrlib/timer128.o
                                                  main.o
timer3PWMInitICR                                  ./avrlib/timer128.o
timer3PWMOff                                      ./avrlib/timer128.o
timer3SetPrescaler                                ./avrlib/timer128.o
timerAttach                                       ./avrlib/timer128.o
                                                  keysta.o
timerDetach                                       ./avrlib/timer128.o
timerInit                                         ./avrlib/timer128.o
                                                  main.o
timerPause                                        ./avrlib/timer128.o
toggle                                            matrix/matrix.o
txScanCode                                        ps2main.o
tx_state                                          ps2main.o
usbConfiguration                                  usbdrv/usbdrv.o
usbCrc16                                          usbdrv/usbdrvasm.o
usbCrc16Append                                    usbdrv/usbdrvasm.o
                                                  usbdrv/usbdrv.o
usbCurrentTok                                     usbdrv/usbdrv.o
                                                  usbdrv/usbdrvasm.o
usbDescriptorConfiguration                        usbmain.o
usbDescriptorDevice                               usbdrv/usbdrv.o
usbDescriptorString0                              usbdrv/usbdrv.o
usbDescriptorStringDevice                         usbdrv/usbdrv.o
usbDescriptorStringVendor                         usbdrv/usbdrv.o
usbDeviceAddr                                     usbdrv/usbdrv.o
                                                  usbdrv/usbdrvasm.o
usbFunctionDescriptor                             usbmain.o
                                                  usbdrv/usbdrv.o
usbFunctionSetup                                  usbmain.o
                                                  usbdrv/usbdrv.o
usbFunctionWrite                                  usbmain.o
                                                  usbdrv/usbdrv.o
usbInit                                           usbdrv/usbdrv.o
                                                  usbmain.o
usbInputBufOffset                                 usbdrv/usbdrv.o
                                                  usbdrv/usbdrvasm.o
usbMsgPtr                                         usbmain.o
                                                  usbdrv/usbdrv.o
usbNewDeviceAddr                                  usbdrv/usbdrv.o
                                                  usbdrv/usbdrvasm.o
usbPoll                                           usbdrv/usbdrv.o
                                                  usbmain.o
usbRollOver                                       usbmain.o
usbRxBuf                                          usbdrv/usbdrv.o
                                                  usbdrv/usbdrvasm.o
usbRxLen                                          usbdrv/usbdrv.o
                                                  usbdrv/usbdrvasm.o
usbRxToken                                        usbdrv/usbdrv.o
                                                  usbdrv/usbdrvasm.o
usbSendReport                                     usbmain.o
usbSetInterrupt                                   usbdrv/usbdrv.o
                                                  usbmain.o
usbSetInterrupt3                                  usbdrv/usbdrv.o
                                                  usbmain.o
usbTxBuf                                          usbdrv/usbdrv.o
                                                  usbdrv/usbdrvasm.o
usbTxLen                                          usbdrv/usbdrv.o
                                                  usbdrv/usbdrvasm.o
usbTxStatus1                                      usbmain.o
                                                  usbdrv/usbdrv.o
                                                  usbdrv/usbdrvasm.o
usbTxStatus3                                      usbmain.o
                                                  usbdrv/usbdrv.o
                                                  usbdrv/usbdrvasm.o
usbmain                                           usbmain.o
                                                  main.o
usbmode                                           main.o
                                                  matrix/matrix.o
