GAS LISTING C:\Users\ADMINI~1\AppData\Local\Temp/ccyD62cU.s 			page 1


   1               		.file	"main.c"
   2               	__SREG__ = 0x3f
   3               	__SP_H__ = 0x3e
   4               	__SP_L__ = 0x3d
   5               	__CCP__  = 0x34
   6               	__tmp_reg__ = 0
   7               	__zero_reg__ = 1
   8               		.section	.debug_abbrev,"",@progbits
   9               	.Ldebug_abbrev0:
  10               		.section	.debug_info,"",@progbits
  11               	.Ldebug_info0:
  12               		.section	.debug_line,"",@progbits
  13               	.Ldebug_line0:
  14               		.text
  15               	.Ltext0:
  16               	.global	enable_printf
  17               		.type	enable_printf, @function
  18               	enable_printf:
  19               	.LFB7:
  20               	.LM1:
  21               	/* prologue: function */
  22               	/* frame size = 0 */
  23               	/* epilogue start */
  24               	.LM2:
  25 0000 0895      		ret
  26               	.LFE7:
  27               		.size	enable_printf, .-enable_printf
  28               	.global	DPpullEn
  29               		.type	DPpullEn, @function
  30               	DPpullEn:
  31               	.LFB8:
  32               	.LM3:
  33               	.LVL0:
  34               	/* prologue: function */
  35               	/* frame size = 0 */
  36               	.LM4:
  37 0002 8823      		tst r24
  38 0004 01F0      		breq .L4
  39               	.LM5:
  40 0006 969A      		sbi 50-32,6
  41               	.LM6:
  42 0008 8E98      		cbi 49-32,6
  43               	.LM7:
  44 000a 8F9A      		sbi 49-32,7
  45               	.LM8:
  46 000c 9798      		cbi 50-32,7
  47 000e 0895      		ret
  48               	.L4:
  49               	.LM9:
  50 0010 8E9A      		sbi 49-32,6
  51               	.LM10:
  52 0012 9698      		cbi 50-32,6
  53               	.LM11:
  54 0014 979A      		sbi 50-32,7
  55               	.LM12:
  56 0016 8F98      		cbi 49-32,7
  57 0018 0895      		ret
GAS LISTING C:\Users\ADMINI~1\AppData\Local\Temp/ccyD62cU.s 			page 2


  58               	.LFE8:
  59               		.size	DPpullEn, .-DPpullEn
  60               	.global	portInit
  61               		.type	portInit, @function
  62               	portInit:
  63               	.LFB9:
  64               	.LM13:
  65               	/* prologue: function */
  66               	/* frame size = 0 */
  67               	.LM14:
  68 001a 8FEF      		ldi r24,lo8(-1)
  69 001c 8BBB      		out 59-32,r24
  70               	.LM15:
  71 001e 85BB      		out 53-32,r24
  72               	.LM16:
  73 0020 8093 6200 		sts 98,r24
  74               	.LM17:
  75 0024 8093 6500 		sts 101,r24
  76               	.LM18:
  77 0028 1ABA      		out 58-32,__zero_reg__
  78               	.LM19:
  79 002a 14BA      		out 52-32,__zero_reg__
  80               	.LM20:
  81 002c 1092 6100 		sts 97,__zero_reg__
  82               	.LM21:
  83 0030 1092 6400 		sts 100,__zero_reg__
  84               	.LM22:
  85 0034 8FE0      		ldi r24,lo8(15)
  86 0036 88BB      		out 56-32,r24
  87               	.LM23:
  88 0038 80EF      		ldi r24,lo8(-16)
  89 003a 87BB      		out 55-32,r24
  90               	.LM24:
  91 003c 87EC      		ldi r24,lo8(-57)
  92 003e 83B9      		out 35-32,r24
  93               	.LM25:
  94 0040 88E3      		ldi r24,lo8(56)
  95 0042 82B9      		out 34-32,r24
  96               	.LM26:
  97 0044 80E4      		ldi r24,lo8(64)
  98 0046 82BB      		out 50-32,r24
  99               	.LM27:
 100 0048 8CEB      		ldi r24,lo8(-68)
 101 004a 81BB      		out 49-32,r24
 102               	.LM28:
 103 004c 80E0      		ldi r24,lo8(0)
 104 004e 90E0      		ldi r25,hi8(0)
 105               	/* epilogue start */
 106 0050 0895      		ret
 107               	.LFE9:
 108               		.size	portInit, .-portInit
 109               	.global	checkInterface
 110               		.type	checkInterface, @function
 111               	checkInterface:
 112               	.LFB10:
 113               	.LM29:
 114               	/* prologue: function */
GAS LISTING C:\Users\ADMINI~1\AppData\Local\Temp/ccyD62cU.s 			page 3


 115               	/* frame size = 0 */
 116               	.LM30:
 117 0052 84E0      		ldi r24,lo8(4)
 118 0054 8ABB      		out 58-32,r24
 119               	.LM31:
 120 0056 8BEF      		ldi r24,lo8(-5)
 121 0058 8BBB      		out 59-32,r24
 122               	.LBB26:
 123               	.LBB27:
 124               	.LBB28:
 125               	.LBB29:
 126               	.LM32:
 127 005a 88E2      		ldi r24,lo8(40)
 128               	.LVL1:
 129               	/* #APP */
 130               	 ;  83 "c:/winavr-20100110/lib/gcc/../../avr/include/util/delay_basic.h" 1
 131 005c 8A95      		1: dec r24
 132 005e 01F4      		brne 1b
 133               	 ;  0 "" 2
 134               	/* #NOAPP */
 135               	.LBE29:
 136               	.LBE28:
 137               	.LBE27:
 138               	.LBE26:
 139               	.LM33:
 140 0060 8091 6300 		lds r24,99
 141               	.LVL2:
 142               	.LM34:
 143 0064 83B3      		in r24,51-32
 144               	.LM35:
 145 0066 90B1      		in r25,32-32
 146               	.LM36:
 147 0068 8095      		com r24
 148 006a 85FF      		sbrs r24,5
 149 006c 00C0      		rjmp .L10
 150               	.LM37:
 151 006e 8CE0      		ldi r24,lo8(12)
 152 0070 90E0      		ldi r25,hi8(12)
 153 0072 61E0      		ldi r22,lo8(1)
 154 0074 0E94 0000 		call __eewr_byte_m128
 155 0078 81E0      		ldi r24,lo8(1)
 156               	.LVL3:
 157 007a 0895      		ret
 158               	.LVL4:
 159               	.L10:
 160               	.LM38:
 161 007c 892F      		mov r24,r25
 162 007e 8095      		com r24
 163 0080 80FF      		sbrs r24,0
 164 0082 00C0      		rjmp .L12
 165               	.LM39:
 166 0084 8CE0      		ldi r24,lo8(12)
 167 0086 90E0      		ldi r25,hi8(12)
 168 0088 60E0      		ldi r22,lo8(0)
 169 008a 0E94 0000 		call __eewr_byte_m128
 170 008e 80E0      		ldi r24,lo8(0)
 171               	.LVL5:
GAS LISTING C:\Users\ADMINI~1\AppData\Local\Temp/ccyD62cU.s 			page 4


 172 0090 0895      		ret
 173               	.LVL6:
 174               	.L12:
 175               	.LM40:
 176 0092 8CE0      		ldi r24,lo8(12)
 177 0094 90E0      		ldi r25,hi8(12)
 178 0096 0E94 0000 		call __eerd_byte_m128
 179               	.LM41:
 180 009a 0895      		ret
 181               	.LFE10:
 182               		.size	checkInterface, .-checkInterface
 183               	.global	main
 184               		.type	main, @function
 185               	main:
 186               	.LFB11:
 187               	.LM42:
 188               	/* prologue: function */
 189               	/* frame size = 0 */
 190               	.LM43:
 191 009c 0E94 0000 		call portInit
 192               	.LM44:
 193 00a0 0E94 0000 		call checkInterface
 194 00a4 8093 0000 		sts usbmode,r24
 195               	.LM45:
 196 00a8 0E94 0000 		call DPpullEn
 197               	.LM46:
 198 00ac 0E94 0000 		call timerInit
 199               	.LM47:
 200 00b0 88E0      		ldi r24,lo8(8)
 201 00b2 90E0      		ldi r25,hi8(8)
 202 00b4 0E94 0000 		call timer0PWMInit
 203               	.LM48:
 204 00b8 88E0      		ldi r24,lo8(8)
 205 00ba 0E94 0000 		call timer1PWMInit
 206               	.LM49:
 207 00be 88E0      		ldi r24,lo8(8)
 208 00c0 0E94 0000 		call timer3PWMInit
 209               	.LM50:
 210 00c4 0E94 0000 		call keymap_init
 211               	.LM51:
 212 00c8 8091 0000 		lds r24,usbmode
 213 00cc 8823      		tst r24
 214 00ce 01F0      		breq .L15
 215               	.LM52:
 216 00d0 81E0      		ldi r24,lo8(1)
 217 00d2 0E94 0000 		call led_check
 218               	.LM53:
 219 00d6 0E94 0000 		call led_mode_init
 220               	.LM54:
 221 00da 0E94 0000 		call usbmain
 222 00de 00C0      		rjmp .L16
 223               	.L15:
 224               	.LM55:
 225 00e0 0E94 0000 		call timer2IntEnable
 226               	.LM56:
 227 00e4 80E0      		ldi r24,lo8(0)
 228 00e6 0E94 0000 		call led_check
GAS LISTING C:\Users\ADMINI~1\AppData\Local\Temp/ccyD62cU.s 			page 5


 229               	.LM57:
 230 00ea 0E94 0000 		call led_mode_init
 231               	.LM58:
 232 00ee 0E94 0000 		call ps2main
 233               	.L16:
 234               	.LM59:
 235 00f2 80E0      		ldi r24,lo8(0)
 236 00f4 90E0      		ldi r25,hi8(0)
 237               	/* epilogue start */
 238 00f6 0895      		ret
 239               	.LFE11:
 240               		.size	main, .-main
 241               	.global	usbmode
 242               		.data
 243               		.type	usbmode, @object
 244               		.size	usbmode, 1
 245               	usbmode:
 246 0000 01        		.byte	1
 247               		.section	.debug_frame,"",@progbits
 248               	.Lframe0:
 249 0000 0C00 0000 		.long	.LECIE0-.LSCIE0
 250               	.LSCIE0:
 251 0004 FFFF FFFF 		.long	0xffffffff
 252 0008 01        		.byte	0x1
 253 0009 00        		.string	""
 254 000a 01        		.uleb128 0x1
 255 000b 7F        		.sleb128 -1
 256 000c 24        		.byte	0x24
 257 000d 0C        		.byte	0xc
 258 000e 20        		.uleb128 0x20
 259 000f 00        		.uleb128 0x0
 260               		.p2align	2
 261               	.LECIE0:
 262               	.LSFDE0:
 263 0010 0C00 0000 		.long	.LEFDE0-.LASFDE0
 264               	.LASFDE0:
 265 0014 0000 0000 		.long	.Lframe0
 266 0018 0000 0000 		.long	.LFB7
 267 001c 0200 0000 		.long	.LFE7-.LFB7
 268               		.p2align	2
 269               	.LEFDE0:
 270               	.LSFDE2:
 271 0020 0C00 0000 		.long	.LEFDE2-.LASFDE2
 272               	.LASFDE2:
 273 0024 0000 0000 		.long	.Lframe0
 274 0028 0000 0000 		.long	.LFB8
 275 002c 1800 0000 		.long	.LFE8-.LFB8
 276               		.p2align	2
 277               	.LEFDE2:
 278               	.LSFDE4:
 279 0030 0C00 0000 		.long	.LEFDE4-.LASFDE4
 280               	.LASFDE4:
 281 0034 0000 0000 		.long	.Lframe0
 282 0038 0000 0000 		.long	.LFB9
 283 003c 3800 0000 		.long	.LFE9-.LFB9
 284               		.p2align	2
 285               	.LEFDE4:
GAS LISTING C:\Users\ADMINI~1\AppData\Local\Temp/ccyD62cU.s 			page 6


 286               	.LSFDE6:
 287 0040 0C00 0000 		.long	.LEFDE6-.LASFDE6
 288               	.LASFDE6:
 289 0044 0000 0000 		.long	.Lframe0
 290 0048 0000 0000 		.long	.LFB10
 291 004c 4A00 0000 		.long	.LFE10-.LFB10
 292               		.p2align	2
 293               	.LEFDE6:
 294               	.LSFDE8:
 295 0050 0C00 0000 		.long	.LEFDE8-.LASFDE8
 296               	.LASFDE8:
 297 0054 0000 0000 		.long	.Lframe0
 298 0058 0000 0000 		.long	.LFB11
 299 005c 5C00 0000 		.long	.LFE11-.LFB11
 300               		.p2align	2
 301               	.LEFDE8:
 302               		.text
 303               	.Letext0:
 304               		.section	.debug_loc,"",@progbits
 305               	.Ldebug_loc0:
 306               	.LLST4:
 307 0000 7A00 0000 		.long	.LVL3-.Ltext0
 308 0004 7C00 0000 		.long	.LVL4-.Ltext0
 309 0008 0100      		.word	0x1
 310 000a 68        		.byte	0x68
 311 000b 9000 0000 		.long	.LVL5-.Ltext0
 312 000f 9200 0000 		.long	.LVL6-.Ltext0
 313 0013 0100      		.word	0x1
 314 0015 68        		.byte	0x68
 315 0016 0000 0000 		.long	0x0
 316 001a 0000 0000 		.long	0x0
 317               	.LLST5:
 318 001e 5C00 0000 		.long	.LVL1-.Ltext0
 319 0022 6400 0000 		.long	.LVL2-.Ltext0
 320 0026 0100      		.word	0x1
 321 0028 68        		.byte	0x68
 322 0029 0000 0000 		.long	0x0
 323 002d 0000 0000 		.long	0x0
 324               		.section	.debug_info
 325 0000 4E02 0000 		.long	0x24e
 326 0004 0200      		.word	0x2
 327 0006 0000 0000 		.long	.Ldebug_abbrev0
 328 000a 04        		.byte	0x4
 329 000b 01        		.uleb128 0x1
 330 000c 0000 0000 		.long	.LASF28
 331 0010 01        		.byte	0x1
 332 0011 0000 0000 		.long	.LASF29
 333 0015 0000 0000 		.long	.LASF30
 334 0019 0000 0000 		.long	.Ltext0
 335 001d 0000 0000 		.long	.Letext0
 336 0021 0000 0000 		.long	.Ldebug_line0
 337 0025 02        		.uleb128 0x2
 338 0026 01        		.byte	0x1
 339 0027 08        		.byte	0x8
 340 0028 0000 0000 		.long	.LASF0
 341 002c 02        		.uleb128 0x2
 342 002d 01        		.byte	0x1
GAS LISTING C:\Users\ADMINI~1\AppData\Local\Temp/ccyD62cU.s 			page 7


 343 002e 06        		.byte	0x6
 344 002f 0000 0000 		.long	.LASF1
 345 0033 02        		.uleb128 0x2
 346 0034 02        		.byte	0x2
 347 0035 07        		.byte	0x7
 348 0036 0000 0000 		.long	.LASF2
 349 003a 02        		.uleb128 0x2
 350 003b 02        		.byte	0x2
 351 003c 05        		.byte	0x5
 352 003d 0000 0000 		.long	.LASF3
 353 0041 02        		.uleb128 0x2
 354 0042 04        		.byte	0x4
 355 0043 07        		.byte	0x7
 356 0044 0000 0000 		.long	.LASF4
 357 0048 02        		.uleb128 0x2
 358 0049 04        		.byte	0x4
 359 004a 05        		.byte	0x5
 360 004b 0000 0000 		.long	.LASF5
 361 004f 02        		.uleb128 0x2
 362 0050 08        		.byte	0x8
 363 0051 07        		.byte	0x7
 364 0052 0000 0000 		.long	.LASF6
 365 0056 02        		.uleb128 0x2
 366 0057 08        		.byte	0x8
 367 0058 05        		.byte	0x5
 368 0059 0000 0000 		.long	.LASF7
 369 005d 02        		.uleb128 0x2
 370 005e 02        		.byte	0x2
 371 005f 07        		.byte	0x7
 372 0060 0000 0000 		.long	.LASF8
 373 0064 02        		.uleb128 0x2
 374 0065 01        		.byte	0x1
 375 0066 06        		.byte	0x6
 376 0067 0000 0000 		.long	.LASF9
 377 006b 03        		.uleb128 0x3
 378 006c 02        		.byte	0x2
 379 006d 05        		.byte	0x5
 380 006e 696E 7400 		.string	"int"
 381 0072 04        		.uleb128 0x4
 382 0073 0000 0000 		.long	.LASF10
 383 0077 03        		.byte	0x3
 384 0078 79        		.byte	0x79
 385 0079 2C00 0000 		.long	0x2c
 386 007d 04        		.uleb128 0x4
 387 007e 0000 0000 		.long	.LASF11
 388 0082 03        		.byte	0x3
 389 0083 7A        		.byte	0x7a
 390 0084 2500 0000 		.long	0x25
 391 0088 04        		.uleb128 0x4
 392 0089 0000 0000 		.long	.LASF12
 393 008d 03        		.byte	0x3
 394 008e 7C        		.byte	0x7c
 395 008f 5D00 0000 		.long	0x5d
 396 0093 05        		.uleb128 0x5
 397 0094 01        		.byte	0x1
 398 0095 06        		.byte	0x6
 399 0096 05        		.uleb128 0x5
GAS LISTING C:\Users\ADMINI~1\AppData\Local\Temp/ccyD62cU.s 			page 8


 400 0097 01        		.byte	0x1
 401 0098 08        		.byte	0x8
 402 0099 05        		.uleb128 0x5
 403 009a 02        		.byte	0x2
 404 009b 07        		.byte	0x7
 405 009c 06        		.uleb128 0x6
 406 009d 0000 0000 		.long	.LASF13
 407 00a1 02        		.byte	0x2
 408 00a2 68        		.byte	0x68
 409 00a3 01        		.byte	0x1
 410 00a4 03        		.byte	0x3
 411 00a5 B500 0000 		.long	0xb5
 412 00a9 07        		.uleb128 0x7
 413 00aa 0000 0000 		.long	.LASF15
 414 00ae 02        		.byte	0x2
 415 00af 67        		.byte	0x67
 416 00b0 8800 0000 		.long	0x88
 417 00b4 00        		.byte	0x0
 418 00b5 06        		.uleb128 0x6
 419 00b6 0000 0000 		.long	.LASF14
 420 00ba 04        		.byte	0x4
 421 00bb 6F        		.byte	0x6f
 422 00bc 01        		.byte	0x1
 423 00bd 03        		.byte	0x3
 424 00be E600 0000 		.long	0xe6
 425 00c2 07        		.uleb128 0x7
 426 00c3 0000 0000 		.long	.LASF16
 427 00c7 04        		.byte	0x4
 428 00c8 6E        		.byte	0x6e
 429 00c9 E600 0000 		.long	0xe6
 430 00cd 08        		.uleb128 0x8
 431 00ce 0000 0000 		.long	.LASF17
 432 00d2 04        		.byte	0x4
 433 00d3 70        		.byte	0x70
 434 00d4 8800 0000 		.long	0x88
 435 00d8 08        		.uleb128 0x8
 436 00d9 0000 0000 		.long	.LASF18
 437 00dd 04        		.byte	0x4
 438 00de 71        		.byte	0x71
 439 00df E600 0000 		.long	0xe6
 440 00e3 09        		.uleb128 0x9
 441 00e4 09        		.uleb128 0x9
 442 00e5 00        		.byte	0x0
 443 00e6 02        		.uleb128 0x2
 444 00e7 04        		.byte	0x4
 445 00e8 04        		.byte	0x4
 446 00e9 0000 0000 		.long	.LASF19
 447 00ed 06        		.uleb128 0x6
 448 00ee 0000 0000 		.long	.LASF20
 449 00f2 02        		.byte	0x2
 450 00f3 52        		.byte	0x52
 451 00f4 01        		.byte	0x1
 452 00f5 03        		.byte	0x3
 453 00f6 0601 0000 		.long	0x106
 454 00fa 07        		.uleb128 0x7
 455 00fb 0000 0000 		.long	.LASF15
 456 00ff 02        		.byte	0x2
GAS LISTING C:\Users\ADMINI~1\AppData\Local\Temp/ccyD62cU.s 			page 9


 457 0100 51        		.byte	0x51
 458 0101 7D00 0000 		.long	0x7d
 459 0105 00        		.byte	0x0
 460 0106 06        		.uleb128 0x6
 461 0107 0000 0000 		.long	.LASF21
 462 010b 04        		.byte	0x4
 463 010c 95        		.byte	0x95
 464 010d 01        		.byte	0x1
 465 010e 03        		.byte	0x3
 466 010f 4F01 0000 		.long	0x14f
 467 0113 07        		.uleb128 0x7
 468 0114 0000 0000 		.long	.LASF22
 469 0118 04        		.byte	0x4
 470 0119 94        		.byte	0x94
 471 011a E600 0000 		.long	0xe6
 472 011e 08        		.uleb128 0x8
 473 011f 0000 0000 		.long	.LASF17
 474 0123 04        		.byte	0x4
 475 0124 96        		.byte	0x96
 476 0125 7D00 0000 		.long	0x7d
 477 0129 08        		.uleb128 0x8
 478 012a 0000 0000 		.long	.LASF18
 479 012e 04        		.byte	0x4
 480 012f 97        		.byte	0x97
 481 0130 E600 0000 		.long	0xe6
 482 0134 0A        		.uleb128 0xa
 483 0135 4D01 0000 		.long	0x14d
 484 0139 0B        		.uleb128 0xb
 485 013a C200 0000 		.long	0xc2
 486 013e 0C        		.uleb128 0xc
 487 013f 0D        		.uleb128 0xd
 488 0140 CD00 0000 		.long	0xcd
 489 0144 0D        		.uleb128 0xd
 490 0145 D800 0000 		.long	0xd8
 491 0149 09        		.uleb128 0x9
 492 014a 09        		.uleb128 0x9
 493 014b 00        		.byte	0x0
 494 014c 00        		.byte	0x0
 495 014d 09        		.uleb128 0x9
 496 014e 00        		.byte	0x0
 497 014f 0E        		.uleb128 0xe
 498 0150 01        		.byte	0x1
 499 0151 0000 0000 		.long	.LASF31
 500 0155 01        		.byte	0x1
 501 0156 3B        		.byte	0x3b
 502 0157 01        		.byte	0x1
 503 0158 01        		.byte	0x1
 504 0159 0F        		.uleb128 0xf
 505 015a 4F01 0000 		.long	0x14f
 506 015e 0000 0000 		.long	.LFB7
 507 0162 0000 0000 		.long	.LFE7
 508 0166 02        		.byte	0x2
 509 0167 90        		.byte	0x90
 510 0168 20        		.uleb128 0x20
 511 0169 10        		.uleb128 0x10
 512 016a 01        		.byte	0x1
 513 016b 0000 0000 		.long	.LASF32
GAS LISTING C:\Users\ADMINI~1\AppData\Local\Temp/ccyD62cU.s 			page 10


 514 016f 01        		.byte	0x1
 515 0170 48        		.byte	0x48
 516 0171 01        		.byte	0x1
 517 0172 0000 0000 		.long	.LFB8
 518 0176 0000 0000 		.long	.LFE8
 519 017a 02        		.byte	0x2
 520 017b 90        		.byte	0x90
 521 017c 20        		.uleb128 0x20
 522 017d 8F01 0000 		.long	0x18f
 523 0181 11        		.uleb128 0x11
 524 0182 0000 0000 		.long	.LASF33
 525 0186 01        		.byte	0x1
 526 0187 47        		.byte	0x47
 527 0188 7D00 0000 		.long	0x7d
 528 018c 01        		.byte	0x1
 529 018d 68        		.byte	0x68
 530 018e 00        		.byte	0x0
 531 018f 12        		.uleb128 0x12
 532 0190 01        		.byte	0x1
 533 0191 0000 0000 		.long	.LASF26
 534 0195 01        		.byte	0x1
 535 0196 5E        		.byte	0x5e
 536 0197 01        		.byte	0x1
 537 0198 6B00 0000 		.long	0x6b
 538 019c 0000 0000 		.long	.LFB9
 539 01a0 0000 0000 		.long	.LFE9
 540 01a4 02        		.byte	0x2
 541 01a5 90        		.byte	0x90
 542 01a6 20        		.uleb128 0x20
 543 01a7 13        		.uleb128 0x13
 544 01a8 01        		.byte	0x1
 545 01a9 0000 0000 		.long	.LASF34
 546 01ad 01        		.byte	0x1
 547 01ae A7        		.byte	0xa7
 548 01af 01        		.byte	0x1
 549 01b0 7200 0000 		.long	0x72
 550 01b4 0000 0000 		.long	.LFB10
 551 01b8 0000 0000 		.long	.LFE10
 552 01bc 02        		.byte	0x2
 553 01bd 90        		.byte	0x90
 554 01be 20        		.uleb128 0x20
 555 01bf 2702 0000 		.long	0x227
 556 01c3 08        		.uleb128 0x8
 557 01c4 0000 0000 		.long	.LASF23
 558 01c8 01        		.byte	0x1
 559 01c9 A8        		.byte	0xa8
 560 01ca 7D00 0000 		.long	0x7d
 561 01ce 08        		.uleb128 0x8
 562 01cf 0000 0000 		.long	.LASF24
 563 01d3 01        		.byte	0x1
 564 01d4 A8        		.byte	0xa8
 565 01d5 7D00 0000 		.long	0x7d
 566 01d9 08        		.uleb128 0x8
 567 01da 0000 0000 		.long	.LASF25
 568 01de 01        		.byte	0x1
 569 01df A8        		.byte	0xa8
 570 01e0 7D00 0000 		.long	0x7d
GAS LISTING C:\Users\ADMINI~1\AppData\Local\Temp/ccyD62cU.s 			page 11


 571 01e4 14        		.uleb128 0x14
 572 01e5 0000 0000 		.long	.LASF35
 573 01e9 01        		.byte	0x1
 574 01ea A9        		.byte	0xa9
 575 01eb 7D00 0000 		.long	0x7d
 576 01ef 0000 0000 		.long	.LLST4
 577 01f3 15        		.uleb128 0x15
 578 01f4 0601 0000 		.long	0x106
 579 01f8 0000 0000 		.long	.LBB26
 580 01fc 0000 0000 		.long	.LBE26
 581 0200 01        		.byte	0x1
 582 0201 AE        		.byte	0xae
 583 0202 16        		.uleb128 0x16
 584 0203 0000 0000 		.long	.LBB27
 585 0207 0000 0000 		.long	.LBE27
 586 020b 15        		.uleb128 0x15
 587 020c ED00 0000 		.long	0xed
 588 0210 0000 0000 		.long	.LBB28
 589 0214 0000 0000 		.long	.LBE28
 590 0218 04        		.byte	0x4
 591 0219 A1        		.byte	0xa1
 592 021a 17        		.uleb128 0x17
 593 021b FA00 0000 		.long	0xfa
 594 021f 0000 0000 		.long	.LLST5
 595 0223 00        		.byte	0x0
 596 0224 00        		.byte	0x0
 597 0225 00        		.byte	0x0
 598 0226 00        		.byte	0x0
 599 0227 12        		.uleb128 0x12
 600 0228 01        		.byte	0x1
 601 0229 0000 0000 		.long	.LASF27
 602 022d 01        		.byte	0x1
 603 022e C7        		.byte	0xc7
 604 022f 01        		.byte	0x1
 605 0230 6B00 0000 		.long	0x6b
 606 0234 0000 0000 		.long	.LFB11
 607 0238 0000 0000 		.long	.LFE11
 608 023c 02        		.byte	0x2
 609 023d 90        		.byte	0x90
 610 023e 20        		.uleb128 0x20
 611 023f 18        		.uleb128 0x18
 612 0240 0000 0000 		.long	.LASF36
 613 0244 01        		.byte	0x1
 614 0245 24        		.byte	0x24
 615 0246 7200 0000 		.long	0x72
 616 024a 01        		.byte	0x1
 617 024b 05        		.byte	0x5
 618 024c 03        		.byte	0x3
 619 024d 0000 0000 		.long	usbmode
 620 0251 00        		.byte	0x0
 621               		.section	.debug_abbrev
 622 0000 01        		.uleb128 0x1
 623 0001 11        		.uleb128 0x11
 624 0002 01        		.byte	0x1
 625 0003 25        		.uleb128 0x25
 626 0004 0E        		.uleb128 0xe
 627 0005 13        		.uleb128 0x13
GAS LISTING C:\Users\ADMINI~1\AppData\Local\Temp/ccyD62cU.s 			page 12


 628 0006 0B        		.uleb128 0xb
 629 0007 03        		.uleb128 0x3
 630 0008 0E        		.uleb128 0xe
 631 0009 1B        		.uleb128 0x1b
 632 000a 0E        		.uleb128 0xe
 633 000b 11        		.uleb128 0x11
 634 000c 01        		.uleb128 0x1
 635 000d 12        		.uleb128 0x12
 636 000e 01        		.uleb128 0x1
 637 000f 10        		.uleb128 0x10
 638 0010 06        		.uleb128 0x6
 639 0011 00        		.byte	0x0
 640 0012 00        		.byte	0x0
 641 0013 02        		.uleb128 0x2
 642 0014 24        		.uleb128 0x24
 643 0015 00        		.byte	0x0
 644 0016 0B        		.uleb128 0xb
 645 0017 0B        		.uleb128 0xb
 646 0018 3E        		.uleb128 0x3e
 647 0019 0B        		.uleb128 0xb
 648 001a 03        		.uleb128 0x3
 649 001b 0E        		.uleb128 0xe
 650 001c 00        		.byte	0x0
 651 001d 00        		.byte	0x0
 652 001e 03        		.uleb128 0x3
 653 001f 24        		.uleb128 0x24
 654 0020 00        		.byte	0x0
 655 0021 0B        		.uleb128 0xb
 656 0022 0B        		.uleb128 0xb
 657 0023 3E        		.uleb128 0x3e
 658 0024 0B        		.uleb128 0xb
 659 0025 03        		.uleb128 0x3
 660 0026 08        		.uleb128 0x8
 661 0027 00        		.byte	0x0
 662 0028 00        		.byte	0x0
 663 0029 04        		.uleb128 0x4
 664 002a 16        		.uleb128 0x16
 665 002b 00        		.byte	0x0
 666 002c 03        		.uleb128 0x3
 667 002d 0E        		.uleb128 0xe
 668 002e 3A        		.uleb128 0x3a
 669 002f 0B        		.uleb128 0xb
 670 0030 3B        		.uleb128 0x3b
 671 0031 0B        		.uleb128 0xb
 672 0032 49        		.uleb128 0x49
 673 0033 13        		.uleb128 0x13
 674 0034 00        		.byte	0x0
 675 0035 00        		.byte	0x0
 676 0036 05        		.uleb128 0x5
 677 0037 24        		.uleb128 0x24
 678 0038 00        		.byte	0x0
 679 0039 0B        		.uleb128 0xb
 680 003a 0B        		.uleb128 0xb
 681 003b 3E        		.uleb128 0x3e
 682 003c 0B        		.uleb128 0xb
 683 003d 00        		.byte	0x0
 684 003e 00        		.byte	0x0
GAS LISTING C:\Users\ADMINI~1\AppData\Local\Temp/ccyD62cU.s 			page 13


 685 003f 06        		.uleb128 0x6
 686 0040 2E        		.uleb128 0x2e
 687 0041 01        		.byte	0x1
 688 0042 03        		.uleb128 0x3
 689 0043 0E        		.uleb128 0xe
 690 0044 3A        		.uleb128 0x3a
 691 0045 0B        		.uleb128 0xb
 692 0046 3B        		.uleb128 0x3b
 693 0047 0B        		.uleb128 0xb
 694 0048 27        		.uleb128 0x27
 695 0049 0C        		.uleb128 0xc
 696 004a 20        		.uleb128 0x20
 697 004b 0B        		.uleb128 0xb
 698 004c 01        		.uleb128 0x1
 699 004d 13        		.uleb128 0x13
 700 004e 00        		.byte	0x0
 701 004f 00        		.byte	0x0
 702 0050 07        		.uleb128 0x7
 703 0051 05        		.uleb128 0x5
 704 0052 00        		.byte	0x0
 705 0053 03        		.uleb128 0x3
 706 0054 0E        		.uleb128 0xe
 707 0055 3A        		.uleb128 0x3a
 708 0056 0B        		.uleb128 0xb
 709 0057 3B        		.uleb128 0x3b
 710 0058 0B        		.uleb128 0xb
 711 0059 49        		.uleb128 0x49
 712 005a 13        		.uleb128 0x13
 713 005b 00        		.byte	0x0
 714 005c 00        		.byte	0x0
 715 005d 08        		.uleb128 0x8
 716 005e 34        		.uleb128 0x34
 717 005f 00        		.byte	0x0
 718 0060 03        		.uleb128 0x3
 719 0061 0E        		.uleb128 0xe
 720 0062 3A        		.uleb128 0x3a
 721 0063 0B        		.uleb128 0xb
 722 0064 3B        		.uleb128 0x3b
 723 0065 0B        		.uleb128 0xb
 724 0066 49        		.uleb128 0x49
 725 0067 13        		.uleb128 0x13
 726 0068 00        		.byte	0x0
 727 0069 00        		.byte	0x0
 728 006a 09        		.uleb128 0x9
 729 006b 0B        		.uleb128 0xb
 730 006c 00        		.byte	0x0
 731 006d 00        		.byte	0x0
 732 006e 00        		.byte	0x0
 733 006f 0A        		.uleb128 0xa
 734 0070 0B        		.uleb128 0xb
 735 0071 01        		.byte	0x1
 736 0072 01        		.uleb128 0x1
 737 0073 13        		.uleb128 0x13
 738 0074 00        		.byte	0x0
 739 0075 00        		.byte	0x0
 740 0076 0B        		.uleb128 0xb
 741 0077 05        		.uleb128 0x5
GAS LISTING C:\Users\ADMINI~1\AppData\Local\Temp/ccyD62cU.s 			page 14


 742 0078 00        		.byte	0x0
 743 0079 31        		.uleb128 0x31
 744 007a 13        		.uleb128 0x13
 745 007b 00        		.byte	0x0
 746 007c 00        		.byte	0x0
 747 007d 0C        		.uleb128 0xc
 748 007e 0B        		.uleb128 0xb
 749 007f 01        		.byte	0x1
 750 0080 00        		.byte	0x0
 751 0081 00        		.byte	0x0
 752 0082 0D        		.uleb128 0xd
 753 0083 34        		.uleb128 0x34
 754 0084 00        		.byte	0x0
 755 0085 31        		.uleb128 0x31
 756 0086 13        		.uleb128 0x13
 757 0087 00        		.byte	0x0
 758 0088 00        		.byte	0x0
 759 0089 0E        		.uleb128 0xe
 760 008a 2E        		.uleb128 0x2e
 761 008b 00        		.byte	0x0
 762 008c 3F        		.uleb128 0x3f
 763 008d 0C        		.uleb128 0xc
 764 008e 03        		.uleb128 0x3
 765 008f 0E        		.uleb128 0xe
 766 0090 3A        		.uleb128 0x3a
 767 0091 0B        		.uleb128 0xb
 768 0092 3B        		.uleb128 0x3b
 769 0093 0B        		.uleb128 0xb
 770 0094 27        		.uleb128 0x27
 771 0095 0C        		.uleb128 0xc
 772 0096 20        		.uleb128 0x20
 773 0097 0B        		.uleb128 0xb
 774 0098 00        		.byte	0x0
 775 0099 00        		.byte	0x0
 776 009a 0F        		.uleb128 0xf
 777 009b 2E        		.uleb128 0x2e
 778 009c 00        		.byte	0x0
 779 009d 31        		.uleb128 0x31
 780 009e 13        		.uleb128 0x13
 781 009f 11        		.uleb128 0x11
 782 00a0 01        		.uleb128 0x1
 783 00a1 12        		.uleb128 0x12
 784 00a2 01        		.uleb128 0x1
 785 00a3 40        		.uleb128 0x40
 786 00a4 0A        		.uleb128 0xa
 787 00a5 00        		.byte	0x0
 788 00a6 00        		.byte	0x0
 789 00a7 10        		.uleb128 0x10
 790 00a8 2E        		.uleb128 0x2e
 791 00a9 01        		.byte	0x1
 792 00aa 3F        		.uleb128 0x3f
 793 00ab 0C        		.uleb128 0xc
 794 00ac 03        		.uleb128 0x3
 795 00ad 0E        		.uleb128 0xe
 796 00ae 3A        		.uleb128 0x3a
 797 00af 0B        		.uleb128 0xb
 798 00b0 3B        		.uleb128 0x3b
GAS LISTING C:\Users\ADMINI~1\AppData\Local\Temp/ccyD62cU.s 			page 15


 799 00b1 0B        		.uleb128 0xb
 800 00b2 27        		.uleb128 0x27
 801 00b3 0C        		.uleb128 0xc
 802 00b4 11        		.uleb128 0x11
 803 00b5 01        		.uleb128 0x1
 804 00b6 12        		.uleb128 0x12
 805 00b7 01        		.uleb128 0x1
 806 00b8 40        		.uleb128 0x40
 807 00b9 0A        		.uleb128 0xa
 808 00ba 01        		.uleb128 0x1
 809 00bb 13        		.uleb128 0x13
 810 00bc 00        		.byte	0x0
 811 00bd 00        		.byte	0x0
 812 00be 11        		.uleb128 0x11
 813 00bf 05        		.uleb128 0x5
 814 00c0 00        		.byte	0x0
 815 00c1 03        		.uleb128 0x3
 816 00c2 0E        		.uleb128 0xe
 817 00c3 3A        		.uleb128 0x3a
 818 00c4 0B        		.uleb128 0xb
 819 00c5 3B        		.uleb128 0x3b
 820 00c6 0B        		.uleb128 0xb
 821 00c7 49        		.uleb128 0x49
 822 00c8 13        		.uleb128 0x13
 823 00c9 02        		.uleb128 0x2
 824 00ca 0A        		.uleb128 0xa
 825 00cb 00        		.byte	0x0
 826 00cc 00        		.byte	0x0
 827 00cd 12        		.uleb128 0x12
 828 00ce 2E        		.uleb128 0x2e
 829 00cf 00        		.byte	0x0
 830 00d0 3F        		.uleb128 0x3f
 831 00d1 0C        		.uleb128 0xc
 832 00d2 03        		.uleb128 0x3
 833 00d3 0E        		.uleb128 0xe
 834 00d4 3A        		.uleb128 0x3a
 835 00d5 0B        		.uleb128 0xb
 836 00d6 3B        		.uleb128 0x3b
 837 00d7 0B        		.uleb128 0xb
 838 00d8 27        		.uleb128 0x27
 839 00d9 0C        		.uleb128 0xc
 840 00da 49        		.uleb128 0x49
 841 00db 13        		.uleb128 0x13
 842 00dc 11        		.uleb128 0x11
 843 00dd 01        		.uleb128 0x1
 844 00de 12        		.uleb128 0x12
 845 00df 01        		.uleb128 0x1
 846 00e0 40        		.uleb128 0x40
 847 00e1 0A        		.uleb128 0xa
 848 00e2 00        		.byte	0x0
 849 00e3 00        		.byte	0x0
 850 00e4 13        		.uleb128 0x13
 851 00e5 2E        		.uleb128 0x2e
 852 00e6 01        		.byte	0x1
 853 00e7 3F        		.uleb128 0x3f
 854 00e8 0C        		.uleb128 0xc
 855 00e9 03        		.uleb128 0x3
GAS LISTING C:\Users\ADMINI~1\AppData\Local\Temp/ccyD62cU.s 			page 16


 856 00ea 0E        		.uleb128 0xe
 857 00eb 3A        		.uleb128 0x3a
 858 00ec 0B        		.uleb128 0xb
 859 00ed 3B        		.uleb128 0x3b
 860 00ee 0B        		.uleb128 0xb
 861 00ef 27        		.uleb128 0x27
 862 00f0 0C        		.uleb128 0xc
 863 00f1 49        		.uleb128 0x49
 864 00f2 13        		.uleb128 0x13
 865 00f3 11        		.uleb128 0x11
 866 00f4 01        		.uleb128 0x1
 867 00f5 12        		.uleb128 0x12
 868 00f6 01        		.uleb128 0x1
 869 00f7 40        		.uleb128 0x40
 870 00f8 0A        		.uleb128 0xa
 871 00f9 01        		.uleb128 0x1
 872 00fa 13        		.uleb128 0x13
 873 00fb 00        		.byte	0x0
 874 00fc 00        		.byte	0x0
 875 00fd 14        		.uleb128 0x14
 876 00fe 34        		.uleb128 0x34
 877 00ff 00        		.byte	0x0
 878 0100 03        		.uleb128 0x3
 879 0101 0E        		.uleb128 0xe
 880 0102 3A        		.uleb128 0x3a
 881 0103 0B        		.uleb128 0xb
 882 0104 3B        		.uleb128 0x3b
 883 0105 0B        		.uleb128 0xb
 884 0106 49        		.uleb128 0x49
 885 0107 13        		.uleb128 0x13
 886 0108 02        		.uleb128 0x2
 887 0109 06        		.uleb128 0x6
 888 010a 00        		.byte	0x0
 889 010b 00        		.byte	0x0
 890 010c 15        		.uleb128 0x15
 891 010d 1D        		.uleb128 0x1d
 892 010e 01        		.byte	0x1
 893 010f 31        		.uleb128 0x31
 894 0110 13        		.uleb128 0x13
 895 0111 11        		.uleb128 0x11
 896 0112 01        		.uleb128 0x1
 897 0113 12        		.uleb128 0x12
 898 0114 01        		.uleb128 0x1
 899 0115 58        		.uleb128 0x58
 900 0116 0B        		.uleb128 0xb
 901 0117 59        		.uleb128 0x59
 902 0118 0B        		.uleb128 0xb
 903 0119 00        		.byte	0x0
 904 011a 00        		.byte	0x0
 905 011b 16        		.uleb128 0x16
 906 011c 0B        		.uleb128 0xb
 907 011d 01        		.byte	0x1
 908 011e 11        		.uleb128 0x11
 909 011f 01        		.uleb128 0x1
 910 0120 12        		.uleb128 0x12
 911 0121 01        		.uleb128 0x1
 912 0122 00        		.byte	0x0
GAS LISTING C:\Users\ADMINI~1\AppData\Local\Temp/ccyD62cU.s 			page 17


 913 0123 00        		.byte	0x0
 914 0124 17        		.uleb128 0x17
 915 0125 05        		.uleb128 0x5
 916 0126 00        		.byte	0x0
 917 0127 31        		.uleb128 0x31
 918 0128 13        		.uleb128 0x13
 919 0129 02        		.uleb128 0x2
 920 012a 06        		.uleb128 0x6
 921 012b 00        		.byte	0x0
 922 012c 00        		.byte	0x0
 923 012d 18        		.uleb128 0x18
 924 012e 34        		.uleb128 0x34
 925 012f 00        		.byte	0x0
 926 0130 03        		.uleb128 0x3
 927 0131 0E        		.uleb128 0xe
 928 0132 3A        		.uleb128 0x3a
 929 0133 0B        		.uleb128 0xb
 930 0134 3B        		.uleb128 0x3b
 931 0135 0B        		.uleb128 0xb
 932 0136 49        		.uleb128 0x49
 933 0137 13        		.uleb128 0x13
 934 0138 3F        		.uleb128 0x3f
 935 0139 0C        		.uleb128 0xc
 936 013a 02        		.uleb128 0x2
 937 013b 0A        		.uleb128 0xa
 938 013c 00        		.byte	0x0
 939 013d 00        		.byte	0x0
 940 013e 00        		.byte	0x0
 941               		.section	.debug_pubnames,"",@progbits
 942 0000 6200 0000 		.long	0x62
 943 0004 0200      		.word	0x2
 944 0006 0000 0000 		.long	.Ldebug_info0
 945 000a 5202 0000 		.long	0x252
 946 000e 5901 0000 		.long	0x159
 947 0012 656E 6162 		.string	"enable_printf"
 947      6C65 5F70 
 947      7269 6E74 
 947      6600 
 948 0020 6901 0000 		.long	0x169
 949 0024 4450 7075 		.string	"DPpullEn"
 949      6C6C 456E 
 949      00
 950 002d 8F01 0000 		.long	0x18f
 951 0031 706F 7274 		.string	"portInit"
 951      496E 6974 
 951      00
 952 003a A701 0000 		.long	0x1a7
 953 003e 6368 6563 		.string	"checkInterface"
 953      6B49 6E74 
 953      6572 6661 
 953      6365 00
 954 004d 2702 0000 		.long	0x227
 955 0051 6D61 696E 		.string	"main"
 955      00
 956 0056 3F02 0000 		.long	0x23f
 957 005a 7573 626D 		.string	"usbmode"
 957      6F64 6500 
GAS LISTING C:\Users\ADMINI~1\AppData\Local\Temp/ccyD62cU.s 			page 18


 958 0062 0000 0000 		.long	0x0
 959               		.section	.debug_aranges,"",@progbits
 960 0000 1C00 0000 		.long	0x1c
 961 0004 0200      		.word	0x2
 962 0006 0000 0000 		.long	.Ldebug_info0
 963 000a 04        		.byte	0x4
 964 000b 00        		.byte	0x0
 965 000c 0000      		.word	0x0
 966 000e 0000      		.word	0x0
 967 0010 0000 0000 		.long	.Ltext0
 968 0014 F800 0000 		.long	.Letext0-.Ltext0
 969 0018 0000 0000 		.long	0x0
 970 001c 0000 0000 		.long	0x0
 971               		.section	.debug_line
 972 0000 9A02 0000 		.long	.LELT0-.LSLT0
 973               	.LSLT0:
 974 0004 0200      		.word	0x2
 975 0006 AB00 0000 		.long	.LELTP0-.LASLTP0
 976               	.LASLTP0:
 977 000a 01        		.byte	0x1
 978 000b 01        		.byte	0x1
 979 000c F6        		.byte	0xf6
 980 000d F5        		.byte	0xf5
 981 000e 0A        		.byte	0xa
 982 000f 00        		.byte	0x0
 983 0010 01        		.byte	0x1
 984 0011 01        		.byte	0x1
 985 0012 01        		.byte	0x1
 986 0013 01        		.byte	0x1
 987 0014 00        		.byte	0x0
 988 0015 00        		.byte	0x0
 989 0016 00        		.byte	0x0
 990 0017 01        		.byte	0x1
 991 0018 633A 2F77 		.ascii	"c:/winavr-20100110/lib/gcc/../../avr/include"
 991      696E 6176 
 991      722D 3230 
 991      3130 3031 
 991      3130 2F6C 
 992 0044 00        		.byte	0
 993 0045 633A 2F77 		.ascii	"c:/winavr-20100110/lib/gcc/../../avr/include/util"
 993      696E 6176 
 993      722D 3230 
 993      3130 3031 
 993      3130 2F6C 
 994 0076 00        		.byte	0
 995 0077 00        		.byte	0x0
 996 0078 6D61 696E 		.string	"main.c"
 996      2E63 00
 997 007f 00        		.uleb128 0x0
 998 0080 00        		.uleb128 0x0
 999 0081 00        		.uleb128 0x0
 1000 0082 7574 696C 		.string	"util/delay_basic.h"
 1000      2F64 656C 
 1000      6179 5F62 
 1000      6173 6963 
 1000      2E68 00
 1001 0095 01        		.uleb128 0x1
GAS LISTING C:\Users\ADMINI~1\AppData\Local\Temp/ccyD62cU.s 			page 19


 1002 0096 00        		.uleb128 0x0
 1003 0097 00        		.uleb128 0x0
 1004 0098 7374 6469 		.string	"stdint.h"
 1004      6E74 2E68 
 1004      00
 1005 00a1 01        		.uleb128 0x1
 1006 00a2 00        		.uleb128 0x0
 1007 00a3 00        		.uleb128 0x0
 1008 00a4 7574 696C 		.string	"util/delay.h"
 1008      2F64 656C 
 1008      6179 2E68 
 1008      00
 1009 00b1 01        		.uleb128 0x1
 1010 00b2 00        		.uleb128 0x0
 1011 00b3 00        		.uleb128 0x0
 1012 00b4 00        		.byte	0x0
 1013               	.LELTP0:
 1014 00b5 00        		.byte	0x0
 1015 00b6 05        		.uleb128 0x5
 1016 00b7 02        		.byte	0x2
 1017 00b8 0000 0000 		.long	.LM1
 1018 00bc 4E        		.byte	0x4e
 1019 00bd 00        		.byte	0x0
 1020 00be 05        		.uleb128 0x5
 1021 00bf 02        		.byte	0x2
 1022 00c0 0000 0000 		.long	.LM2
 1023 00c4 15        		.byte	0x15
 1024 00c5 00        		.byte	0x0
 1025 00c6 05        		.uleb128 0x5
 1026 00c7 02        		.byte	0x2
 1027 00c8 0000 0000 		.long	.LM3
 1028 00cc 20        		.byte	0x20
 1029 00cd 00        		.byte	0x0
 1030 00ce 05        		.uleb128 0x5
 1031 00cf 02        		.byte	0x2
 1032 00d0 0000 0000 		.long	.LM4
 1033 00d4 15        		.byte	0x15
 1034 00d5 00        		.byte	0x0
 1035 00d6 05        		.uleb128 0x5
 1036 00d7 02        		.byte	0x2
 1037 00d8 0000 0000 		.long	.LM5
 1038 00dc 16        		.byte	0x16
 1039 00dd 00        		.byte	0x0
 1040 00de 05        		.uleb128 0x5
 1041 00df 02        		.byte	0x2
 1042 00e0 0000 0000 		.long	.LM6
 1043 00e4 15        		.byte	0x15
 1044 00e5 00        		.byte	0x0
 1045 00e6 05        		.uleb128 0x5
 1046 00e7 02        		.byte	0x2
 1047 00e8 0000 0000 		.long	.LM7
 1048 00ec 16        		.byte	0x16
 1049 00ed 00        		.byte	0x0
 1050 00ee 05        		.uleb128 0x5
 1051 00ef 02        		.byte	0x2
 1052 00f0 0000 0000 		.long	.LM8
 1053 00f4 15        		.byte	0x15
GAS LISTING C:\Users\ADMINI~1\AppData\Local\Temp/ccyD62cU.s 			page 20


 1054 00f5 00        		.byte	0x0
 1055 00f6 05        		.uleb128 0x5
 1056 00f7 02        		.byte	0x2
 1057 00f8 0000 0000 		.long	.LM9
 1058 00fc 18        		.byte	0x18
 1059 00fd 00        		.byte	0x0
 1060 00fe 05        		.uleb128 0x5
 1061 00ff 02        		.byte	0x2
 1062 0100 0000 0000 		.long	.LM10
 1063 0104 15        		.byte	0x15
 1064 0105 00        		.byte	0x0
 1065 0106 05        		.uleb128 0x5
 1066 0107 02        		.byte	0x2
 1067 0108 0000 0000 		.long	.LM11
 1068 010c 16        		.byte	0x16
 1069 010d 00        		.byte	0x0
 1070 010e 05        		.uleb128 0x5
 1071 010f 02        		.byte	0x2
 1072 0110 0000 0000 		.long	.LM12
 1073 0114 15        		.byte	0x15
 1074 0115 00        		.byte	0x0
 1075 0116 05        		.uleb128 0x5
 1076 0117 02        		.byte	0x2
 1077 0118 0000 0000 		.long	.LM13
 1078 011c 1B        		.byte	0x1b
 1079 011d 00        		.byte	0x0
 1080 011e 05        		.uleb128 0x5
 1081 011f 02        		.byte	0x2
 1082 0120 0000 0000 		.long	.LM14
 1083 0124 3F        		.byte	0x3f
 1084 0125 00        		.byte	0x0
 1085 0126 05        		.uleb128 0x5
 1086 0127 02        		.byte	0x2
 1087 0128 0000 0000 		.long	.LM15
 1088 012c 15        		.byte	0x15
 1089 012d 00        		.byte	0x0
 1090 012e 05        		.uleb128 0x5
 1091 012f 02        		.byte	0x2
 1092 0130 0000 0000 		.long	.LM16
 1093 0134 15        		.byte	0x15
 1094 0135 00        		.byte	0x0
 1095 0136 05        		.uleb128 0x5
 1096 0137 02        		.byte	0x2
 1097 0138 0000 0000 		.long	.LM17
 1098 013c 15        		.byte	0x15
 1099 013d 00        		.byte	0x0
 1100 013e 05        		.uleb128 0x5
 1101 013f 02        		.byte	0x2
 1102 0140 0000 0000 		.long	.LM18
 1103 0144 16        		.byte	0x16
 1104 0145 00        		.byte	0x0
 1105 0146 05        		.uleb128 0x5
 1106 0147 02        		.byte	0x2
 1107 0148 0000 0000 		.long	.LM19
 1108 014c 15        		.byte	0x15
 1109 014d 00        		.byte	0x0
 1110 014e 05        		.uleb128 0x5
GAS LISTING C:\Users\ADMINI~1\AppData\Local\Temp/ccyD62cU.s 			page 21


 1111 014f 02        		.byte	0x2
 1112 0150 0000 0000 		.long	.LM20
 1113 0154 15        		.byte	0x15
 1114 0155 00        		.byte	0x0
 1115 0156 05        		.uleb128 0x5
 1116 0157 02        		.byte	0x2
 1117 0158 0000 0000 		.long	.LM21
 1118 015c 15        		.byte	0x15
 1119 015d 00        		.byte	0x0
 1120 015e 05        		.uleb128 0x5
 1121 015f 02        		.byte	0x2
 1122 0160 0000 0000 		.long	.LM22
 1123 0164 17        		.byte	0x17
 1124 0165 00        		.byte	0x0
 1125 0166 05        		.uleb128 0x5
 1126 0167 02        		.byte	0x2
 1127 0168 0000 0000 		.long	.LM23
 1128 016c 15        		.byte	0x15
 1129 016d 00        		.byte	0x0
 1130 016e 05        		.uleb128 0x5
 1131 016f 02        		.byte	0x2
 1132 0170 0000 0000 		.long	.LM24
 1133 0174 16        		.byte	0x16
 1134 0175 00        		.byte	0x0
 1135 0176 05        		.uleb128 0x5
 1136 0177 02        		.byte	0x2
 1137 0178 0000 0000 		.long	.LM25
 1138 017c 15        		.byte	0x15
 1139 017d 00        		.byte	0x0
 1140 017e 05        		.uleb128 0x5
 1141 017f 02        		.byte	0x2
 1142 0180 0000 0000 		.long	.LM26
 1143 0184 17        		.byte	0x17
 1144 0185 00        		.byte	0x0
 1145 0186 05        		.uleb128 0x5
 1146 0187 02        		.byte	0x2
 1147 0188 0000 0000 		.long	.LM27
 1148 018c 15        		.byte	0x15
 1149 018d 00        		.byte	0x0
 1150 018e 05        		.uleb128 0x5
 1151 018f 02        		.byte	0x2
 1152 0190 0000 0000 		.long	.LM28
 1153 0194 17        		.byte	0x17
 1154 0195 00        		.byte	0x0
 1155 0196 05        		.uleb128 0x5
 1156 0197 02        		.byte	0x2
 1157 0198 0000 0000 		.long	.LM29
 1158 019c 1C        		.byte	0x1c
 1159 019d 00        		.byte	0x0
 1160 019e 05        		.uleb128 0x5
 1161 019f 02        		.byte	0x2
 1162 01a0 0000 0000 		.long	.LM30
 1163 01a4 18        		.byte	0x18
 1164 01a5 00        		.byte	0x0
 1165 01a6 05        		.uleb128 0x5
 1166 01a7 02        		.byte	0x2
 1167 01a8 0000 0000 		.long	.LM31
GAS LISTING C:\Users\ADMINI~1\AppData\Local\Temp/ccyD62cU.s 			page 22


 1168 01ac 15        		.byte	0x15
 1169 01ad 00        		.byte	0x0
 1170 01ae 05        		.uleb128 0x5
 1171 01af 02        		.byte	0x2
 1172 01b0 0000 0000 		.long	.LM32
 1173 01b4 04        		.byte	0x4
 1174 01b5 02        		.uleb128 0x2
 1175 01b6 03        		.byte	0x3
 1176 01b7 A77F      		.sleb128 -89
 1177 01b9 01        		.byte	0x1
 1178 01ba 00        		.byte	0x0
 1179 01bb 05        		.uleb128 0x5
 1180 01bc 02        		.byte	0x2
 1181 01bd 0000 0000 		.long	.LM33
 1182 01c1 04        		.byte	0x4
 1183 01c2 01        		.uleb128 0x1
 1184 01c3 71        		.byte	0x71
 1185 01c4 00        		.byte	0x0
 1186 01c5 05        		.uleb128 0x5
 1187 01c6 02        		.byte	0x2
 1188 01c7 0000 0000 		.long	.LM34
 1189 01cb 15        		.byte	0x15
 1190 01cc 00        		.byte	0x0
 1191 01cd 05        		.uleb128 0x5
 1192 01ce 02        		.byte	0x2
 1193 01cf 0000 0000 		.long	.LM35
 1194 01d3 15        		.byte	0x15
 1195 01d4 00        		.byte	0x0
 1196 01d5 05        		.uleb128 0x5
 1197 01d6 02        		.byte	0x2
 1198 01d7 0000 0000 		.long	.LM36
 1199 01db 16        		.byte	0x16
 1200 01dc 00        		.byte	0x0
 1201 01dd 05        		.uleb128 0x5
 1202 01de 02        		.byte	0x2
 1203 01df 0000 0000 		.long	.LM37
 1204 01e3 17        		.byte	0x17
 1205 01e4 00        		.byte	0x0
 1206 01e5 05        		.uleb128 0x5
 1207 01e6 02        		.byte	0x2
 1208 01e7 0000 0000 		.long	.LM38
 1209 01eb 15        		.byte	0x15
 1210 01ec 00        		.byte	0x0
 1211 01ed 05        		.uleb128 0x5
 1212 01ee 02        		.byte	0x2
 1213 01ef 0000 0000 		.long	.LM39
 1214 01f3 17        		.byte	0x17
 1215 01f4 00        		.byte	0x0
 1216 01f5 05        		.uleb128 0x5
 1217 01f6 02        		.byte	0x2
 1218 01f7 0000 0000 		.long	.LM40
 1219 01fb 17        		.byte	0x17
 1220 01fc 00        		.byte	0x0
 1221 01fd 05        		.uleb128 0x5
 1222 01fe 02        		.byte	0x2
 1223 01ff 0000 0000 		.long	.LM41
 1224 0203 17        		.byte	0x17
GAS LISTING C:\Users\ADMINI~1\AppData\Local\Temp/ccyD62cU.s 			page 23


 1225 0204 00        		.byte	0x0
 1226 0205 05        		.uleb128 0x5
 1227 0206 02        		.byte	0x2
 1228 0207 0000 0000 		.long	.LM42
 1229 020b 1A        		.byte	0x1a
 1230 020c 00        		.byte	0x0
 1231 020d 05        		.uleb128 0x5
 1232 020e 02        		.byte	0x2
 1233 020f 0000 0000 		.long	.LM43
 1234 0213 16        		.byte	0x16
 1235 0214 00        		.byte	0x0
 1236 0215 05        		.uleb128 0x5
 1237 0216 02        		.byte	0x2
 1238 0217 0000 0000 		.long	.LM44
 1239 021b 15        		.byte	0x15
 1240 021c 00        		.byte	0x0
 1241 021d 05        		.uleb128 0x5
 1242 021e 02        		.byte	0x2
 1243 021f 0000 0000 		.long	.LM45
 1244 0223 15        		.byte	0x15
 1245 0224 00        		.byte	0x0
 1246 0225 05        		.uleb128 0x5
 1247 0226 02        		.byte	0x2
 1248 0227 0000 0000 		.long	.LM46
 1249 022b 16        		.byte	0x16
 1250 022c 00        		.byte	0x0
 1251 022d 05        		.uleb128 0x5
 1252 022e 02        		.byte	0x2
 1253 022f 0000 0000 		.long	.LM47
 1254 0233 15        		.byte	0x15
 1255 0234 00        		.byte	0x0
 1256 0235 05        		.uleb128 0x5
 1257 0236 02        		.byte	0x2
 1258 0237 0000 0000 		.long	.LM48
 1259 023b 15        		.byte	0x15
 1260 023c 00        		.byte	0x0
 1261 023d 05        		.uleb128 0x5
 1262 023e 02        		.byte	0x2
 1263 023f 0000 0000 		.long	.LM49
 1264 0243 15        		.byte	0x15
 1265 0244 00        		.byte	0x0
 1266 0245 05        		.uleb128 0x5
 1267 0246 02        		.byte	0x2
 1268 0247 0000 0000 		.long	.LM50
 1269 024b 15        		.byte	0x15
 1270 024c 00        		.byte	0x0
 1271 024d 05        		.uleb128 0x5
 1272 024e 02        		.byte	0x2
 1273 024f 0000 0000 		.long	.LM51
 1274 0253 16        		.byte	0x16
 1275 0254 00        		.byte	0x0
 1276 0255 05        		.uleb128 0x5
 1277 0256 02        		.byte	0x2
 1278 0257 0000 0000 		.long	.LM52
 1279 025b 16        		.byte	0x16
 1280 025c 00        		.byte	0x0
 1281 025d 05        		.uleb128 0x5
GAS LISTING C:\Users\ADMINI~1\AppData\Local\Temp/ccyD62cU.s 			page 24


 1282 025e 02        		.byte	0x2
 1283 025f 0000 0000 		.long	.LM53
 1284 0263 15        		.byte	0x15
 1285 0264 00        		.byte	0x0
 1286 0265 05        		.uleb128 0x5
 1287 0266 02        		.byte	0x2
 1288 0267 0000 0000 		.long	.LM54
 1289 026b 15        		.byte	0x15
 1290 026c 00        		.byte	0x0
 1291 026d 05        		.uleb128 0x5
 1292 026e 02        		.byte	0x2
 1293 026f 0000 0000 		.long	.LM55
 1294 0273 18        		.byte	0x18
 1295 0274 00        		.byte	0x0
 1296 0275 05        		.uleb128 0x5
 1297 0276 02        		.byte	0x2
 1298 0277 0000 0000 		.long	.LM56
 1299 027b 15        		.byte	0x15
 1300 027c 00        		.byte	0x0
 1301 027d 05        		.uleb128 0x5
 1302 027e 02        		.byte	0x2
 1303 027f 0000 0000 		.long	.LM57
 1304 0283 15        		.byte	0x15
 1305 0284 00        		.byte	0x0
 1306 0285 05        		.uleb128 0x5
 1307 0286 02        		.byte	0x2
 1308 0287 0000 0000 		.long	.LM58
 1309 028b 15        		.byte	0x15
 1310 028c 00        		.byte	0x0
 1311 028d 05        		.uleb128 0x5
 1312 028e 02        		.byte	0x2
 1313 028f 0000 0000 		.long	.LM59
 1314 0293 17        		.byte	0x17
 1315 0294 00        		.byte	0x0
 1316 0295 05        		.uleb128 0x5
 1317 0296 02        		.byte	0x2
 1318 0297 0000 0000 		.long	.Letext0
 1319 029b 00        		.byte	0x0
 1320 029c 01        		.uleb128 0x1
 1321 029d 01        		.byte	0x1
 1322               	.LELT0:
 1323 029e 1600 0000 		.section	.debug_str,"MS",@progbits,1
 1323      0200 1000 
 1323      0000 0101 
 1323      FB0E 0A00 
 1323      0101 0101 
 1324               	.LASF31:
 1325 0000 656E 6162 		.string	"enable_printf"
 1325      6C65 5F70 
 1325      7269 6E74 
 1325      6600 
 1326               	.LASF30:
 1327 000e 5A3A 5C44 		.string	"Z:\\Documents\\GitHub\\kbdmod\\source"
 1327      6F63 756D 
 1327      656E 7473 
 1327      5C47 6974 
 1327      4875 625C 
GAS LISTING C:\Users\ADMINI~1\AppData\Local\Temp/ccyD62cU.s 			page 25


 1328               	.LASF2:
 1329 0030 7368 6F72 		.string	"short unsigned int"
 1329      7420 756E 
 1329      7369 676E 
 1329      6564 2069 
 1329      6E74 00
 1330               	.LASF22:
 1331 0043 5F5F 7573 		.string	"__us"
 1331      00
 1332               	.LASF10:
 1333 0048 696E 7438 		.string	"int8_t"
 1333      5F74 00
 1334               	.LASF32:
 1335 004f 4450 7075 		.string	"DPpullEn"
 1335      6C6C 456E 
 1335      00
 1336               	.LASF0:
 1337 0058 756E 7369 		.string	"unsigned char"
 1337      676E 6564 
 1337      2063 6861 
 1337      7200 
 1338               	.LASF26:
 1339 0066 706F 7274 		.string	"portInit"
 1339      496E 6974 
 1339      00
 1340               	.LASF20:
 1341 006f 5F64 656C 		.string	"_delay_loop_1"
 1341      6179 5F6C 
 1341      6F6F 705F 
 1341      3100 
 1342               	.LASF13:
 1343 007d 5F64 656C 		.string	"_delay_loop_2"
 1343      6179 5F6C 
 1343      6F6F 705F 
 1343      3200 
 1344               	.LASF4:
 1345 008b 6C6F 6E67 		.string	"long unsigned int"
 1345      2075 6E73 
 1345      6967 6E65 
 1345      6420 696E 
 1345      7400 
 1346               	.LASF14:
 1347 009d 5F64 656C 		.string	"_delay_ms"
 1347      6179 5F6D 
 1347      7300 
 1348               	.LASF28:
 1349 00a7 474E 5520 		.string	"GNU C 4.3.3"
 1349      4320 342E 
 1349      332E 3300 
 1350               	.LASF19:
 1351 00b3 646F 7562 		.string	"double"
 1351      6C65 00
 1352               	.LASF35:
 1353 00ba 6375 725F 		.string	"cur_usbmode"
 1353      7573 626D 
 1353      6F64 6500 
 1354               	.LASF18:
GAS LISTING C:\Users\ADMINI~1\AppData\Local\Temp/ccyD62cU.s 			page 26


 1355 00c6 5F5F 746D 		.string	"__tmp"
 1355      7000 
 1356               	.LASF24:
 1357 00cc 7650 696E 		.string	"vPinC"
 1357      4300 
 1358               	.LASF25:
 1359 00d2 7650 696E 		.string	"vPinF"
 1359      4600 
 1360               	.LASF23:
 1361 00d8 7650 696E 		.string	"vPinG"
 1361      4700 
 1362               	.LASF27:
 1363 00de 6D61 696E 		.string	"main"
 1363      00
 1364               	.LASF33:
 1365 00e3 656E 6162 		.string	"enable"
 1365      6C65 00
 1366               	.LASF8:
 1367 00ea 756E 7369 		.string	"unsigned int"
 1367      676E 6564 
 1367      2069 6E74 
 1367      00
 1368               	.LASF21:
 1369 00f7 5F64 656C 		.string	"_delay_us"
 1369      6179 5F75 
 1369      7300 
 1370               	.LASF6:
 1371 0101 6C6F 6E67 		.string	"long long unsigned int"
 1371      206C 6F6E 
 1371      6720 756E 
 1371      7369 676E 
 1371      6564 2069 
 1372               	.LASF11:
 1373 0118 7569 6E74 		.string	"uint8_t"
 1373      385F 7400 
 1374               	.LASF34:
 1375 0120 6368 6563 		.string	"checkInterface"
 1375      6B49 6E74 
 1375      6572 6661 
 1375      6365 00
 1376               	.LASF7:
 1377 012f 6C6F 6E67 		.string	"long long int"
 1377      206C 6F6E 
 1377      6720 696E 
 1377      7400 
 1378               	.LASF29:
 1379 013d 6D61 696E 		.string	"main.c"
 1379      2E63 00
 1380               	.LASF9:
 1381 0144 6368 6172 		.string	"char"
 1381      00
 1382               	.LASF15:
 1383 0149 5F5F 636F 		.string	"__count"
 1383      756E 7400 
 1384               	.LASF3:
 1385 0151 7368 6F72 		.string	"short int"
 1385      7420 696E 
GAS LISTING C:\Users\ADMINI~1\AppData\Local\Temp/ccyD62cU.s 			page 27


 1385      7400 
 1386               	.LASF12:
 1387 015b 7569 6E74 		.string	"uint16_t"
 1387      3136 5F74 
 1387      00
 1388               	.LASF17:
 1389 0164 5F5F 7469 		.string	"__ticks"
 1389      636B 7300 
 1390               	.LASF5:
 1391 016c 6C6F 6E67 		.string	"long int"
 1391      2069 6E74 
 1391      00
 1392               	.LASF1:
 1393 0175 7369 676E 		.string	"signed char"
 1393      6564 2063 
 1393      6861 7200 
 1394               	.LASF36:
 1395 0181 7573 626D 		.string	"usbmode"
 1395      6F64 6500 
 1396               	.LASF16:
 1397 0189 5F5F 6D73 		.string	"__ms"
 1397      00
 1398               	.global __do_copy_data
GAS LISTING C:\Users\ADMINI~1\AppData\Local\Temp/ccyD62cU.s 			page 28


DEFINED SYMBOLS
                            *ABS*:00000000 main.c
C:\Users\ADMINI~1\AppData\Local\Temp/ccyD62cU.s:2      *ABS*:0000003f __SREG__
C:\Users\ADMINI~1\AppData\Local\Temp/ccyD62cU.s:3      *ABS*:0000003e __SP_H__
C:\Users\ADMINI~1\AppData\Local\Temp/ccyD62cU.s:4      *ABS*:0000003d __SP_L__
C:\Users\ADMINI~1\AppData\Local\Temp/ccyD62cU.s:5      *ABS*:00000034 __CCP__
C:\Users\ADMINI~1\AppData\Local\Temp/ccyD62cU.s:6      *ABS*:00000000 __tmp_reg__
C:\Users\ADMINI~1\AppData\Local\Temp/ccyD62cU.s:7      *ABS*:00000001 __zero_reg__
C:\Users\ADMINI~1\AppData\Local\Temp/ccyD62cU.s:18     .text:00000000 enable_printf
C:\Users\ADMINI~1\AppData\Local\Temp/ccyD62cU.s:30     .text:00000002 DPpullEn
C:\Users\ADMINI~1\AppData\Local\Temp/ccyD62cU.s:62     .text:0000001a portInit
C:\Users\ADMINI~1\AppData\Local\Temp/ccyD62cU.s:111    .text:00000052 checkInterface
C:\Users\ADMINI~1\AppData\Local\Temp/ccyD62cU.s:185    .text:0000009c main
C:\Users\ADMINI~1\AppData\Local\Temp/ccyD62cU.s:245    .data:00000000 usbmode

UNDEFINED SYMBOLS
__eewr_byte_m128
__eerd_byte_m128
timerInit
timer0PWMInit
timer1PWMInit
timer3PWMInit
keymap_init
led_check
led_mode_init
usbmain
timer2IntEnable
ps2main
__do_copy_data
