GAS LISTING C:\Users\ADMINI~1\AppData\Local\Temp/ccVnQtUk.s 			page 1


   1               		.file	"timer128.c"
   2               	__SREG__ = 0x3f
   3               	__SP_H__ = 0x3e
   4               	__SP_L__ = 0x3d
   5               	__CCP__  = 0x34
   6               	__tmp_reg__ = 0
   7               	__zero_reg__ = 1
   8               		.section	.debug_abbrev,"",@progbits
   9               	.Ldebug_abbrev0:
  10               		.section	.debug_info,"",@progbits
  11               	.Ldebug_info0:
  12               		.section	.debug_line,"",@progbits
  13               	.Ldebug_line0:
  14               		.text
  15               	.Ltext0:
  16               	.global	delay_us
  17               		.type	delay_us, @function
  18               	delay_us:
  19               	.LFB2:
  20               	.LM1:
  21               	.LVL0:
  22               	/* prologue: function */
  23               	/* frame size = 0 */
  24               	/* epilogue start */
  25               	.LM2:
  26 0000 0895      		ret
  27               	.LFE2:
  28               		.size	delay_us, .-delay_us
  29               	.global	timer0Init
  30               		.type	timer0Init, @function
  31               	timer0Init:
  32               	.LFB4:
  33               	.LM3:
  34               	/* prologue: function */
  35               	/* frame size = 0 */
  36               	.LBB39:
  37               	.LBB40:
  38               	.LM4:
  39 0002 83B7      		in r24,83-32
  40 0004 887F      		andi r24,lo8(-8)
  41 0006 8260      		ori r24,lo8(2)
  42 0008 83BF      		out 83-32,r24
  43               	.LBE40:
  44               	.LBE39:
  45               	.LM5:
  46 000a 12BE      		out 82-32,__zero_reg__
  47               	.LBB41:
  48               	.LBB42:
  49               	.LM6:
  50 000c 1092 0000 		sts Timer0Reg0,__zero_reg__
  51 0010 1092 0000 		sts (Timer0Reg0)+1,__zero_reg__
  52 0014 1092 0000 		sts (Timer0Reg0)+2,__zero_reg__
  53 0018 1092 0000 		sts (Timer0Reg0)+3,__zero_reg__
  54               	.LM7:
  55 001c 1092 0000 		sts Timer0Reg1,__zero_reg__
  56 0020 1092 0000 		sts (Timer0Reg1)+1,__zero_reg__
  57 0024 1092 0000 		sts (Timer0Reg1)+2,__zero_reg__
GAS LISTING C:\Users\ADMINI~1\AppData\Local\Temp/ccVnQtUk.s 			page 2


  58 0028 1092 0000 		sts (Timer0Reg1)+3,__zero_reg__
  59               	/* epilogue start */
  60               	.LBE42:
  61               	.LBE41:
  62               	.LM8:
  63 002c 0895      		ret
  64               	.LFE4:
  65               		.size	timer0Init, .-timer0Init
  66               	.global	timer1Init
  67               		.type	timer1Init, @function
  68               	timer1Init:
  69               	.LFB5:
  70               	.LM9:
  71               	/* prologue: function */
  72               	/* frame size = 0 */
  73               	.LBB43:
  74               	.LBB44:
  75               	.LM10:
  76 002e 8EB5      		in r24,78-32
  77 0030 887F      		andi r24,lo8(-8)
  78 0032 8260      		ori r24,lo8(2)
  79 0034 8EBD      		out 78-32,r24
  80               	.LBE44:
  81               	.LBE43:
  82               	.LM11:
  83 0036 1DBC      		out 77-32,__zero_reg__
  84               	.LM12:
  85 0038 1CBC      		out 76-32,__zero_reg__
  86               	/* epilogue start */
  87               	.LM13:
  88 003a 0895      		ret
  89               	.LFE5:
  90               		.size	timer1Init, .-timer1Init
  91               	.global	timer2Init
  92               		.type	timer2Init, @function
  93               	timer2Init:
  94               	.LFB6:
  95               	.LM14:
  96               	/* prologue: function */
  97               	/* frame size = 0 */
  98               	.LBB45:
  99               	.LBB46:
 100               	.LM15:
 101 003c 85B5      		in r24,69-32
 102 003e 887F      		andi r24,lo8(-8)
 103 0040 8260      		ori r24,lo8(2)
 104 0042 85BD      		out 69-32,r24
 105               	.LBE46:
 106               	.LBE45:
 107               	.LM16:
 108 0044 14BC      		out 68-32,__zero_reg__
 109               	.LBB47:
 110               	.LBB48:
 111               	.LM17:
 112 0046 1092 0000 		sts Timer2Reg0,__zero_reg__
 113 004a 1092 0000 		sts (Timer2Reg0)+1,__zero_reg__
 114 004e 1092 0000 		sts (Timer2Reg0)+2,__zero_reg__
GAS LISTING C:\Users\ADMINI~1\AppData\Local\Temp/ccVnQtUk.s 			page 3


 115 0052 1092 0000 		sts (Timer2Reg0)+3,__zero_reg__
 116               	.LM18:
 117 0056 1092 0000 		sts Timer2Reg1,__zero_reg__
 118 005a 1092 0000 		sts (Timer2Reg1)+1,__zero_reg__
 119 005e 1092 0000 		sts (Timer2Reg1)+2,__zero_reg__
 120 0062 1092 0000 		sts (Timer2Reg1)+3,__zero_reg__
 121               	/* epilogue start */
 122               	.LBE48:
 123               	.LBE47:
 124               	.LM19:
 125 0066 0895      		ret
 126               	.LFE6:
 127               		.size	timer2Init, .-timer2Init
 128               	.global	timerInit
 129               		.type	timerInit, @function
 130               	timerInit:
 131               	.LFB3:
 132               	.LM20:
 133               	/* prologue: function */
 134               	/* frame size = 0 */
 135               	.LM21:
 136 0068 80E0      		ldi r24,lo8(0)
 137 006a 90E0      		ldi r25,hi8(0)
 138               	.L10:
 139               	.LBB49:
 140               	.LBB50:
 141               	.LM22:
 142 006c FC01      		movw r30,r24
 143 006e EE0F      		lsl r30
 144 0070 FF1F      		rol r31
 145 0072 E050      		subi r30,lo8(-(TimerIntFunc))
 146 0074 F040      		sbci r31,hi8(-(TimerIntFunc))
 147 0076 1182      		std Z+1,__zero_reg__
 148 0078 1082      		st Z,__zero_reg__
 149 007a 0196      		adiw r24,1
 150               	.LBE50:
 151               	.LBE49:
 152               	.LM23:
 153 007c 8E30      		cpi r24,14
 154 007e 9105      		cpc r25,__zero_reg__
 155 0080 01F4      		brne .L10
 156               	.LM24:
 157 0082 0E94 0000 		call timer0Init
 158               	.LBB51:
 159               	.LBB52:
 160               	.LBB53:
 161               	.LBB54:
 162               	.LM25:
 163 0086 8EB5      		in r24,78-32
 164 0088 887F      		andi r24,lo8(-8)
 165 008a 8260      		ori r24,lo8(2)
 166 008c 8EBD      		out 78-32,r24
 167               	.LBE54:
 168               	.LBE53:
 169               	.LM26:
 170 008e 1DBC      		out 77-32,__zero_reg__
 171               	.LM27:
GAS LISTING C:\Users\ADMINI~1\AppData\Local\Temp/ccVnQtUk.s 			page 4


 172 0090 1CBC      		out 76-32,__zero_reg__
 173               	.LBE52:
 174               	.LBE51:
 175               	.LM28:
 176 0092 0E94 0000 		call timer2Init
 177               	.LBB55:
 178               	.LBB56:
 179               	.LBB57:
 180               	.LBB58:
 181               	.LM29:
 182 0096 8091 8A00 		lds r24,138
 183 009a 887F      		andi r24,lo8(-8)
 184 009c 8260      		ori r24,lo8(2)
 185 009e 8093 8A00 		sts 138,r24
 186               	.LBE58:
 187               	.LBE57:
 188               	.LM30:
 189 00a2 1092 8900 		sts 137,__zero_reg__
 190               	.LM31:
 191 00a6 1092 8800 		sts 136,__zero_reg__
 192               	.LBE56:
 193               	.LBE55:
 194               	.LM32:
 195               	/* #APP */
 196               	 ;  89 "avrlib/timer128.c" 1
 197 00aa 7894      		sei
 198               	 ;  0 "" 2
 199               	/* epilogue start */
 200               	.LM33:
 201               	/* #NOAPP */
 202 00ac 0895      		ret
 203               	.LFE3:
 204               		.size	timerInit, .-timerInit
 205               	.global	timer2IntEnable
 206               		.type	timer2IntEnable, @function
 207               	timer2IntEnable:
 208               	.LFB7:
 209               	.LM34:
 210               	/* prologue: function */
 211               	/* frame size = 0 */
 212               	.LM35:
 213 00ae 87B7      		in r24,87-32
 214 00b0 8064      		ori r24,lo8(64)
 215 00b2 87BF      		out 87-32,r24
 216               	/* epilogue start */
 217               	.LM36:
 218 00b4 0895      		ret
 219               	.LFE7:
 220               		.size	timer2IntEnable, .-timer2IntEnable
 221               	.global	timer3Init
 222               		.type	timer3Init, @function
 223               	timer3Init:
 224               	.LFB8:
 225               	.LM37:
 226               	/* prologue: function */
 227               	/* frame size = 0 */
 228               	.LBB59:
GAS LISTING C:\Users\ADMINI~1\AppData\Local\Temp/ccVnQtUk.s 			page 5


 229               	.LBB60:
 230               	.LM38:
 231 00b6 EAE8      		ldi r30,lo8(138)
 232 00b8 F0E0      		ldi r31,hi8(138)
 233 00ba 8081      		ld r24,Z
 234 00bc 887F      		andi r24,lo8(-8)
 235 00be 8260      		ori r24,lo8(2)
 236 00c0 8083      		st Z,r24
 237               	.LBE60:
 238               	.LBE59:
 239               	.LM39:
 240 00c2 1092 8900 		sts 137,__zero_reg__
 241               	.LM40:
 242 00c6 1092 8800 		sts 136,__zero_reg__
 243               	/* epilogue start */
 244               	.LM41:
 245 00ca 0895      		ret
 246               	.LFE8:
 247               		.size	timer3Init, .-timer3Init
 248               	.global	timer0SetPrescaler
 249               		.type	timer0SetPrescaler, @function
 250               	timer0SetPrescaler:
 251               	.LFB9:
 252               	.LM42:
 253               	.LVL1:
 254               	/* prologue: function */
 255               	/* frame size = 0 */
 256               	.LM43:
 257 00cc 93B7      		in r25,83-32
 258 00ce 987F      		andi r25,lo8(-8)
 259 00d0 982B      		or r25,r24
 260 00d2 93BF      		out 83-32,r25
 261               	/* epilogue start */
 262               	.LM44:
 263 00d4 0895      		ret
 264               	.LFE9:
 265               		.size	timer0SetPrescaler, .-timer0SetPrescaler
 266               	.global	timer1SetPrescaler
 267               		.type	timer1SetPrescaler, @function
 268               	timer1SetPrescaler:
 269               	.LFB10:
 270               	.LM45:
 271               	.LVL2:
 272               	/* prologue: function */
 273               	/* frame size = 0 */
 274               	.LM46:
 275 00d6 9EB5      		in r25,78-32
 276 00d8 987F      		andi r25,lo8(-8)
 277 00da 982B      		or r25,r24
 278 00dc 9EBD      		out 78-32,r25
 279               	/* epilogue start */
 280               	.LM47:
 281 00de 0895      		ret
 282               	.LFE10:
 283               		.size	timer1SetPrescaler, .-timer1SetPrescaler
 284               	.global	timer2SetPrescaler
 285               		.type	timer2SetPrescaler, @function
GAS LISTING C:\Users\ADMINI~1\AppData\Local\Temp/ccVnQtUk.s 			page 6


 286               	timer2SetPrescaler:
 287               	.LFB11:
 288               	.LM48:
 289               	.LVL3:
 290               	/* prologue: function */
 291               	/* frame size = 0 */
 292               	.LM49:
 293 00e0 95B5      		in r25,69-32
 294 00e2 987F      		andi r25,lo8(-8)
 295 00e4 982B      		or r25,r24
 296 00e6 95BD      		out 69-32,r25
 297               	/* epilogue start */
 298               	.LM50:
 299 00e8 0895      		ret
 300               	.LFE11:
 301               		.size	timer2SetPrescaler, .-timer2SetPrescaler
 302               	.global	timer3SetPrescaler
 303               		.type	timer3SetPrescaler, @function
 304               	timer3SetPrescaler:
 305               	.LFB12:
 306               	.LM51:
 307               	.LVL4:
 308               	/* prologue: function */
 309               	/* frame size = 0 */
 310               	.LM52:
 311 00ea EAE8      		ldi r30,lo8(138)
 312 00ec F0E0      		ldi r31,hi8(138)
 313 00ee 9081      		ld r25,Z
 314 00f0 987F      		andi r25,lo8(-8)
 315 00f2 982B      		or r25,r24
 316 00f4 9083      		st Z,r25
 317               	/* epilogue start */
 318               	.LM53:
 319 00f6 0895      		ret
 320               	.LFE12:
 321               		.size	timer3SetPrescaler, .-timer3SetPrescaler
 322               	.global	timer0GetPrescaler
 323               		.type	timer0GetPrescaler, @function
 324               	timer0GetPrescaler:
 325               	.LFB13:
 326               	.LM54:
 327               	/* prologue: function */
 328               	/* frame size = 0 */
 329               	.LBB61:
 330               	.LM55:
 331 00f8 83B7      		in r24,83-32
 332 00fa E82F      		mov r30,r24
 333               	.LVL5:
 334 00fc F0E0      		ldi r31,lo8(0)
 335               	.LVL6:
 336 00fe E770      		andi r30,lo8(7)
 337 0100 F070      		andi r31,hi8(7)
 338               	.LVL7:
 339 0102 EE0F      		lsl r30
 340 0104 FF1F      		rol r31
 341 0106 E050      		subi r30,lo8(-(TimerPrescaleFactor))
 342 0108 F040      		sbci r31,hi8(-(TimerPrescaleFactor))
GAS LISTING C:\Users\ADMINI~1\AppData\Local\Temp/ccVnQtUk.s 			page 7


 343               	/* #APP */
 344               	 ;  162 "avrlib/timer128.c" 1
 345 010a 2591      		lpm r18, Z+
 346 010c 3491      		lpm r19, Z
 347               		
 348               	 ;  0 "" 2
 349               	.LVL8:
 350               	/* #NOAPP */
 351               	.LBE61:
 352               	.LM56:
 353 010e C901      		movw r24,r18
 354               	.LVL9:
 355               	/* epilogue start */
 356 0110 0895      		ret
 357               	.LFE13:
 358               		.size	timer0GetPrescaler, .-timer0GetPrescaler
 359               	.global	timer1GetPrescaler
 360               		.type	timer1GetPrescaler, @function
 361               	timer1GetPrescaler:
 362               	.LFB14:
 363               	.LM57:
 364               	/* prologue: function */
 365               	/* frame size = 0 */
 366               	.LBB62:
 367               	.LM58:
 368 0112 8EB5      		in r24,78-32
 369 0114 E82F      		mov r30,r24
 370               	.LVL10:
 371 0116 F0E0      		ldi r31,lo8(0)
 372               	.LVL11:
 373 0118 E770      		andi r30,lo8(7)
 374 011a F070      		andi r31,hi8(7)
 375               	.LVL12:
 376 011c EE0F      		lsl r30
 377 011e FF1F      		rol r31
 378 0120 E050      		subi r30,lo8(-(TimerPrescaleFactor))
 379 0122 F040      		sbci r31,hi8(-(TimerPrescaleFactor))
 380               	/* #APP */
 381               	 ;  168 "avrlib/timer128.c" 1
 382 0124 2591      		lpm r18, Z+
 383 0126 3491      		lpm r19, Z
 384               		
 385               	 ;  0 "" 2
 386               	.LVL13:
 387               	/* #NOAPP */
 388               	.LBE62:
 389               	.LM59:
 390 0128 C901      		movw r24,r18
 391               	.LVL14:
 392               	/* epilogue start */
 393 012a 0895      		ret
 394               	.LFE14:
 395               		.size	timer1GetPrescaler, .-timer1GetPrescaler
 396               	.global	timer2GetPrescaler
 397               		.type	timer2GetPrescaler, @function
 398               	timer2GetPrescaler:
 399               	.LFB15:
GAS LISTING C:\Users\ADMINI~1\AppData\Local\Temp/ccVnQtUk.s 			page 8


 400               	.LM60:
 401               	/* prologue: function */
 402               	/* frame size = 0 */
 403               	.LBB63:
 404               	.LM61:
 405 012c 85B5      		in r24,69-32
 406 012e E82F      		mov r30,r24
 407               	.LVL15:
 408 0130 F0E0      		ldi r31,lo8(0)
 409               	.LVL16:
 410 0132 E770      		andi r30,lo8(7)
 411 0134 F070      		andi r31,hi8(7)
 412               	.LVL17:
 413 0136 EE0F      		lsl r30
 414 0138 FF1F      		rol r31
 415 013a E050      		subi r30,lo8(-(TimerPrescaleFactor))
 416 013c F040      		sbci r31,hi8(-(TimerPrescaleFactor))
 417               	/* #APP */
 418               	 ;  174 "avrlib/timer128.c" 1
 419 013e 2591      		lpm r18, Z+
 420 0140 3491      		lpm r19, Z
 421               		
 422               	 ;  0 "" 2
 423               	.LVL18:
 424               	/* #NOAPP */
 425               	.LBE63:
 426               	.LM62:
 427 0142 C901      		movw r24,r18
 428               	.LVL19:
 429               	/* epilogue start */
 430 0144 0895      		ret
 431               	.LFE15:
 432               		.size	timer2GetPrescaler, .-timer2GetPrescaler
 433               	.global	timer3GetPrescaler
 434               		.type	timer3GetPrescaler, @function
 435               	timer3GetPrescaler:
 436               	.LFB16:
 437               	.LM63:
 438               	/* prologue: function */
 439               	/* frame size = 0 */
 440               	.LBB64:
 441               	.LM64:
 442 0146 8091 8A00 		lds r24,138
 443 014a E82F      		mov r30,r24
 444               	.LVL20:
 445 014c F0E0      		ldi r31,lo8(0)
 446               	.LVL21:
 447 014e E770      		andi r30,lo8(7)
 448 0150 F070      		andi r31,hi8(7)
 449               	.LVL22:
 450 0152 EE0F      		lsl r30
 451 0154 FF1F      		rol r31
 452 0156 E050      		subi r30,lo8(-(TimerPrescaleFactor))
 453 0158 F040      		sbci r31,hi8(-(TimerPrescaleFactor))
 454               	/* #APP */
 455               	 ;  180 "avrlib/timer128.c" 1
 456 015a 2591      		lpm r18, Z+
GAS LISTING C:\Users\ADMINI~1\AppData\Local\Temp/ccVnQtUk.s 			page 9


 457 015c 3491      		lpm r19, Z
 458               		
 459               	 ;  0 "" 2
 460               	.LVL23:
 461               	/* #NOAPP */
 462               	.LBE64:
 463               	.LM65:
 464 015e C901      		movw r24,r18
 465               	.LVL24:
 466               	/* epilogue start */
 467 0160 0895      		ret
 468               	.LFE16:
 469               		.size	timer3GetPrescaler, .-timer3GetPrescaler
 470               	.global	timerAttach
 471               		.type	timerAttach, @function
 472               	timerAttach:
 473               	.LFB17:
 474               	.LM66:
 475               	.LVL25:
 476               	/* prologue: function */
 477               	/* frame size = 0 */
 478               	.LM67:
 479 0162 8E30      		cpi r24,lo8(14)
 480 0164 00F4      		brsh .L35
 481               	.LM68:
 482 0166 E82F      		mov r30,r24
 483 0168 F0E0      		ldi r31,lo8(0)
 484 016a EE0F      		lsl r30
 485 016c FF1F      		rol r31
 486 016e E050      		subi r30,lo8(-(TimerIntFunc))
 487 0170 F040      		sbci r31,hi8(-(TimerIntFunc))
 488 0172 7183      		std Z+1,r23
 489 0174 6083      		st Z,r22
 490               	.L35:
 491 0176 0895      		ret
 492               	.LFE17:
 493               		.size	timerAttach, .-timerAttach
 494               	.global	timerDetach
 495               		.type	timerDetach, @function
 496               	timerDetach:
 497               	.LFB18:
 498               	.LM69:
 499               	.LVL26:
 500               	/* prologue: function */
 501               	/* frame size = 0 */
 502               	.LM70:
 503 0178 8E30      		cpi r24,lo8(14)
 504 017a 00F4      		brsh .L38
 505               	.LM71:
 506 017c E82F      		mov r30,r24
 507 017e F0E0      		ldi r31,lo8(0)
 508 0180 EE0F      		lsl r30
 509 0182 FF1F      		rol r31
 510 0184 E050      		subi r30,lo8(-(TimerIntFunc))
 511 0186 F040      		sbci r31,hi8(-(TimerIntFunc))
 512 0188 1182      		std Z+1,__zero_reg__
 513 018a 1082      		st Z,__zero_reg__
GAS LISTING C:\Users\ADMINI~1\AppData\Local\Temp/ccVnQtUk.s 			page 10


 514               	.L38:
 515 018c 0895      		ret
 516               	.LFE18:
 517               		.size	timerDetach, .-timerDetach
 518               	.global	timerPause
 519               		.type	timerPause, @function
 520               	timerPause:
 521               	.LFB19:
 522               	.LM72:
 523               	.LVL27:
 524 018e EF92      		push r14
 525 0190 FF92      		push r15
 526 0192 0F93      		push r16
 527 0194 1F93      		push r17
 528 0196 CF93      		push r28
 529 0198 DF93      		push r29
 530               	/* prologue: function */
 531               	/* frame size = 0 */
 532 019a EC01      		movw r28,r24
 533               	.LM73:
 534 019c 14B5      		in r17,68-32
 535               	.LVL28:
 536               	.LM74:
 537 019e 1092 0000 		sts TimerPauseReg,__zero_reg__
 538 01a2 1092 0000 		sts (TimerPauseReg)+1,__zero_reg__
 539 01a6 1092 0000 		sts (TimerPauseReg)+2,__zero_reg__
 540 01aa 1092 0000 		sts (TimerPauseReg)+3,__zero_reg__
 541               	.LBB65:
 542               	.LBB66:
 543               	.LBB67:
 544               	.LM75:
 545 01ae 85B5      		in r24,69-32
 546               	.LVL29:
 547 01b0 E82F      		mov r30,r24
 548               	.LVL30:
 549 01b2 F0E0      		ldi r31,lo8(0)
 550               	.LVL31:
 551 01b4 E770      		andi r30,lo8(7)
 552 01b6 F070      		andi r31,hi8(7)
 553               	.LVL32:
 554 01b8 EE0F      		lsl r30
 555 01ba FF1F      		rol r31
 556 01bc E050      		subi r30,lo8(-(TimerPrescaleFactor))
 557 01be F040      		sbci r31,hi8(-(TimerPrescaleFactor))
 558               	/* #APP */
 559               	 ;  174 "avrlib/timer128.c" 1
 560 01c0 2591      		lpm r18, Z+
 561 01c2 3491      		lpm r19, Z
 562               		
 563               	 ;  0 "" 2
 564               	.LVL33:
 565               	/* #NOAPP */
 566               	.LBE67:
 567               	.LBE66:
 568               	.LBE65:
 569               	.LM76:
 570 01c4 40E0      		ldi r20,lo8(0)
GAS LISTING C:\Users\ADMINI~1\AppData\Local\Temp/ccVnQtUk.s 			page 11


 571 01c6 50E0      		ldi r21,hi8(0)
 572               	.LVL34:
 573 01c8 60E0      		ldi r22,lo8(12000000)
 574 01ca 7BE1      		ldi r23,hi8(12000000)
 575 01cc 87EB      		ldi r24,hlo8(12000000)
 576 01ce 90E0      		ldi r25,hhi8(12000000)
 577 01d0 0E94 0000 		call __udivmodsi4
 578               	.LVL35:
 579 01d4 B901      		movw r22,r18
 580 01d6 CA01      		movw r24,r20
 581               	.LVL36:
 582               	.LM77:
 583 01d8 693B      		cpi r22,lo8(429497)
 584 01da 2DE8      		ldi r18,hi8(429497)
 585 01dc 7207      		cpc r23,r18
 586 01de 26E0      		ldi r18,hlo8(429497)
 587 01e0 8207      		cpc r24,r18
 588 01e2 20E0      		ldi r18,hhi8(429497)
 589 01e4 9207      		cpc r25,r18
 590               	.LVL37:
 591 01e6 00F4      		brsh .L40
 592 01e8 37E2      		ldi r19,hi8(10001)
 593 01ea C131      		cpi r28,lo8(10001)
 594 01ec D307      		cpc r29,r19
 595 01ee 00F4      		brsh .L40
 596               	.LM78:
 597 01f0 9E01      		movw r18,r28
 598 01f2 40E0      		ldi r20,lo8(0)
 599 01f4 50E0      		ldi r21,hi8(0)
 600               	.LVL38:
 601 01f6 0E94 0000 		call __mulsi3
 602               	.LVL39:
 603 01fa 28EE      		ldi r18,lo8(1000)
 604 01fc 33E0      		ldi r19,hi8(1000)
 605 01fe 40E0      		ldi r20,hlo8(1000)
 606 0200 50E0      		ldi r21,hhi8(1000)
 607 0202 0E94 0000 		call __udivmodsi4
 608 0206 C901      		movw r24,r18
 609 0208 DA01      		movw r26,r20
 610               	.LVL40:
 611 020a BC01      		movw r22,r24
 612 020c CD01      		movw r24,r26
 613               	.LVL41:
 614 020e 00C0      		rjmp .L41
 615               	.LVL42:
 616               	.L40:
 617               	.LM79:
 618 0210 28EE      		ldi r18,lo8(1000)
 619 0212 33E0      		ldi r19,hi8(1000)
 620 0214 40E0      		ldi r20,hlo8(1000)
 621 0216 50E0      		ldi r21,hhi8(1000)
 622 0218 0E94 0000 		call __udivmodsi4
 623               	.LVL43:
 624 021c CA01      		movw r24,r20
 625 021e B901      		movw r22,r18
 626 0220 9E01      		movw r18,r28
 627 0222 40E0      		ldi r20,lo8(0)
GAS LISTING C:\Users\ADMINI~1\AppData\Local\Temp/ccVnQtUk.s 			page 12


 628 0224 50E0      		ldi r21,hi8(0)
 629               	.LVL44:
 630 0226 0E94 0000 		call __mulsi3
 631 022a 00C0      		rjmp .L41
 632               	.L42:
 633               	.LM80:
 634 022c 8091 0000 		lds r24,TimerPauseReg
 635 0230 9091 0000 		lds r25,(TimerPauseReg)+1
 636 0234 A091 0000 		lds r26,(TimerPauseReg)+2
 637 0238 B091 0000 		lds r27,(TimerPauseReg)+3
 638               	.LM81:
 639 023c 85B7      		in r24,85-32
 640 023e 837E      		andi r24,lo8(-29)
 641 0240 85BF      		out 85-32,r24
 642               	.LM82:
 643 0242 85B7      		in r24,85-32
 644 0244 8062      		ori r24,lo8(32)
 645 0246 85BF      		out 85-32,r24
 646               	/* #APP */
 647               	 ;  233 "avrlib/timer128.c" 1
 648 0248 8895      		sleep
 649               		
 650               	 ;  0 "" 2
 651               	/* #NOAPP */
 652 024a 85B7      		in r24,85-32
 653 024c 8F7D      		andi r24,lo8(-33)
 654 024e 85BF      		out 85-32,r24
 655 0250 00C0      		rjmp .L44
 656               	.LVL45:
 657               	.L41:
 658               	.LM83:
 659 0252 9B01      		movw r18,r22
 660 0254 AC01      		movw r20,r24
 661 0256 210F      		add r18,r17
 662 0258 311D      		adc r19,__zero_reg__
 663 025a 411D      		adc r20,__zero_reg__
 664 025c 511D      		adc r21,__zero_reg__
 665 025e 7901      		movw r14,r18
 666 0260 8A01      		movw r16,r20
 667               	.L44:
 668 0262 2091 0000 		lds r18,TimerPauseReg
 669 0266 3091 0000 		lds r19,(TimerPauseReg)+1
 670 026a 4091 0000 		lds r20,(TimerPauseReg)+2
 671 026e 5091 0000 		lds r21,(TimerPauseReg)+3
 672 0272 84B5      		in r24,68-32
 673 0274 90E0      		ldi r25,lo8(0)
 674 0276 A0E0      		ldi r26,lo8(0)
 675 0278 B0E0      		ldi r27,hi8(0)
 676 027a 542F      		mov r21,r20
 677 027c 432F      		mov r20,r19
 678 027e 322F      		mov r19,r18
 679 0280 2227      		clr r18
 680               	.LVL46:
 681 0282 822B      		or r24,r18
 682 0284 932B      		or r25,r19
 683 0286 A42B      		or r26,r20
 684 0288 B52B      		or r27,r21
GAS LISTING C:\Users\ADMINI~1\AppData\Local\Temp/ccVnQtUk.s 			page 13


 685 028a 8E15      		cp r24,r14
 686 028c 9F05      		cpc r25,r15
 687 028e A007      		cpc r26,r16
 688 0290 B107      		cpc r27,r17
 689 0292 00F0      		brlo .L42
 690               	/* epilogue start */
 691               	.LM84:
 692 0294 DF91      		pop r29
 693 0296 CF91      		pop r28
 694               	.LVL47:
 695 0298 1F91      		pop r17
 696               	.LVL48:
 697 029a 0F91      		pop r16
 698 029c FF90      		pop r15
 699 029e EF90      		pop r14
 700 02a0 0895      		ret
 701               	.LFE19:
 702               		.size	timerPause, .-timerPause
 703               	.global	timer0ClearOverflowCount
 704               		.type	timer0ClearOverflowCount, @function
 705               	timer0ClearOverflowCount:
 706               	.LFB20:
 707               	.LM85:
 708               	/* prologue: function */
 709               	/* frame size = 0 */
 710               	.LM86:
 711 02a2 1092 0000 		sts Timer0Reg0,__zero_reg__
 712 02a6 1092 0000 		sts (Timer0Reg0)+1,__zero_reg__
 713 02aa 1092 0000 		sts (Timer0Reg0)+2,__zero_reg__
 714 02ae 1092 0000 		sts (Timer0Reg0)+3,__zero_reg__
 715               	.LM87:
 716 02b2 1092 0000 		sts Timer0Reg1,__zero_reg__
 717 02b6 1092 0000 		sts (Timer0Reg1)+1,__zero_reg__
 718 02ba 1092 0000 		sts (Timer0Reg1)+2,__zero_reg__
 719 02be 1092 0000 		sts (Timer0Reg1)+3,__zero_reg__
 720               	/* epilogue start */
 721               	.LM88:
 722 02c2 0895      		ret
 723               	.LFE20:
 724               		.size	timer0ClearOverflowCount, .-timer0ClearOverflowCount
 725               	.global	timer0GetOverflowCount
 726               		.type	timer0GetOverflowCount, @function
 727               	timer0GetOverflowCount:
 728               	.LFB21:
 729               	.LM89:
 730               	/* prologue: function */
 731               	/* frame size = 0 */
 732               	.LM90:
 733 02c4 2091 0000 		lds r18,Timer0Reg0
 734 02c8 3091 0000 		lds r19,(Timer0Reg0)+1
 735 02cc 4091 0000 		lds r20,(Timer0Reg0)+2
 736 02d0 5091 0000 		lds r21,(Timer0Reg0)+3
 737               	.LM91:
 738 02d4 B901      		movw r22,r18
 739 02d6 CA01      		movw r24,r20
 740               	/* epilogue start */
 741 02d8 0895      		ret
GAS LISTING C:\Users\ADMINI~1\AppData\Local\Temp/ccVnQtUk.s 			page 14


 742               	.LFE21:
 743               		.size	timer0GetOverflowCount, .-timer0GetOverflowCount
 744               	.global	timer2ClearOverflowCount
 745               		.type	timer2ClearOverflowCount, @function
 746               	timer2ClearOverflowCount:
 747               	.LFB22:
 748               	.LM92:
 749               	/* prologue: function */
 750               	/* frame size = 0 */
 751               	.LM93:
 752 02da 1092 0000 		sts Timer2Reg0,__zero_reg__
 753 02de 1092 0000 		sts (Timer2Reg0)+1,__zero_reg__
 754 02e2 1092 0000 		sts (Timer2Reg0)+2,__zero_reg__
 755 02e6 1092 0000 		sts (Timer2Reg0)+3,__zero_reg__
 756               	.LM94:
 757 02ea 1092 0000 		sts Timer2Reg1,__zero_reg__
 758 02ee 1092 0000 		sts (Timer2Reg1)+1,__zero_reg__
 759 02f2 1092 0000 		sts (Timer2Reg1)+2,__zero_reg__
 760 02f6 1092 0000 		sts (Timer2Reg1)+3,__zero_reg__
 761               	/* epilogue start */
 762               	.LM95:
 763 02fa 0895      		ret
 764               	.LFE22:
 765               		.size	timer2ClearOverflowCount, .-timer2ClearOverflowCount
 766               	.global	timer2GetOverflowCount
 767               		.type	timer2GetOverflowCount, @function
 768               	timer2GetOverflowCount:
 769               	.LFB23:
 770               	.LM96:
 771               	/* prologue: function */
 772               	/* frame size = 0 */
 773               	.LM97:
 774 02fc 2091 0000 		lds r18,Timer2Reg0
 775 0300 3091 0000 		lds r19,(Timer2Reg0)+1
 776 0304 4091 0000 		lds r20,(Timer2Reg0)+2
 777 0308 5091 0000 		lds r21,(Timer2Reg0)+3
 778               	.LM98:
 779 030c B901      		movw r22,r18
 780 030e CA01      		movw r24,r20
 781               	/* epilogue start */
 782 0310 0895      		ret
 783               	.LFE23:
 784               		.size	timer2GetOverflowCount, .-timer2GetOverflowCount
 785               	.global	timer0PWMInit
 786               		.type	timer0PWMInit, @function
 787               	timer0PWMInit:
 788               	.LFB24:
 789               	.LM99:
 790               	.LVL49:
 791               	/* prologue: function */
 792               	/* frame size = 0 */
 793               	.LM100:
 794 0312 8930      		cpi r24,lo8(9)
 795 0314 01F4      		brne .L54
 796               	.LM101:
 797 0316 83B7      		in r24,83-32
 798               	.LVL50:
GAS LISTING C:\Users\ADMINI~1\AppData\Local\Temp/ccVnQtUk.s 			page 15


 799 0318 8860      		ori r24,lo8(8)
 800 031a 83BF      		out 83-32,r24
 801               	.LM102:
 802 031c 83B7      		in r24,83-32
 803 031e 8F7B      		andi r24,lo8(-65)
 804 0320 00C0      		rjmp .L58
 805               	.LVL51:
 806               	.L54:
 807               	.LM103:
 808 0322 8A30      		cpi r24,lo8(10)
 809 0324 01F4      		brne .L56
 810               	.LM104:
 811 0326 83B7      		in r24,83-32
 812               	.LVL52:
 813 0328 8860      		ori r24,lo8(8)
 814 032a 00C0      		rjmp .L59
 815               	.LVL53:
 816               	.L56:
 817               	.LM105:
 818 032c 83B7      		in r24,83-32
 819               	.LVL54:
 820 032e 877F      		andi r24,lo8(-9)
 821               	.L59:
 822 0330 83BF      		out 83-32,r24
 823               	.LM106:
 824 0332 83B7      		in r24,83-32
 825 0334 8064      		ori r24,lo8(64)
 826               	.L58:
 827 0336 83BF      		out 83-32,r24
 828               	.LM107:
 829 0338 11BE      		out 81-32,__zero_reg__
 830               	/* epilogue start */
 831               	.LM108:
 832 033a 0895      		ret
 833               	.LFE24:
 834               		.size	timer0PWMInit, .-timer0PWMInit
 835               	.global	timer0PWMOn
 836               		.type	timer0PWMOn, @function
 837               	timer0PWMOn:
 838               	.LFB25:
 839               	.LM109:
 840               	/* prologue: function */
 841               	/* frame size = 0 */
 842               	.LM110:
 843 033c 83B7      		in r24,83-32
 844 033e 8062      		ori r24,lo8(32)
 845 0340 83BF      		out 83-32,r24
 846               	.LM111:
 847 0342 83B7      		in r24,83-32
 848 0344 8F7E      		andi r24,lo8(-17)
 849 0346 83BF      		out 83-32,r24
 850               	/* epilogue start */
 851               	.LM112:
 852 0348 0895      		ret
 853               	.LFE25:
 854               		.size	timer0PWMOn, .-timer0PWMOn
 855               	.global	timer0PWMOff
GAS LISTING C:\Users\ADMINI~1\AppData\Local\Temp/ccVnQtUk.s 			page 16


 856               		.type	timer0PWMOff, @function
 857               	timer0PWMOff:
 858               	.LFB26:
 859               	.LM113:
 860               	/* prologue: function */
 861               	/* frame size = 0 */
 862               	.LM114:
 863 034a 83B7      		in r24,83-32
 864 034c 8F7D      		andi r24,lo8(-33)
 865 034e 83BF      		out 83-32,r24
 866               	.LM115:
 867 0350 83B7      		in r24,83-32
 868 0352 8F7E      		andi r24,lo8(-17)
 869 0354 83BF      		out 83-32,r24
 870               	/* epilogue start */
 871               	.LM116:
 872 0356 0895      		ret
 873               	.LFE26:
 874               		.size	timer0PWMOff, .-timer0PWMOff
 875               	.global	timer0PWMSet
 876               		.type	timer0PWMSet, @function
 877               	timer0PWMSet:
 878               	.LFB27:
 879               	.LM117:
 880               	.LVL55:
 881               	/* prologue: function */
 882               	/* frame size = 0 */
 883               	.LM118:
 884 0358 81BF      		out 81-32,r24
 885               	/* epilogue start */
 886               	.LM119:
 887 035a 0895      		ret
 888               	.LFE27:
 889               		.size	timer0PWMSet, .-timer0PWMSet
 890               	.global	timer1PWMInit
 891               		.type	timer1PWMInit, @function
 892               	timer1PWMInit:
 893               	.LFB28:
 894               	.LM120:
 895               	.LVL56:
 896               	/* prologue: function */
 897               	/* frame size = 0 */
 898               	.LM121:
 899 035c 8930      		cpi r24,lo8(9)
 900 035e 01F4      		brne .L67
 901               	.LM122:
 902 0360 8FB5      		in r24,79-32
 903               	.LVL57:
 904 0362 8260      		ori r24,lo8(2)
 905 0364 8FBD      		out 79-32,r24
 906               	.LM123:
 907 0366 8FB5      		in r24,79-32
 908 0368 8E7F      		andi r24,lo8(-2)
 909 036a 00C0      		rjmp .L71
 910               	.LVL58:
 911               	.L67:
 912               	.LM124:
GAS LISTING C:\Users\ADMINI~1\AppData\Local\Temp/ccVnQtUk.s 			page 17


 913 036c 8A30      		cpi r24,lo8(10)
 914 036e 01F4      		brne .L69
 915               	.LM125:
 916 0370 8FB5      		in r24,79-32
 917               	.LVL59:
 918 0372 8260      		ori r24,lo8(2)
 919 0374 00C0      		rjmp .L72
 920               	.LVL60:
 921               	.L69:
 922               	.LM126:
 923 0376 8FB5      		in r24,79-32
 924               	.LVL61:
 925 0378 8D7F      		andi r24,lo8(-3)
 926               	.L72:
 927 037a 8FBD      		out 79-32,r24
 928               	.LM127:
 929 037c 8FB5      		in r24,79-32
 930 037e 8160      		ori r24,lo8(1)
 931               	.L71:
 932 0380 8FBD      		out 79-32,r24
 933               	.LM128:
 934 0382 1BBC      		out 75-32,__zero_reg__
 935               	.LM129:
 936 0384 1ABC      		out 74-32,__zero_reg__
 937               	.LM130:
 938 0386 19BC      		out 73-32,__zero_reg__
 939               	.LM131:
 940 0388 18BC      		out 72-32,__zero_reg__
 941               	.LM132:
 942 038a 1092 7900 		sts 121,__zero_reg__
 943               	.LM133:
 944 038e 1092 7800 		sts 120,__zero_reg__
 945               	/* epilogue start */
 946               	.LM134:
 947 0392 0895      		ret
 948               	.LFE28:
 949               		.size	timer1PWMInit, .-timer1PWMInit
 950               	.global	timer1PWMInitICR
 951               		.type	timer1PWMInitICR, @function
 952               	timer1PWMInitICR:
 953               	.LFB29:
 954               	.LM135:
 955               	.LVL62:
 956               	/* prologue: function */
 957               	/* frame size = 0 */
 958               	.LM136:
 959 0394 2FB5      		in r18,79-32
 960 0396 2E7F      		andi r18,lo8(-2)
 961 0398 2FBD      		out 79-32,r18
 962               	.LM137:
 963 039a 2FB5      		in r18,79-32
 964 039c 2260      		ori r18,lo8(2)
 965 039e 2FBD      		out 79-32,r18
 966               	.LM138:
 967 03a0 2EB5      		in r18,78-32
 968 03a2 2860      		ori r18,lo8(8)
 969 03a4 2EBD      		out 78-32,r18
GAS LISTING C:\Users\ADMINI~1\AppData\Local\Temp/ccVnQtUk.s 			page 18


 970               	.LM139:
 971 03a6 2EB5      		in r18,78-32
 972 03a8 2061      		ori r18,lo8(16)
 973 03aa 2EBD      		out 78-32,r18
 974               	.LM140:
 975 03ac 97BD      		out 71-32,r25
 976               	.LVL63:
 977               	.LM141:
 978 03ae 86BD      		out 70-32,r24
 979               	.LM142:
 980 03b0 1BBC      		out 75-32,__zero_reg__
 981               	.LM143:
 982 03b2 1ABC      		out 74-32,__zero_reg__
 983               	.LM144:
 984 03b4 19BC      		out 73-32,__zero_reg__
 985               	.LM145:
 986 03b6 18BC      		out 72-32,__zero_reg__
 987               	.LM146:
 988 03b8 1092 7900 		sts 121,__zero_reg__
 989               	.LM147:
 990 03bc 1092 7800 		sts 120,__zero_reg__
 991               	/* epilogue start */
 992               	.LM148:
 993 03c0 0895      		ret
 994               	.LFE29:
 995               		.size	timer1PWMInitICR, .-timer1PWMInitICR
 996               	.global	timer1PWMOff
 997               		.type	timer1PWMOff, @function
 998               	timer1PWMOff:
 999               	.LFB30:
 1000               	.LM149:
 1001               	/* prologue: function */
 1002               	/* frame size = 0 */
 1003               	.LM150:
 1004 03c2 8FB5      		in r24,79-32
 1005 03c4 8D7F      		andi r24,lo8(-3)
 1006 03c6 8FBD      		out 79-32,r24
 1007               	.LM151:
 1008 03c8 8FB5      		in r24,79-32
 1009 03ca 8E7F      		andi r24,lo8(-2)
 1010 03cc 8FBD      		out 79-32,r24
 1011               	.LBB68:
 1012               	.LBB69:
 1013               	.LM152:
 1014 03ce 8FB5      		in r24,79-32
 1015 03d0 8F77      		andi r24,lo8(127)
 1016 03d2 8FBD      		out 79-32,r24
 1017               	.LM153:
 1018 03d4 8FB5      		in r24,79-32
 1019 03d6 8F7B      		andi r24,lo8(-65)
 1020 03d8 8FBD      		out 79-32,r24
 1021               	.LBE69:
 1022               	.LBE68:
 1023               	.LBB70:
 1024               	.LBB71:
 1025               	.LM154:
 1026 03da 8FB5      		in r24,79-32
GAS LISTING C:\Users\ADMINI~1\AppData\Local\Temp/ccVnQtUk.s 			page 19


 1027 03dc 8F7D      		andi r24,lo8(-33)
 1028 03de 8FBD      		out 79-32,r24
 1029               	.LM155:
 1030 03e0 8FB5      		in r24,79-32
 1031 03e2 8F7E      		andi r24,lo8(-17)
 1032 03e4 8FBD      		out 79-32,r24
 1033               	.LBE71:
 1034               	.LBE70:
 1035               	.LBB72:
 1036               	.LBB73:
 1037               	.LM156:
 1038 03e6 8FB5      		in r24,79-32
 1039 03e8 877F      		andi r24,lo8(-9)
 1040 03ea 8FBD      		out 79-32,r24
 1041               	.LM157:
 1042 03ec 8FB5      		in r24,79-32
 1043 03ee 8B7F      		andi r24,lo8(-5)
 1044 03f0 8FBD      		out 79-32,r24
 1045               	/* epilogue start */
 1046               	.LBE73:
 1047               	.LBE72:
 1048               	.LM158:
 1049 03f2 0895      		ret
 1050               	.LFE30:
 1051               		.size	timer1PWMOff, .-timer1PWMOff
 1052               	.global	timer1PWMAOn
 1053               		.type	timer1PWMAOn, @function
 1054               	timer1PWMAOn:
 1055               	.LFB31:
 1056               	.LM159:
 1057               	/* prologue: function */
 1058               	/* frame size = 0 */
 1059               	.LM160:
 1060 03f4 8FB5      		in r24,79-32
 1061 03f6 8068      		ori r24,lo8(-128)
 1062 03f8 8FBD      		out 79-32,r24
 1063               	.LM161:
 1064 03fa 8FB5      		in r24,79-32
 1065 03fc 8F7B      		andi r24,lo8(-65)
 1066 03fe 8FBD      		out 79-32,r24
 1067               	/* epilogue start */
 1068               	.LM162:
 1069 0400 0895      		ret
 1070               	.LFE31:
 1071               		.size	timer1PWMAOn, .-timer1PWMAOn
 1072               	.global	timer1PWMBOn
 1073               		.type	timer1PWMBOn, @function
 1074               	timer1PWMBOn:
 1075               	.LFB32:
 1076               	.LM163:
 1077               	/* prologue: function */
 1078               	/* frame size = 0 */
 1079               	.LM164:
 1080 0402 8FB5      		in r24,79-32
 1081 0404 8062      		ori r24,lo8(32)
 1082 0406 8FBD      		out 79-32,r24
 1083               	.LM165:
GAS LISTING C:\Users\ADMINI~1\AppData\Local\Temp/ccVnQtUk.s 			page 20


 1084 0408 8FB5      		in r24,79-32
 1085 040a 8F7E      		andi r24,lo8(-17)
 1086 040c 8FBD      		out 79-32,r24
 1087               	/* epilogue start */
 1088               	.LM166:
 1089 040e 0895      		ret
 1090               	.LFE32:
 1091               		.size	timer1PWMBOn, .-timer1PWMBOn
 1092               	.global	timer1PWMCOn
 1093               		.type	timer1PWMCOn, @function
 1094               	timer1PWMCOn:
 1095               	.LFB33:
 1096               	.LM167:
 1097               	/* prologue: function */
 1098               	/* frame size = 0 */
 1099               	.LM168:
 1100 0410 8FB5      		in r24,79-32
 1101 0412 8860      		ori r24,lo8(8)
 1102 0414 8FBD      		out 79-32,r24
 1103               	.LM169:
 1104 0416 8FB5      		in r24,79-32
 1105 0418 8B7F      		andi r24,lo8(-5)
 1106 041a 8FBD      		out 79-32,r24
 1107               	/* epilogue start */
 1108               	.LM170:
 1109 041c 0895      		ret
 1110               	.LFE33:
 1111               		.size	timer1PWMCOn, .-timer1PWMCOn
 1112               	.global	timer1PWMAOff
 1113               		.type	timer1PWMAOff, @function
 1114               	timer1PWMAOff:
 1115               	.LFB34:
 1116               	.LM171:
 1117               	/* prologue: function */
 1118               	/* frame size = 0 */
 1119               	.LM172:
 1120 041e 8FB5      		in r24,79-32
 1121 0420 8F77      		andi r24,lo8(127)
 1122 0422 8FBD      		out 79-32,r24
 1123               	.LM173:
 1124 0424 8FB5      		in r24,79-32
 1125 0426 8F7B      		andi r24,lo8(-65)
 1126 0428 8FBD      		out 79-32,r24
 1127               	/* epilogue start */
 1128               	.LM174:
 1129 042a 0895      		ret
 1130               	.LFE34:
 1131               		.size	timer1PWMAOff, .-timer1PWMAOff
 1132               	.global	timer1PWMBOff
 1133               		.type	timer1PWMBOff, @function
 1134               	timer1PWMBOff:
 1135               	.LFB35:
 1136               	.LM175:
 1137               	/* prologue: function */
 1138               	/* frame size = 0 */
 1139               	.LM176:
 1140 042c 8FB5      		in r24,79-32
GAS LISTING C:\Users\ADMINI~1\AppData\Local\Temp/ccVnQtUk.s 			page 21


 1141 042e 8F7D      		andi r24,lo8(-33)
 1142 0430 8FBD      		out 79-32,r24
 1143               	.LM177:
 1144 0432 8FB5      		in r24,79-32
 1145 0434 8F7E      		andi r24,lo8(-17)
 1146 0436 8FBD      		out 79-32,r24
 1147               	/* epilogue start */
 1148               	.LM178:
 1149 0438 0895      		ret
 1150               	.LFE35:
 1151               		.size	timer1PWMBOff, .-timer1PWMBOff
 1152               	.global	timer1PWMCOff
 1153               		.type	timer1PWMCOff, @function
 1154               	timer1PWMCOff:
 1155               	.LFB36:
 1156               	.LM179:
 1157               	/* prologue: function */
 1158               	/* frame size = 0 */
 1159               	.LM180:
 1160 043a 8FB5      		in r24,79-32
 1161 043c 877F      		andi r24,lo8(-9)
 1162 043e 8FBD      		out 79-32,r24
 1163               	.LM181:
 1164 0440 8FB5      		in r24,79-32
 1165 0442 8B7F      		andi r24,lo8(-5)
 1166 0444 8FBD      		out 79-32,r24
 1167               	/* epilogue start */
 1168               	.LM182:
 1169 0446 0895      		ret
 1170               	.LFE36:
 1171               		.size	timer1PWMCOff, .-timer1PWMCOff
 1172               	.global	timer1PWMASet
 1173               		.type	timer1PWMASet, @function
 1174               	timer1PWMASet:
 1175               	.LFB37:
 1176               	.LM183:
 1177               	.LVL64:
 1178               	/* prologue: function */
 1179               	/* frame size = 0 */
 1180               	.LM184:
 1181 0448 9BBD      		out 75-32,r25
 1182               	.LVL65:
 1183               	.LM185:
 1184 044a 8ABD      		out 74-32,r24
 1185               	/* epilogue start */
 1186               	.LM186:
 1187 044c 0895      		ret
 1188               	.LFE37:
 1189               		.size	timer1PWMASet, .-timer1PWMASet
 1190               	.global	timer1PWMBSet
 1191               		.type	timer1PWMBSet, @function
 1192               	timer1PWMBSet:
 1193               	.LFB38:
 1194               	.LM187:
 1195               	.LVL66:
 1196               	/* prologue: function */
 1197               	/* frame size = 0 */
GAS LISTING C:\Users\ADMINI~1\AppData\Local\Temp/ccVnQtUk.s 			page 22


 1198               	.LM188:
 1199 044e 99BD      		out 73-32,r25
 1200               	.LVL67:
 1201               	.LM189:
 1202 0450 88BD      		out 72-32,r24
 1203               	/* epilogue start */
 1204               	.LM190:
 1205 0452 0895      		ret
 1206               	.LFE38:
 1207               		.size	timer1PWMBSet, .-timer1PWMBSet
 1208               	.global	timer1PWMCSet
 1209               		.type	timer1PWMCSet, @function
 1210               	timer1PWMCSet:
 1211               	.LFB39:
 1212               	.LM191:
 1213               	.LVL68:
 1214               	/* prologue: function */
 1215               	/* frame size = 0 */
 1216               	.LM192:
 1217 0454 9093 7900 		sts 121,r25
 1218               	.LVL69:
 1219               	.LM193:
 1220 0458 8093 7800 		sts 120,r24
 1221               	/* epilogue start */
 1222               	.LM194:
 1223 045c 0895      		ret
 1224               	.LFE39:
 1225               		.size	timer1PWMCSet, .-timer1PWMCSet
 1226               	.global	timer3PWMInit
 1227               		.type	timer3PWMInit, @function
 1228               	timer3PWMInit:
 1229               	.LFB40:
 1230               	.LM195:
 1231               	.LVL70:
 1232               	/* prologue: function */
 1233               	/* frame size = 0 */
 1234               	.LM196:
 1235 045e 8930      		cpi r24,lo8(9)
 1236 0460 01F4      		brne .L96
 1237               	.LM197:
 1238 0462 8091 8B00 		lds r24,139
 1239               	.LVL71:
 1240 0466 8260      		ori r24,lo8(2)
 1241 0468 8093 8B00 		sts 139,r24
 1242               	.LM198:
 1243 046c 8091 8B00 		lds r24,139
 1244 0470 8E7F      		andi r24,lo8(-2)
 1245 0472 00C0      		rjmp .L100
 1246               	.LVL72:
 1247               	.L96:
 1248               	.LM199:
 1249 0474 8A30      		cpi r24,lo8(10)
 1250 0476 01F4      		brne .L98
 1251               	.LM200:
 1252 0478 8091 8B00 		lds r24,139
 1253               	.LVL73:
 1254 047c 8260      		ori r24,lo8(2)
GAS LISTING C:\Users\ADMINI~1\AppData\Local\Temp/ccVnQtUk.s 			page 23


 1255 047e 00C0      		rjmp .L101
 1256               	.LVL74:
 1257               	.L98:
 1258               	.LM201:
 1259 0480 8091 8B00 		lds r24,139
 1260               	.LVL75:
 1261 0484 8D7F      		andi r24,lo8(-3)
 1262               	.L101:
 1263 0486 8093 8B00 		sts 139,r24
 1264               	.LM202:
 1265 048a 8091 8B00 		lds r24,139
 1266 048e 8160      		ori r24,lo8(1)
 1267               	.L100:
 1268 0490 8093 8B00 		sts 139,r24
 1269               	.LM203:
 1270 0494 1092 8700 		sts 135,__zero_reg__
 1271               	.LM204:
 1272 0498 1092 8600 		sts 134,__zero_reg__
 1273               	.LM205:
 1274 049c 1092 8500 		sts 133,__zero_reg__
 1275               	.LM206:
 1276 04a0 1092 8400 		sts 132,__zero_reg__
 1277               	.LM207:
 1278 04a4 1092 8300 		sts 131,__zero_reg__
 1279               	.LM208:
 1280 04a8 1092 8200 		sts 130,__zero_reg__
 1281               	/* epilogue start */
 1282               	.LM209:
 1283 04ac 0895      		ret
 1284               	.LFE40:
 1285               		.size	timer3PWMInit, .-timer3PWMInit
 1286               	.global	timer3PWMInitICR
 1287               		.type	timer3PWMInitICR, @function
 1288               	timer3PWMInitICR:
 1289               	.LFB41:
 1290               	.LM210:
 1291               	.LVL76:
 1292               	/* prologue: function */
 1293               	/* frame size = 0 */
 1294               	.LM211:
 1295 04ae EBE8      		ldi r30,lo8(139)
 1296 04b0 F0E0      		ldi r31,hi8(139)
 1297 04b2 2081      		ld r18,Z
 1298 04b4 2E7F      		andi r18,lo8(-2)
 1299 04b6 2083      		st Z,r18
 1300               	.LM212:
 1301 04b8 2081      		ld r18,Z
 1302 04ba 2260      		ori r18,lo8(2)
 1303 04bc 2083      		st Z,r18
 1304               	.LM213:
 1305 04be EAE8      		ldi r30,lo8(138)
 1306 04c0 F0E0      		ldi r31,hi8(138)
 1307 04c2 2081      		ld r18,Z
 1308 04c4 2860      		ori r18,lo8(8)
 1309 04c6 2083      		st Z,r18
 1310               	.LM214:
 1311 04c8 2081      		ld r18,Z
GAS LISTING C:\Users\ADMINI~1\AppData\Local\Temp/ccVnQtUk.s 			page 24


 1312 04ca 2061      		ori r18,lo8(16)
 1313 04cc 2083      		st Z,r18
 1314               	.LM215:
 1315 04ce 9093 8100 		sts 129,r25
 1316               	.LVL77:
 1317               	.LM216:
 1318 04d2 8093 8000 		sts 128,r24
 1319               	.LM217:
 1320 04d6 1092 8700 		sts 135,__zero_reg__
 1321               	.LM218:
 1322 04da 1092 8600 		sts 134,__zero_reg__
 1323               	.LM219:
 1324 04de 1092 8500 		sts 133,__zero_reg__
 1325               	.LM220:
 1326 04e2 1092 8400 		sts 132,__zero_reg__
 1327               	.LM221:
 1328 04e6 1092 8300 		sts 131,__zero_reg__
 1329               	.LM222:
 1330 04ea 1092 8200 		sts 130,__zero_reg__
 1331               	/* epilogue start */
 1332               	.LM223:
 1333 04ee 0895      		ret
 1334               	.LFE41:
 1335               		.size	timer3PWMInitICR, .-timer3PWMInitICR
 1336               	.global	timer3PWMOff
 1337               		.type	timer3PWMOff, @function
 1338               	timer3PWMOff:
 1339               	.LFB42:
 1340               	.LM224:
 1341               	/* prologue: function */
 1342               	/* frame size = 0 */
 1343               	.LM225:
 1344 04f0 EBE8      		ldi r30,lo8(139)
 1345 04f2 F0E0      		ldi r31,hi8(139)
 1346 04f4 8081      		ld r24,Z
 1347 04f6 8D7F      		andi r24,lo8(-3)
 1348 04f8 8083      		st Z,r24
 1349               	.LM226:
 1350 04fa 8081      		ld r24,Z
 1351 04fc 8E7F      		andi r24,lo8(-2)
 1352 04fe 8083      		st Z,r24
 1353               	.LBB74:
 1354               	.LBB75:
 1355               	.LM227:
 1356 0500 8081      		ld r24,Z
 1357 0502 8F77      		andi r24,lo8(127)
 1358 0504 8083      		st Z,r24
 1359               	.LM228:
 1360 0506 8081      		ld r24,Z
 1361 0508 8F7B      		andi r24,lo8(-65)
 1362 050a 8083      		st Z,r24
 1363               	.LBE75:
 1364               	.LBE74:
 1365               	.LBB76:
 1366               	.LBB77:
 1367               	.LM229:
 1368 050c 8081      		ld r24,Z
GAS LISTING C:\Users\ADMINI~1\AppData\Local\Temp/ccVnQtUk.s 			page 25


 1369 050e 8F7D      		andi r24,lo8(-33)
 1370 0510 8083      		st Z,r24
 1371               	.LM230:
 1372 0512 8081      		ld r24,Z
 1373 0514 8F7E      		andi r24,lo8(-17)
 1374 0516 8083      		st Z,r24
 1375               	.LBE77:
 1376               	.LBE76:
 1377               	.LBB78:
 1378               	.LBB79:
 1379               	.LM231:
 1380 0518 8081      		ld r24,Z
 1381 051a 877F      		andi r24,lo8(-9)
 1382 051c 8083      		st Z,r24
 1383               	.LM232:
 1384 051e 8081      		ld r24,Z
 1385 0520 8B7F      		andi r24,lo8(-5)
 1386 0522 8083      		st Z,r24
 1387               	/* epilogue start */
 1388               	.LBE79:
 1389               	.LBE78:
 1390               	.LM233:
 1391 0524 0895      		ret
 1392               	.LFE42:
 1393               		.size	timer3PWMOff, .-timer3PWMOff
 1394               	.global	timer3PWMAOn
 1395               		.type	timer3PWMAOn, @function
 1396               	timer3PWMAOn:
 1397               	.LFB43:
 1398               	.LM234:
 1399               	/* prologue: function */
 1400               	/* frame size = 0 */
 1401               	.LM235:
 1402 0526 EBE8      		ldi r30,lo8(139)
 1403 0528 F0E0      		ldi r31,hi8(139)
 1404 052a 8081      		ld r24,Z
 1405 052c 8068      		ori r24,lo8(-128)
 1406 052e 8083      		st Z,r24
 1407               	.LM236:
 1408 0530 8081      		ld r24,Z
 1409 0532 8F7B      		andi r24,lo8(-65)
 1410 0534 8083      		st Z,r24
 1411               	/* epilogue start */
 1412               	.LM237:
 1413 0536 0895      		ret
 1414               	.LFE43:
 1415               		.size	timer3PWMAOn, .-timer3PWMAOn
 1416               	.global	timer3PWMBOn
 1417               		.type	timer3PWMBOn, @function
 1418               	timer3PWMBOn:
 1419               	.LFB44:
 1420               	.LM238:
 1421               	/* prologue: function */
 1422               	/* frame size = 0 */
 1423               	.LM239:
 1424 0538 EBE8      		ldi r30,lo8(139)
 1425 053a F0E0      		ldi r31,hi8(139)
GAS LISTING C:\Users\ADMINI~1\AppData\Local\Temp/ccVnQtUk.s 			page 26


 1426 053c 8081      		ld r24,Z
 1427 053e 8062      		ori r24,lo8(32)
 1428 0540 8083      		st Z,r24
 1429               	.LM240:
 1430 0542 8081      		ld r24,Z
 1431 0544 8F7E      		andi r24,lo8(-17)
 1432 0546 8083      		st Z,r24
 1433               	/* epilogue start */
 1434               	.LM241:
 1435 0548 0895      		ret
 1436               	.LFE44:
 1437               		.size	timer3PWMBOn, .-timer3PWMBOn
 1438               	.global	timer3PWMCOn
 1439               		.type	timer3PWMCOn, @function
 1440               	timer3PWMCOn:
 1441               	.LFB45:
 1442               	.LM242:
 1443               	/* prologue: function */
 1444               	/* frame size = 0 */
 1445               	.LM243:
 1446 054a EBE8      		ldi r30,lo8(139)
 1447 054c F0E0      		ldi r31,hi8(139)
 1448 054e 8081      		ld r24,Z
 1449 0550 8860      		ori r24,lo8(8)
 1450 0552 8083      		st Z,r24
 1451               	.LM244:
 1452 0554 8081      		ld r24,Z
 1453 0556 8B7F      		andi r24,lo8(-5)
 1454 0558 8083      		st Z,r24
 1455               	/* epilogue start */
 1456               	.LM245:
 1457 055a 0895      		ret
 1458               	.LFE45:
 1459               		.size	timer3PWMCOn, .-timer3PWMCOn
 1460               	.global	timer3PWMAOff
 1461               		.type	timer3PWMAOff, @function
 1462               	timer3PWMAOff:
 1463               	.LFB46:
 1464               	.LM246:
 1465               	/* prologue: function */
 1466               	/* frame size = 0 */
 1467               	.LM247:
 1468 055c EBE8      		ldi r30,lo8(139)
 1469 055e F0E0      		ldi r31,hi8(139)
 1470 0560 8081      		ld r24,Z
 1471 0562 8F77      		andi r24,lo8(127)
 1472 0564 8083      		st Z,r24
 1473               	.LM248:
 1474 0566 8081      		ld r24,Z
 1475 0568 8F7B      		andi r24,lo8(-65)
 1476 056a 8083      		st Z,r24
 1477               	/* epilogue start */
 1478               	.LM249:
 1479 056c 0895      		ret
 1480               	.LFE46:
 1481               		.size	timer3PWMAOff, .-timer3PWMAOff
 1482               	.global	timer3PWMBOff
GAS LISTING C:\Users\ADMINI~1\AppData\Local\Temp/ccVnQtUk.s 			page 27


 1483               		.type	timer3PWMBOff, @function
 1484               	timer3PWMBOff:
 1485               	.LFB47:
 1486               	.LM250:
 1487               	/* prologue: function */
 1488               	/* frame size = 0 */
 1489               	.LM251:
 1490 056e EBE8      		ldi r30,lo8(139)
 1491 0570 F0E0      		ldi r31,hi8(139)
 1492 0572 8081      		ld r24,Z
 1493 0574 8F7D      		andi r24,lo8(-33)
 1494 0576 8083      		st Z,r24
 1495               	.LM252:
 1496 0578 8081      		ld r24,Z
 1497 057a 8F7E      		andi r24,lo8(-17)
 1498 057c 8083      		st Z,r24
 1499               	/* epilogue start */
 1500               	.LM253:
 1501 057e 0895      		ret
 1502               	.LFE47:
 1503               		.size	timer3PWMBOff, .-timer3PWMBOff
 1504               	.global	timer3PWMCOff
 1505               		.type	timer3PWMCOff, @function
 1506               	timer3PWMCOff:
 1507               	.LFB48:
 1508               	.LM254:
 1509               	/* prologue: function */
 1510               	/* frame size = 0 */
 1511               	.LM255:
 1512 0580 EBE8      		ldi r30,lo8(139)
 1513 0582 F0E0      		ldi r31,hi8(139)
 1514 0584 8081      		ld r24,Z
 1515 0586 877F      		andi r24,lo8(-9)
 1516 0588 8083      		st Z,r24
 1517               	.LM256:
 1518 058a 8081      		ld r24,Z
 1519 058c 8B7F      		andi r24,lo8(-5)
 1520 058e 8083      		st Z,r24
 1521               	/* epilogue start */
 1522               	.LM257:
 1523 0590 0895      		ret
 1524               	.LFE48:
 1525               		.size	timer3PWMCOff, .-timer3PWMCOff
 1526               	.global	timer3PWMASet
 1527               		.type	timer3PWMASet, @function
 1528               	timer3PWMASet:
 1529               	.LFB49:
 1530               	.LM258:
 1531               	.LVL78:
 1532               	/* prologue: function */
 1533               	/* frame size = 0 */
 1534               	.LM259:
 1535 0592 9093 8700 		sts 135,r25
 1536               	.LVL79:
 1537               	.LM260:
 1538 0596 8093 8600 		sts 134,r24
 1539               	/* epilogue start */
GAS LISTING C:\Users\ADMINI~1\AppData\Local\Temp/ccVnQtUk.s 			page 28


 1540               	.LM261:
 1541 059a 0895      		ret
 1542               	.LFE49:
 1543               		.size	timer3PWMASet, .-timer3PWMASet
 1544               	.global	timer3PWMBSet
 1545               		.type	timer3PWMBSet, @function
 1546               	timer3PWMBSet:
 1547               	.LFB50:
 1548               	.LM262:
 1549               	.LVL80:
 1550               	/* prologue: function */
 1551               	/* frame size = 0 */
 1552               	.LM263:
 1553 059c 9093 8500 		sts 133,r25
 1554               	.LVL81:
 1555               	.LM264:
 1556 05a0 8093 8400 		sts 132,r24
 1557               	/* epilogue start */
 1558               	.LM265:
 1559 05a4 0895      		ret
 1560               	.LFE50:
 1561               		.size	timer3PWMBSet, .-timer3PWMBSet
 1562               	.global	timer3PWMCSet
 1563               		.type	timer3PWMCSet, @function
 1564               	timer3PWMCSet:
 1565               	.LFB51:
 1566               	.LM266:
 1567               	.LVL82:
 1568               	/* prologue: function */
 1569               	/* frame size = 0 */
 1570               	.LM267:
 1571 05a6 9093 8300 		sts 131,r25
 1572               	.LVL83:
 1573               	.LM268:
 1574 05aa 8093 8200 		sts 130,r24
 1575               	/* epilogue start */
 1576               	.LM269:
 1577 05ae 0895      		ret
 1578               	.LFE51:
 1579               		.size	timer3PWMCSet, .-timer3PWMCSet
 1580               	.global	__vector_16
 1581               		.type	__vector_16, @function
 1582               	__vector_16:
 1583               	.LFB52:
 1584               	.LM270:
 1585 05b0 1F92      		push __zero_reg__
 1586 05b2 0F92      		push r0
 1587 05b4 0FB6      		in r0,__SREG__
 1588 05b6 0F92      		push r0
 1589 05b8 0BB6      		in r0,91-32
 1590 05ba 0F92      		push r0
 1591 05bc 1124      		clr __zero_reg__
 1592 05be 2F93      		push r18
 1593 05c0 3F93      		push r19
 1594 05c2 4F93      		push r20
 1595 05c4 5F93      		push r21
 1596 05c6 6F93      		push r22
GAS LISTING C:\Users\ADMINI~1\AppData\Local\Temp/ccVnQtUk.s 			page 29


 1597 05c8 7F93      		push r23
 1598 05ca 8F93      		push r24
 1599 05cc 9F93      		push r25
 1600 05ce AF93      		push r26
 1601 05d0 BF93      		push r27
 1602 05d2 EF93      		push r30
 1603 05d4 FF93      		push r31
 1604               	/* prologue: Signal */
 1605               	/* frame size = 0 */
 1606               	.LM271:
 1607 05d6 8091 0000 		lds r24,Timer0Reg0
 1608 05da 9091 0000 		lds r25,(Timer0Reg0)+1
 1609 05de A091 0000 		lds r26,(Timer0Reg0)+2
 1610 05e2 B091 0000 		lds r27,(Timer0Reg0)+3
 1611 05e6 0196      		adiw r24,1
 1612 05e8 A11D      		adc r26,__zero_reg__
 1613 05ea B11D      		adc r27,__zero_reg__
 1614 05ec 8093 0000 		sts Timer0Reg0,r24
 1615 05f0 9093 0000 		sts (Timer0Reg0)+1,r25
 1616 05f4 A093 0000 		sts (Timer0Reg0)+2,r26
 1617 05f8 B093 0000 		sts (Timer0Reg0)+3,r27
 1618               	.LM272:
 1619 05fc 8091 0000 		lds r24,Timer0Reg0
 1620 0600 9091 0000 		lds r25,(Timer0Reg0)+1
 1621 0604 A091 0000 		lds r26,(Timer0Reg0)+2
 1622 0608 B091 0000 		lds r27,(Timer0Reg0)+3
 1623 060c 0097      		sbiw r24,0
 1624 060e A105      		cpc r26,__zero_reg__
 1625 0610 B105      		cpc r27,__zero_reg__
 1626 0612 01F4      		brne .L125
 1627               	.LM273:
 1628 0614 8091 0000 		lds r24,Timer0Reg1
 1629 0618 9091 0000 		lds r25,(Timer0Reg1)+1
 1630 061c A091 0000 		lds r26,(Timer0Reg1)+2
 1631 0620 B091 0000 		lds r27,(Timer0Reg1)+3
 1632 0624 0196      		adiw r24,1
 1633 0626 A11D      		adc r26,__zero_reg__
 1634 0628 B11D      		adc r27,__zero_reg__
 1635 062a 8093 0000 		sts Timer0Reg1,r24
 1636 062e 9093 0000 		sts (Timer0Reg1)+1,r25
 1637 0632 A093 0000 		sts (Timer0Reg1)+2,r26
 1638 0636 B093 0000 		sts (Timer0Reg1)+3,r27
 1639               	.L125:
 1640               	.LM274:
 1641 063a 8091 0000 		lds r24,TimerIntFunc
 1642 063e 9091 0000 		lds r25,(TimerIntFunc)+1
 1643 0642 892B      		or r24,r25
 1644 0644 01F0      		breq .L127
 1645               	.LM275:
 1646 0646 E091 0000 		lds r30,TimerIntFunc
 1647 064a F091 0000 		lds r31,(TimerIntFunc)+1
 1648 064e 0995      		icall
 1649               	.L127:
 1650               	/* epilogue start */
 1651               	.LM276:
 1652 0650 FF91      		pop r31
 1653 0652 EF91      		pop r30
GAS LISTING C:\Users\ADMINI~1\AppData\Local\Temp/ccVnQtUk.s 			page 30


 1654 0654 BF91      		pop r27
 1655 0656 AF91      		pop r26
 1656 0658 9F91      		pop r25
 1657 065a 8F91      		pop r24
 1658 065c 7F91      		pop r23
 1659 065e 6F91      		pop r22
 1660 0660 5F91      		pop r21
 1661 0662 4F91      		pop r20
 1662 0664 3F91      		pop r19
 1663 0666 2F91      		pop r18
 1664 0668 0F90      		pop r0
 1665 066a 0BBE      		out 91-32,r0
 1666 066c 0F90      		pop r0
 1667 066e 0FBE      		out __SREG__,r0
 1668 0670 0F90      		pop r0
 1669 0672 1F90      		pop __zero_reg__
 1670 0674 1895      		reti
 1671               	.LFE52:
 1672               		.size	__vector_16, .-__vector_16
 1673               	.global	__vector_14
 1674               		.type	__vector_14, @function
 1675               	__vector_14:
 1676               	.LFB53:
 1677               	.LM277:
 1678 0676 1F92      		push __zero_reg__
 1679 0678 0F92      		push r0
 1680 067a 0FB6      		in r0,__SREG__
 1681 067c 0F92      		push r0
 1682 067e 0BB6      		in r0,91-32
 1683 0680 0F92      		push r0
 1684 0682 1124      		clr __zero_reg__
 1685 0684 2F93      		push r18
 1686 0686 3F93      		push r19
 1687 0688 4F93      		push r20
 1688 068a 5F93      		push r21
 1689 068c 6F93      		push r22
 1690 068e 7F93      		push r23
 1691 0690 8F93      		push r24
 1692 0692 9F93      		push r25
 1693 0694 AF93      		push r26
 1694 0696 BF93      		push r27
 1695 0698 EF93      		push r30
 1696 069a FF93      		push r31
 1697               	/* prologue: Signal */
 1698               	/* frame size = 0 */
 1699               	.LM278:
 1700 069c 8091 0000 		lds r24,TimerIntFunc+4
 1701 06a0 9091 0000 		lds r25,(TimerIntFunc+4)+1
 1702 06a4 892B      		or r24,r25
 1703 06a6 01F0      		breq .L130
 1704               	.LM279:
 1705 06a8 E091 0000 		lds r30,TimerIntFunc+4
 1706 06ac F091 0000 		lds r31,(TimerIntFunc+4)+1
 1707 06b0 0995      		icall
 1708               	.L130:
 1709               	/* epilogue start */
 1710               	.LM280:
GAS LISTING C:\Users\ADMINI~1\AppData\Local\Temp/ccVnQtUk.s 			page 31


 1711 06b2 FF91      		pop r31
 1712 06b4 EF91      		pop r30
 1713 06b6 BF91      		pop r27
 1714 06b8 AF91      		pop r26
 1715 06ba 9F91      		pop r25
 1716 06bc 8F91      		pop r24
 1717 06be 7F91      		pop r23
 1718 06c0 6F91      		pop r22
 1719 06c2 5F91      		pop r21
 1720 06c4 4F91      		pop r20
 1721 06c6 3F91      		pop r19
 1722 06c8 2F91      		pop r18
 1723 06ca 0F90      		pop r0
 1724 06cc 0BBE      		out 91-32,r0
 1725 06ce 0F90      		pop r0
 1726 06d0 0FBE      		out __SREG__,r0
 1727 06d2 0F90      		pop r0
 1728 06d4 1F90      		pop __zero_reg__
 1729 06d6 1895      		reti
 1730               	.LFE53:
 1731               		.size	__vector_14, .-__vector_14
 1732               	.global	__vector_10
 1733               		.type	__vector_10, @function
 1734               	__vector_10:
 1735               	.LFB54:
 1736               	.LM281:
 1737 06d8 1F92      		push __zero_reg__
 1738 06da 0F92      		push r0
 1739 06dc 0FB6      		in r0,__SREG__
 1740 06de 0F92      		push r0
 1741 06e0 0BB6      		in r0,91-32
 1742 06e2 0F92      		push r0
 1743 06e4 1124      		clr __zero_reg__
 1744 06e6 2F93      		push r18
 1745 06e8 3F93      		push r19
 1746 06ea 4F93      		push r20
 1747 06ec 5F93      		push r21
 1748 06ee 6F93      		push r22
 1749 06f0 7F93      		push r23
 1750 06f2 8F93      		push r24
 1751 06f4 9F93      		push r25
 1752 06f6 AF93      		push r26
 1753 06f8 BF93      		push r27
 1754 06fa EF93      		push r30
 1755 06fc FF93      		push r31
 1756               	/* prologue: Signal */
 1757               	/* frame size = 0 */
 1758               	.LM282:
 1759 06fe 8091 0000 		lds r24,Timer2Reg0
 1760 0702 9091 0000 		lds r25,(Timer2Reg0)+1
 1761 0706 A091 0000 		lds r26,(Timer2Reg0)+2
 1762 070a B091 0000 		lds r27,(Timer2Reg0)+3
 1763 070e 0196      		adiw r24,1
 1764 0710 A11D      		adc r26,__zero_reg__
 1765 0712 B11D      		adc r27,__zero_reg__
 1766 0714 8093 0000 		sts Timer2Reg0,r24
 1767 0718 9093 0000 		sts (Timer2Reg0)+1,r25
GAS LISTING C:\Users\ADMINI~1\AppData\Local\Temp/ccVnQtUk.s 			page 32


 1768 071c A093 0000 		sts (Timer2Reg0)+2,r26
 1769 0720 B093 0000 		sts (Timer2Reg0)+3,r27
 1770               	.LM283:
 1771 0724 8091 0000 		lds r24,Timer2Reg0
 1772 0728 9091 0000 		lds r25,(Timer2Reg0)+1
 1773 072c A091 0000 		lds r26,(Timer2Reg0)+2
 1774 0730 B091 0000 		lds r27,(Timer2Reg0)+3
 1775 0734 0097      		sbiw r24,0
 1776 0736 A105      		cpc r26,__zero_reg__
 1777 0738 B105      		cpc r27,__zero_reg__
 1778 073a 01F4      		brne .L132
 1779               	.LM284:
 1780 073c 8091 0000 		lds r24,Timer2Reg1
 1781 0740 9091 0000 		lds r25,(Timer2Reg1)+1
 1782 0744 A091 0000 		lds r26,(Timer2Reg1)+2
 1783 0748 B091 0000 		lds r27,(Timer2Reg1)+3
 1784 074c 0196      		adiw r24,1
 1785 074e A11D      		adc r26,__zero_reg__
 1786 0750 B11D      		adc r27,__zero_reg__
 1787 0752 8093 0000 		sts Timer2Reg1,r24
 1788 0756 9093 0000 		sts (Timer2Reg1)+1,r25
 1789 075a A093 0000 		sts (Timer2Reg1)+2,r26
 1790 075e B093 0000 		sts (Timer2Reg1)+3,r27
 1791               	.L132:
 1792               	.LM285:
 1793 0762 8091 0000 		lds r24,TimerPauseReg
 1794 0766 9091 0000 		lds r25,(TimerPauseReg)+1
 1795 076a A091 0000 		lds r26,(TimerPauseReg)+2
 1796 076e B091 0000 		lds r27,(TimerPauseReg)+3
 1797 0772 0196      		adiw r24,1
 1798 0774 A11D      		adc r26,__zero_reg__
 1799 0776 B11D      		adc r27,__zero_reg__
 1800 0778 8093 0000 		sts TimerPauseReg,r24
 1801 077c 9093 0000 		sts (TimerPauseReg)+1,r25
 1802 0780 A093 0000 		sts (TimerPauseReg)+2,r26
 1803 0784 B093 0000 		sts (TimerPauseReg)+3,r27
 1804               	.LM286:
 1805 0788 8091 0000 		lds r24,TimerIntFunc+14
 1806 078c 9091 0000 		lds r25,(TimerIntFunc+14)+1
 1807 0790 892B      		or r24,r25
 1808 0792 01F0      		breq .L134
 1809               	.LM287:
 1810 0794 E091 0000 		lds r30,TimerIntFunc+14
 1811 0798 F091 0000 		lds r31,(TimerIntFunc+14)+1
 1812 079c 0995      		icall
 1813               	.L134:
 1814               	/* epilogue start */
 1815               	.LM288:
 1816 079e FF91      		pop r31
 1817 07a0 EF91      		pop r30
 1818 07a2 BF91      		pop r27
 1819 07a4 AF91      		pop r26
 1820 07a6 9F91      		pop r25
 1821 07a8 8F91      		pop r24
 1822 07aa 7F91      		pop r23
 1823 07ac 6F91      		pop r22
 1824 07ae 5F91      		pop r21
GAS LISTING C:\Users\ADMINI~1\AppData\Local\Temp/ccVnQtUk.s 			page 33


 1825 07b0 4F91      		pop r20
 1826 07b2 3F91      		pop r19
 1827 07b4 2F91      		pop r18
 1828 07b6 0F90      		pop r0
 1829 07b8 0BBE      		out 91-32,r0
 1830 07ba 0F90      		pop r0
 1831 07bc 0FBE      		out __SREG__,r0
 1832 07be 0F90      		pop r0
 1833 07c0 1F90      		pop __zero_reg__
 1834 07c2 1895      		reti
 1835               	.LFE54:
 1836               		.size	__vector_10, .-__vector_10
 1837               	.global	__vector_29
 1838               		.type	__vector_29, @function
 1839               	__vector_29:
 1840               	.LFB55:
 1841               	.LM289:
 1842 07c4 1F92      		push __zero_reg__
 1843 07c6 0F92      		push r0
 1844 07c8 0FB6      		in r0,__SREG__
 1845 07ca 0F92      		push r0
 1846 07cc 0BB6      		in r0,91-32
 1847 07ce 0F92      		push r0
 1848 07d0 1124      		clr __zero_reg__
 1849 07d2 2F93      		push r18
 1850 07d4 3F93      		push r19
 1851 07d6 4F93      		push r20
 1852 07d8 5F93      		push r21
 1853 07da 6F93      		push r22
 1854 07dc 7F93      		push r23
 1855 07de 8F93      		push r24
 1856 07e0 9F93      		push r25
 1857 07e2 AF93      		push r26
 1858 07e4 BF93      		push r27
 1859 07e6 EF93      		push r30
 1860 07e8 FF93      		push r31
 1861               	/* prologue: Signal */
 1862               	/* frame size = 0 */
 1863               	.LM290:
 1864 07ea 8091 0000 		lds r24,TimerIntFunc+18
 1865 07ee 9091 0000 		lds r25,(TimerIntFunc+18)+1
 1866 07f2 892B      		or r24,r25
 1867 07f4 01F0      		breq .L137
 1868               	.LM291:
 1869 07f6 E091 0000 		lds r30,TimerIntFunc+18
 1870 07fa F091 0000 		lds r31,(TimerIntFunc+18)+1
 1871 07fe 0995      		icall
 1872               	.L137:
 1873               	/* epilogue start */
 1874               	.LM292:
 1875 0800 FF91      		pop r31
 1876 0802 EF91      		pop r30
 1877 0804 BF91      		pop r27
 1878 0806 AF91      		pop r26
 1879 0808 9F91      		pop r25
 1880 080a 8F91      		pop r24
 1881 080c 7F91      		pop r23
GAS LISTING C:\Users\ADMINI~1\AppData\Local\Temp/ccVnQtUk.s 			page 34


 1882 080e 6F91      		pop r22
 1883 0810 5F91      		pop r21
 1884 0812 4F91      		pop r20
 1885 0814 3F91      		pop r19
 1886 0816 2F91      		pop r18
 1887 0818 0F90      		pop r0
 1888 081a 0BBE      		out 91-32,r0
 1889 081c 0F90      		pop r0
 1890 081e 0FBE      		out __SREG__,r0
 1891 0820 0F90      		pop r0
 1892 0822 1F90      		pop __zero_reg__
 1893 0824 1895      		reti
 1894               	.LFE55:
 1895               		.size	__vector_29, .-__vector_29
 1896               	.global	__vector_15
 1897               		.type	__vector_15, @function
 1898               	__vector_15:
 1899               	.LFB56:
 1900               	.LM293:
 1901 0826 1F92      		push __zero_reg__
 1902 0828 0F92      		push r0
 1903 082a 0FB6      		in r0,__SREG__
 1904 082c 0F92      		push r0
 1905 082e 0BB6      		in r0,91-32
 1906 0830 0F92      		push r0
 1907 0832 1124      		clr __zero_reg__
 1908 0834 2F93      		push r18
 1909 0836 3F93      		push r19
 1910 0838 4F93      		push r20
 1911 083a 5F93      		push r21
 1912 083c 6F93      		push r22
 1913 083e 7F93      		push r23
 1914 0840 8F93      		push r24
 1915 0842 9F93      		push r25
 1916 0844 AF93      		push r26
 1917 0846 BF93      		push r27
 1918 0848 EF93      		push r30
 1919 084a FF93      		push r31
 1920               	/* prologue: Signal */
 1921               	/* frame size = 0 */
 1922               	.LM294:
 1923 084c 8091 0000 		lds r24,TimerIntFunc+2
 1924 0850 9091 0000 		lds r25,(TimerIntFunc+2)+1
 1925 0854 892B      		or r24,r25
 1926 0856 01F0      		breq .L140
 1927               	.LM295:
 1928 0858 E091 0000 		lds r30,TimerIntFunc+2
 1929 085c F091 0000 		lds r31,(TimerIntFunc+2)+1
 1930 0860 0995      		icall
 1931               	.L140:
 1932               	/* epilogue start */
 1933               	.LM296:
 1934 0862 FF91      		pop r31
 1935 0864 EF91      		pop r30
 1936 0866 BF91      		pop r27
 1937 0868 AF91      		pop r26
 1938 086a 9F91      		pop r25
GAS LISTING C:\Users\ADMINI~1\AppData\Local\Temp/ccVnQtUk.s 			page 35


 1939 086c 8F91      		pop r24
 1940 086e 7F91      		pop r23
 1941 0870 6F91      		pop r22
 1942 0872 5F91      		pop r21
 1943 0874 4F91      		pop r20
 1944 0876 3F91      		pop r19
 1945 0878 2F91      		pop r18
 1946 087a 0F90      		pop r0
 1947 087c 0BBE      		out 91-32,r0
 1948 087e 0F90      		pop r0
 1949 0880 0FBE      		out __SREG__,r0
 1950 0882 0F90      		pop r0
 1951 0884 1F90      		pop __zero_reg__
 1952 0886 1895      		reti
 1953               	.LFE56:
 1954               		.size	__vector_15, .-__vector_15
 1955               	.global	__vector_12
 1956               		.type	__vector_12, @function
 1957               	__vector_12:
 1958               	.LFB57:
 1959               	.LM297:
 1960 0888 1F92      		push __zero_reg__
 1961 088a 0F92      		push r0
 1962 088c 0FB6      		in r0,__SREG__
 1963 088e 0F92      		push r0
 1964 0890 0BB6      		in r0,91-32
 1965 0892 0F92      		push r0
 1966 0894 1124      		clr __zero_reg__
 1967 0896 2F93      		push r18
 1968 0898 3F93      		push r19
 1969 089a 4F93      		push r20
 1970 089c 5F93      		push r21
 1971 089e 6F93      		push r22
 1972 08a0 7F93      		push r23
 1973 08a2 8F93      		push r24
 1974 08a4 9F93      		push r25
 1975 08a6 AF93      		push r26
 1976 08a8 BF93      		push r27
 1977 08aa EF93      		push r30
 1978 08ac FF93      		push r31
 1979               	/* prologue: Signal */
 1980               	/* frame size = 0 */
 1981               	.LM298:
 1982 08ae 8091 0000 		lds r24,TimerIntFunc+6
 1983 08b2 9091 0000 		lds r25,(TimerIntFunc+6)+1
 1984 08b6 892B      		or r24,r25
 1985 08b8 01F0      		breq .L143
 1986               	.LM299:
 1987 08ba E091 0000 		lds r30,TimerIntFunc+6
 1988 08be F091 0000 		lds r31,(TimerIntFunc+6)+1
 1989 08c2 0995      		icall
 1990               	.L143:
 1991               	/* epilogue start */
 1992               	.LM300:
 1993 08c4 FF91      		pop r31
 1994 08c6 EF91      		pop r30
 1995 08c8 BF91      		pop r27
GAS LISTING C:\Users\ADMINI~1\AppData\Local\Temp/ccVnQtUk.s 			page 36


 1996 08ca AF91      		pop r26
 1997 08cc 9F91      		pop r25
 1998 08ce 8F91      		pop r24
 1999 08d0 7F91      		pop r23
 2000 08d2 6F91      		pop r22
 2001 08d4 5F91      		pop r21
 2002 08d6 4F91      		pop r20
 2003 08d8 3F91      		pop r19
 2004 08da 2F91      		pop r18
 2005 08dc 0F90      		pop r0
 2006 08de 0BBE      		out 91-32,r0
 2007 08e0 0F90      		pop r0
 2008 08e2 0FBE      		out __SREG__,r0
 2009 08e4 0F90      		pop r0
 2010 08e6 1F90      		pop __zero_reg__
 2011 08e8 1895      		reti
 2012               	.LFE57:
 2013               		.size	__vector_12, .-__vector_12
 2014               	.global	__vector_13
 2015               		.type	__vector_13, @function
 2016               	__vector_13:
 2017               	.LFB58:
 2018               	.LM301:
 2019 08ea 1F92      		push __zero_reg__
 2020 08ec 0F92      		push r0
 2021 08ee 0FB6      		in r0,__SREG__
 2022 08f0 0F92      		push r0
 2023 08f2 0BB6      		in r0,91-32
 2024 08f4 0F92      		push r0
 2025 08f6 1124      		clr __zero_reg__
 2026 08f8 2F93      		push r18
 2027 08fa 3F93      		push r19
 2028 08fc 4F93      		push r20
 2029 08fe 5F93      		push r21
 2030 0900 6F93      		push r22
 2031 0902 7F93      		push r23
 2032 0904 8F93      		push r24
 2033 0906 9F93      		push r25
 2034 0908 AF93      		push r26
 2035 090a BF93      		push r27
 2036 090c EF93      		push r30
 2037 090e FF93      		push r31
 2038               	/* prologue: Signal */
 2039               	/* frame size = 0 */
 2040               	.LM302:
 2041 0910 8091 0000 		lds r24,TimerIntFunc+8
 2042 0914 9091 0000 		lds r25,(TimerIntFunc+8)+1
 2043 0918 892B      		or r24,r25
 2044 091a 01F0      		breq .L146
 2045               	.LM303:
 2046 091c E091 0000 		lds r30,TimerIntFunc+8
 2047 0920 F091 0000 		lds r31,(TimerIntFunc+8)+1
 2048 0924 0995      		icall
 2049               	.L146:
 2050               	/* epilogue start */
 2051               	.LM304:
 2052 0926 FF91      		pop r31
GAS LISTING C:\Users\ADMINI~1\AppData\Local\Temp/ccVnQtUk.s 			page 37


 2053 0928 EF91      		pop r30
 2054 092a BF91      		pop r27
 2055 092c AF91      		pop r26
 2056 092e 9F91      		pop r25
 2057 0930 8F91      		pop r24
 2058 0932 7F91      		pop r23
 2059 0934 6F91      		pop r22
 2060 0936 5F91      		pop r21
 2061 0938 4F91      		pop r20
 2062 093a 3F91      		pop r19
 2063 093c 2F91      		pop r18
 2064 093e 0F90      		pop r0
 2065 0940 0BBE      		out 91-32,r0
 2066 0942 0F90      		pop r0
 2067 0944 0FBE      		out __SREG__,r0
 2068 0946 0F90      		pop r0
 2069 0948 1F90      		pop __zero_reg__
 2070 094a 1895      		reti
 2071               	.LFE58:
 2072               		.size	__vector_13, .-__vector_13
 2073               	.global	__vector_24
 2074               		.type	__vector_24, @function
 2075               	__vector_24:
 2076               	.LFB59:
 2077               	.LM305:
 2078 094c 1F92      		push __zero_reg__
 2079 094e 0F92      		push r0
 2080 0950 0FB6      		in r0,__SREG__
 2081 0952 0F92      		push r0
 2082 0954 0BB6      		in r0,91-32
 2083 0956 0F92      		push r0
 2084 0958 1124      		clr __zero_reg__
 2085 095a 2F93      		push r18
 2086 095c 3F93      		push r19
 2087 095e 4F93      		push r20
 2088 0960 5F93      		push r21
 2089 0962 6F93      		push r22
 2090 0964 7F93      		push r23
 2091 0966 8F93      		push r24
 2092 0968 9F93      		push r25
 2093 096a AF93      		push r26
 2094 096c BF93      		push r27
 2095 096e EF93      		push r30
 2096 0970 FF93      		push r31
 2097               	/* prologue: Signal */
 2098               	/* frame size = 0 */
 2099               	.LM306:
 2100 0972 8091 0000 		lds r24,TimerIntFunc+10
 2101 0976 9091 0000 		lds r25,(TimerIntFunc+10)+1
 2102 097a 892B      		or r24,r25
 2103 097c 01F0      		breq .L149
 2104               	.LM307:
 2105 097e E091 0000 		lds r30,TimerIntFunc+10
 2106 0982 F091 0000 		lds r31,(TimerIntFunc+10)+1
 2107 0986 0995      		icall
 2108               	.L149:
 2109               	/* epilogue start */
GAS LISTING C:\Users\ADMINI~1\AppData\Local\Temp/ccVnQtUk.s 			page 38


 2110               	.LM308:
 2111 0988 FF91      		pop r31
 2112 098a EF91      		pop r30
 2113 098c BF91      		pop r27
 2114 098e AF91      		pop r26
 2115 0990 9F91      		pop r25
 2116 0992 8F91      		pop r24
 2117 0994 7F91      		pop r23
 2118 0996 6F91      		pop r22
 2119 0998 5F91      		pop r21
 2120 099a 4F91      		pop r20
 2121 099c 3F91      		pop r19
 2122 099e 2F91      		pop r18
 2123 09a0 0F90      		pop r0
 2124 09a2 0BBE      		out 91-32,r0
 2125 09a4 0F90      		pop r0
 2126 09a6 0FBE      		out __SREG__,r0
 2127 09a8 0F90      		pop r0
 2128 09aa 1F90      		pop __zero_reg__
 2129 09ac 1895      		reti
 2130               	.LFE59:
 2131               		.size	__vector_24, .-__vector_24
 2132               	.global	__vector_11
 2133               		.type	__vector_11, @function
 2134               	__vector_11:
 2135               	.LFB60:
 2136               	.LM309:
 2137 09ae 1F92      		push __zero_reg__
 2138 09b0 0F92      		push r0
 2139 09b2 0FB6      		in r0,__SREG__
 2140 09b4 0F92      		push r0
 2141 09b6 0BB6      		in r0,91-32
 2142 09b8 0F92      		push r0
 2143 09ba 1124      		clr __zero_reg__
 2144 09bc 2F93      		push r18
 2145 09be 3F93      		push r19
 2146 09c0 4F93      		push r20
 2147 09c2 5F93      		push r21
 2148 09c4 6F93      		push r22
 2149 09c6 7F93      		push r23
 2150 09c8 8F93      		push r24
 2151 09ca 9F93      		push r25
 2152 09cc AF93      		push r26
 2153 09ce BF93      		push r27
 2154 09d0 EF93      		push r30
 2155 09d2 FF93      		push r31
 2156               	/* prologue: Signal */
 2157               	/* frame size = 0 */
 2158               	.LM310:
 2159 09d4 8091 0000 		lds r24,TimerIntFunc+12
 2160 09d8 9091 0000 		lds r25,(TimerIntFunc+12)+1
 2161 09dc 892B      		or r24,r25
 2162 09de 01F0      		breq .L152
 2163               	.LM311:
 2164 09e0 E091 0000 		lds r30,TimerIntFunc+12
 2165 09e4 F091 0000 		lds r31,(TimerIntFunc+12)+1
 2166 09e8 0995      		icall
GAS LISTING C:\Users\ADMINI~1\AppData\Local\Temp/ccVnQtUk.s 			page 39


 2167               	.L152:
 2168               	/* epilogue start */
 2169               	.LM312:
 2170 09ea FF91      		pop r31
 2171 09ec EF91      		pop r30
 2172 09ee BF91      		pop r27
 2173 09f0 AF91      		pop r26
 2174 09f2 9F91      		pop r25
 2175 09f4 8F91      		pop r24
 2176 09f6 7F91      		pop r23
 2177 09f8 6F91      		pop r22
 2178 09fa 5F91      		pop r21
 2179 09fc 4F91      		pop r20
 2180 09fe 3F91      		pop r19
 2181 0a00 2F91      		pop r18
 2182 0a02 0F90      		pop r0
 2183 0a04 0BBE      		out 91-32,r0
 2184 0a06 0F90      		pop r0
 2185 0a08 0FBE      		out __SREG__,r0
 2186 0a0a 0F90      		pop r0
 2187 0a0c 1F90      		pop __zero_reg__
 2188 0a0e 1895      		reti
 2189               	.LFE60:
 2190               		.size	__vector_11, .-__vector_11
 2191               	.global	__vector_9
 2192               		.type	__vector_9, @function
 2193               	__vector_9:
 2194               	.LFB61:
 2195               	.LM313:
 2196 0a10 1F92      		push __zero_reg__
 2197 0a12 0F92      		push r0
 2198 0a14 0FB6      		in r0,__SREG__
 2199 0a16 0F92      		push r0
 2200 0a18 0BB6      		in r0,91-32
 2201 0a1a 0F92      		push r0
 2202 0a1c 1124      		clr __zero_reg__
 2203 0a1e 2F93      		push r18
 2204 0a20 3F93      		push r19
 2205 0a22 4F93      		push r20
 2206 0a24 5F93      		push r21
 2207 0a26 6F93      		push r22
 2208 0a28 7F93      		push r23
 2209 0a2a 8F93      		push r24
 2210 0a2c 9F93      		push r25
 2211 0a2e AF93      		push r26
 2212 0a30 BF93      		push r27
 2213 0a32 EF93      		push r30
 2214 0a34 FF93      		push r31
 2215               	/* prologue: Signal */
 2216               	/* frame size = 0 */
 2217               	.LM314:
 2218 0a36 8091 0000 		lds r24,TimerIntFunc+16
 2219 0a3a 9091 0000 		lds r25,(TimerIntFunc+16)+1
 2220 0a3e 892B      		or r24,r25
 2221 0a40 01F0      		breq .L155
 2222               	.LM315:
 2223 0a42 E091 0000 		lds r30,TimerIntFunc+16
GAS LISTING C:\Users\ADMINI~1\AppData\Local\Temp/ccVnQtUk.s 			page 40


 2224 0a46 F091 0000 		lds r31,(TimerIntFunc+16)+1
 2225 0a4a 0995      		icall
 2226               	.L155:
 2227               	/* epilogue start */
 2228               	.LM316:
 2229 0a4c FF91      		pop r31
 2230 0a4e EF91      		pop r30
 2231 0a50 BF91      		pop r27
 2232 0a52 AF91      		pop r26
 2233 0a54 9F91      		pop r25
 2234 0a56 8F91      		pop r24
 2235 0a58 7F91      		pop r23
 2236 0a5a 6F91      		pop r22
 2237 0a5c 5F91      		pop r21
 2238 0a5e 4F91      		pop r20
 2239 0a60 3F91      		pop r19
 2240 0a62 2F91      		pop r18
 2241 0a64 0F90      		pop r0
 2242 0a66 0BBE      		out 91-32,r0
 2243 0a68 0F90      		pop r0
 2244 0a6a 0FBE      		out __SREG__,r0
 2245 0a6c 0F90      		pop r0
 2246 0a6e 1F90      		pop __zero_reg__
 2247 0a70 1895      		reti
 2248               	.LFE61:
 2249               		.size	__vector_9, .-__vector_9
 2250               	.global	__vector_26
 2251               		.type	__vector_26, @function
 2252               	__vector_26:
 2253               	.LFB62:
 2254               	.LM317:
 2255 0a72 1F92      		push __zero_reg__
 2256 0a74 0F92      		push r0
 2257 0a76 0FB6      		in r0,__SREG__
 2258 0a78 0F92      		push r0
 2259 0a7a 0BB6      		in r0,91-32
 2260 0a7c 0F92      		push r0
 2261 0a7e 1124      		clr __zero_reg__
 2262 0a80 2F93      		push r18
 2263 0a82 3F93      		push r19
 2264 0a84 4F93      		push r20
 2265 0a86 5F93      		push r21
 2266 0a88 6F93      		push r22
 2267 0a8a 7F93      		push r23
 2268 0a8c 8F93      		push r24
 2269 0a8e 9F93      		push r25
 2270 0a90 AF93      		push r26
 2271 0a92 BF93      		push r27
 2272 0a94 EF93      		push r30
 2273 0a96 FF93      		push r31
 2274               	/* prologue: Signal */
 2275               	/* frame size = 0 */
 2276               	.LM318:
 2277 0a98 8091 0000 		lds r24,TimerIntFunc+20
 2278 0a9c 9091 0000 		lds r25,(TimerIntFunc+20)+1
 2279 0aa0 892B      		or r24,r25
 2280 0aa2 01F0      		breq .L158
GAS LISTING C:\Users\ADMINI~1\AppData\Local\Temp/ccVnQtUk.s 			page 41


 2281               	.LM319:
 2282 0aa4 E091 0000 		lds r30,TimerIntFunc+20
 2283 0aa8 F091 0000 		lds r31,(TimerIntFunc+20)+1
 2284 0aac 0995      		icall
 2285               	.L158:
 2286               	/* epilogue start */
 2287               	.LM320:
 2288 0aae FF91      		pop r31
 2289 0ab0 EF91      		pop r30
 2290 0ab2 BF91      		pop r27
 2291 0ab4 AF91      		pop r26
 2292 0ab6 9F91      		pop r25
 2293 0ab8 8F91      		pop r24
 2294 0aba 7F91      		pop r23
 2295 0abc 6F91      		pop r22
 2296 0abe 5F91      		pop r21
 2297 0ac0 4F91      		pop r20
 2298 0ac2 3F91      		pop r19
 2299 0ac4 2F91      		pop r18
 2300 0ac6 0F90      		pop r0
 2301 0ac8 0BBE      		out 91-32,r0
 2302 0aca 0F90      		pop r0
 2303 0acc 0FBE      		out __SREG__,r0
 2304 0ace 0F90      		pop r0
 2305 0ad0 1F90      		pop __zero_reg__
 2306 0ad2 1895      		reti
 2307               	.LFE62:
 2308               		.size	__vector_26, .-__vector_26
 2309               	.global	__vector_27
 2310               		.type	__vector_27, @function
 2311               	__vector_27:
 2312               	.LFB63:
 2313               	.LM321:
 2314 0ad4 1F92      		push __zero_reg__
 2315 0ad6 0F92      		push r0
 2316 0ad8 0FB6      		in r0,__SREG__
 2317 0ada 0F92      		push r0
 2318 0adc 0BB6      		in r0,91-32
 2319 0ade 0F92      		push r0
 2320 0ae0 1124      		clr __zero_reg__
 2321 0ae2 2F93      		push r18
 2322 0ae4 3F93      		push r19
 2323 0ae6 4F93      		push r20
 2324 0ae8 5F93      		push r21
 2325 0aea 6F93      		push r22
 2326 0aec 7F93      		push r23
 2327 0aee 8F93      		push r24
 2328 0af0 9F93      		push r25
 2329 0af2 AF93      		push r26
 2330 0af4 BF93      		push r27
 2331 0af6 EF93      		push r30
 2332 0af8 FF93      		push r31
 2333               	/* prologue: Signal */
 2334               	/* frame size = 0 */
 2335               	.LM322:
 2336 0afa 8091 0000 		lds r24,TimerIntFunc+22
 2337 0afe 9091 0000 		lds r25,(TimerIntFunc+22)+1
GAS LISTING C:\Users\ADMINI~1\AppData\Local\Temp/ccVnQtUk.s 			page 42


 2338 0b02 892B      		or r24,r25
 2339 0b04 01F0      		breq .L161
 2340               	.LM323:
 2341 0b06 E091 0000 		lds r30,TimerIntFunc+22
 2342 0b0a F091 0000 		lds r31,(TimerIntFunc+22)+1
 2343 0b0e 0995      		icall
 2344               	.L161:
 2345               	/* epilogue start */
 2346               	.LM324:
 2347 0b10 FF91      		pop r31
 2348 0b12 EF91      		pop r30
 2349 0b14 BF91      		pop r27
 2350 0b16 AF91      		pop r26
 2351 0b18 9F91      		pop r25
 2352 0b1a 8F91      		pop r24
 2353 0b1c 7F91      		pop r23
 2354 0b1e 6F91      		pop r22
 2355 0b20 5F91      		pop r21
 2356 0b22 4F91      		pop r20
 2357 0b24 3F91      		pop r19
 2358 0b26 2F91      		pop r18
 2359 0b28 0F90      		pop r0
 2360 0b2a 0BBE      		out 91-32,r0
 2361 0b2c 0F90      		pop r0
 2362 0b2e 0FBE      		out __SREG__,r0
 2363 0b30 0F90      		pop r0
 2364 0b32 1F90      		pop __zero_reg__
 2365 0b34 1895      		reti
 2366               	.LFE63:
 2367               		.size	__vector_27, .-__vector_27
 2368               	.global	__vector_28
 2369               		.type	__vector_28, @function
 2370               	__vector_28:
 2371               	.LFB64:
 2372               	.LM325:
 2373 0b36 1F92      		push __zero_reg__
 2374 0b38 0F92      		push r0
 2375 0b3a 0FB6      		in r0,__SREG__
 2376 0b3c 0F92      		push r0
 2377 0b3e 0BB6      		in r0,91-32
 2378 0b40 0F92      		push r0
 2379 0b42 1124      		clr __zero_reg__
 2380 0b44 2F93      		push r18
 2381 0b46 3F93      		push r19
 2382 0b48 4F93      		push r20
 2383 0b4a 5F93      		push r21
 2384 0b4c 6F93      		push r22
 2385 0b4e 7F93      		push r23
 2386 0b50 8F93      		push r24
 2387 0b52 9F93      		push r25
 2388 0b54 AF93      		push r26
 2389 0b56 BF93      		push r27
 2390 0b58 EF93      		push r30
 2391 0b5a FF93      		push r31
 2392               	/* prologue: Signal */
 2393               	/* frame size = 0 */
 2394               	.LM326:
GAS LISTING C:\Users\ADMINI~1\AppData\Local\Temp/ccVnQtUk.s 			page 43


 2395 0b5c 8091 0000 		lds r24,TimerIntFunc+24
 2396 0b60 9091 0000 		lds r25,(TimerIntFunc+24)+1
 2397 0b64 892B      		or r24,r25
 2398 0b66 01F0      		breq .L164
 2399               	.LM327:
 2400 0b68 E091 0000 		lds r30,TimerIntFunc+24
 2401 0b6c F091 0000 		lds r31,(TimerIntFunc+24)+1
 2402 0b70 0995      		icall
 2403               	.L164:
 2404               	/* epilogue start */
 2405               	.LM328:
 2406 0b72 FF91      		pop r31
 2407 0b74 EF91      		pop r30
 2408 0b76 BF91      		pop r27
 2409 0b78 AF91      		pop r26
 2410 0b7a 9F91      		pop r25
 2411 0b7c 8F91      		pop r24
 2412 0b7e 7F91      		pop r23
 2413 0b80 6F91      		pop r22
 2414 0b82 5F91      		pop r21
 2415 0b84 4F91      		pop r20
 2416 0b86 3F91      		pop r19
 2417 0b88 2F91      		pop r18
 2418 0b8a 0F90      		pop r0
 2419 0b8c 0BBE      		out 91-32,r0
 2420 0b8e 0F90      		pop r0
 2421 0b90 0FBE      		out __SREG__,r0
 2422 0b92 0F90      		pop r0
 2423 0b94 1F90      		pop __zero_reg__
 2424 0b96 1895      		reti
 2425               	.LFE64:
 2426               		.size	__vector_28, .-__vector_28
 2427               	.global	__vector_25
 2428               		.type	__vector_25, @function
 2429               	__vector_25:
 2430               	.LFB65:
 2431               	.LM329:
 2432 0b98 1F92      		push __zero_reg__
 2433 0b9a 0F92      		push r0
 2434 0b9c 0FB6      		in r0,__SREG__
 2435 0b9e 0F92      		push r0
 2436 0ba0 0BB6      		in r0,91-32
 2437 0ba2 0F92      		push r0
 2438 0ba4 1124      		clr __zero_reg__
 2439 0ba6 2F93      		push r18
 2440 0ba8 3F93      		push r19
 2441 0baa 4F93      		push r20
 2442 0bac 5F93      		push r21
 2443 0bae 6F93      		push r22
 2444 0bb0 7F93      		push r23
 2445 0bb2 8F93      		push r24
 2446 0bb4 9F93      		push r25
 2447 0bb6 AF93      		push r26
 2448 0bb8 BF93      		push r27
 2449 0bba EF93      		push r30
 2450 0bbc FF93      		push r31
 2451               	/* prologue: Signal */
GAS LISTING C:\Users\ADMINI~1\AppData\Local\Temp/ccVnQtUk.s 			page 44


 2452               	/* frame size = 0 */
 2453               	.LM330:
 2454 0bbe 8091 0000 		lds r24,TimerIntFunc+26
 2455 0bc2 9091 0000 		lds r25,(TimerIntFunc+26)+1
 2456 0bc6 892B      		or r24,r25
 2457 0bc8 01F0      		breq .L167
 2458               	.LM331:
 2459 0bca E091 0000 		lds r30,TimerIntFunc+26
 2460 0bce F091 0000 		lds r31,(TimerIntFunc+26)+1
 2461 0bd2 0995      		icall
 2462               	.L167:
 2463               	/* epilogue start */
 2464               	.LM332:
 2465 0bd4 FF91      		pop r31
 2466 0bd6 EF91      		pop r30
 2467 0bd8 BF91      		pop r27
 2468 0bda AF91      		pop r26
 2469 0bdc 9F91      		pop r25
 2470 0bde 8F91      		pop r24
 2471 0be0 7F91      		pop r23
 2472 0be2 6F91      		pop r22
 2473 0be4 5F91      		pop r21
 2474 0be6 4F91      		pop r20
 2475 0be8 3F91      		pop r19
 2476 0bea 2F91      		pop r18
 2477 0bec 0F90      		pop r0
 2478 0bee 0BBE      		out 91-32,r0
 2479 0bf0 0F90      		pop r0
 2480 0bf2 0FBE      		out __SREG__,r0
 2481 0bf4 0F90      		pop r0
 2482 0bf6 1F90      		pop __zero_reg__
 2483 0bf8 1895      		reti
 2484               	.LFE65:
 2485               		.size	__vector_25, .-__vector_25
 2486               	.global	TimerPrescaleFactor
 2487               		.section	.progmem.data,"a",@progbits
 2488               		.type	TimerPrescaleFactor, @object
 2489               		.size	TimerPrescaleFactor, 12
 2490               	TimerPrescaleFactor:
 2491 0000 0000      		.word	0
 2492 0002 0100      		.word	1
 2493 0004 0800      		.word	8
 2494 0006 4000      		.word	64
 2495 0008 0001      		.word	256
 2496 000a 0004      		.word	1024
 2497               	.global	TimerRTCPrescaleFactor
 2498               		.type	TimerRTCPrescaleFactor, @object
 2499               		.size	TimerRTCPrescaleFactor, 16
 2500               	TimerRTCPrescaleFactor:
 2501 000c 0000      		.word	0
 2502 000e 0100      		.word	1
 2503 0010 0800      		.word	8
 2504 0012 2000      		.word	32
 2505 0014 4000      		.word	64
 2506 0016 8000      		.word	128
 2507 0018 0001      		.word	256
 2508 001a 0004      		.word	1024
GAS LISTING C:\Users\ADMINI~1\AppData\Local\Temp/ccVnQtUk.s 			page 45


 2509               		.lcomm TimerIntFunc,28
 2510               		.comm TimerPauseReg,4,1
 2511               		.comm Timer0Reg0,4,1
 2512               		.comm Timer0Reg1,4,1
 2513               		.comm Timer2Reg0,4,1
 2514               		.comm Timer2Reg1,4,1
 2515               		.section	.debug_frame,"",@progbits
 2516               	.Lframe0:
 2517 0000 0C00 0000 		.long	.LECIE0-.LSCIE0
 2518               	.LSCIE0:
 2519 0004 FFFF FFFF 		.long	0xffffffff
 2520 0008 01        		.byte	0x1
 2521 0009 00        		.string	""
 2522 000a 01        		.uleb128 0x1
 2523 000b 7F        		.sleb128 -1
 2524 000c 24        		.byte	0x24
 2525 000d 0C        		.byte	0xc
 2526 000e 20        		.uleb128 0x20
 2527 000f 00        		.uleb128 0x0
 2528               		.p2align	2
 2529               	.LECIE0:
 2530               	.LSFDE0:
 2531 0010 0C00 0000 		.long	.LEFDE0-.LASFDE0
 2532               	.LASFDE0:
 2533 0014 0000 0000 		.long	.Lframe0
 2534 0018 0000 0000 		.long	.LFB2
 2535 001c 0200 0000 		.long	.LFE2-.LFB2
 2536               		.p2align	2
 2537               	.LEFDE0:
 2538               	.LSFDE2:
 2539 0020 0C00 0000 		.long	.LEFDE2-.LASFDE2
 2540               	.LASFDE2:
 2541 0024 0000 0000 		.long	.Lframe0
 2542 0028 0000 0000 		.long	.LFB4
 2543 002c 2C00 0000 		.long	.LFE4-.LFB4
 2544               		.p2align	2
 2545               	.LEFDE2:
 2546               	.LSFDE4:
 2547 0030 0C00 0000 		.long	.LEFDE4-.LASFDE4
 2548               	.LASFDE4:
 2549 0034 0000 0000 		.long	.Lframe0
 2550 0038 0000 0000 		.long	.LFB5
 2551 003c 0E00 0000 		.long	.LFE5-.LFB5
 2552               		.p2align	2
 2553               	.LEFDE4:
 2554               	.LSFDE6:
 2555 0040 0C00 0000 		.long	.LEFDE6-.LASFDE6
 2556               	.LASFDE6:
 2557 0044 0000 0000 		.long	.Lframe0
 2558 0048 0000 0000 		.long	.LFB6
 2559 004c 2C00 0000 		.long	.LFE6-.LFB6
 2560               		.p2align	2
 2561               	.LEFDE6:
 2562               	.LSFDE8:
 2563 0050 0C00 0000 		.long	.LEFDE8-.LASFDE8
 2564               	.LASFDE8:
 2565 0054 0000 0000 		.long	.Lframe0
GAS LISTING C:\Users\ADMINI~1\AppData\Local\Temp/ccVnQtUk.s 			page 46


 2566 0058 0000 0000 		.long	.LFB3
 2567 005c 4600 0000 		.long	.LFE3-.LFB3
 2568               		.p2align	2
 2569               	.LEFDE8:
 2570               	.LSFDE10:
 2571 0060 0C00 0000 		.long	.LEFDE10-.LASFDE10
 2572               	.LASFDE10:
 2573 0064 0000 0000 		.long	.Lframe0
 2574 0068 0000 0000 		.long	.LFB7
 2575 006c 0800 0000 		.long	.LFE7-.LFB7
 2576               		.p2align	2
 2577               	.LEFDE10:
 2578               	.LSFDE12:
 2579 0070 0C00 0000 		.long	.LEFDE12-.LASFDE12
 2580               	.LASFDE12:
 2581 0074 0000 0000 		.long	.Lframe0
 2582 0078 0000 0000 		.long	.LFB8
 2583 007c 1600 0000 		.long	.LFE8-.LFB8
 2584               		.p2align	2
 2585               	.LEFDE12:
 2586               	.LSFDE14:
 2587 0080 0C00 0000 		.long	.LEFDE14-.LASFDE14
 2588               	.LASFDE14:
 2589 0084 0000 0000 		.long	.Lframe0
 2590 0088 0000 0000 		.long	.LFB9
 2591 008c 0A00 0000 		.long	.LFE9-.LFB9
 2592               		.p2align	2
 2593               	.LEFDE14:
 2594               	.LSFDE16:
 2595 0090 0C00 0000 		.long	.LEFDE16-.LASFDE16
 2596               	.LASFDE16:
 2597 0094 0000 0000 		.long	.Lframe0
 2598 0098 0000 0000 		.long	.LFB10
 2599 009c 0A00 0000 		.long	.LFE10-.LFB10
 2600               		.p2align	2
 2601               	.LEFDE16:
 2602               	.LSFDE18:
 2603 00a0 0C00 0000 		.long	.LEFDE18-.LASFDE18
 2604               	.LASFDE18:
 2605 00a4 0000 0000 		.long	.Lframe0
 2606 00a8 0000 0000 		.long	.LFB11
 2607 00ac 0A00 0000 		.long	.LFE11-.LFB11
 2608               		.p2align	2
 2609               	.LEFDE18:
 2610               	.LSFDE20:
 2611 00b0 0C00 0000 		.long	.LEFDE20-.LASFDE20
 2612               	.LASFDE20:
 2613 00b4 0000 0000 		.long	.Lframe0
 2614 00b8 0000 0000 		.long	.LFB12
 2615 00bc 0E00 0000 		.long	.LFE12-.LFB12
 2616               		.p2align	2
 2617               	.LEFDE20:
 2618               	.LSFDE22:
 2619 00c0 0C00 0000 		.long	.LEFDE22-.LASFDE22
 2620               	.LASFDE22:
 2621 00c4 0000 0000 		.long	.Lframe0
 2622 00c8 0000 0000 		.long	.LFB13
GAS LISTING C:\Users\ADMINI~1\AppData\Local\Temp/ccVnQtUk.s 			page 47


 2623 00cc 1A00 0000 		.long	.LFE13-.LFB13
 2624               		.p2align	2
 2625               	.LEFDE22:
 2626               	.LSFDE24:
 2627 00d0 0C00 0000 		.long	.LEFDE24-.LASFDE24
 2628               	.LASFDE24:
 2629 00d4 0000 0000 		.long	.Lframe0
 2630 00d8 0000 0000 		.long	.LFB14
 2631 00dc 1A00 0000 		.long	.LFE14-.LFB14
 2632               		.p2align	2
 2633               	.LEFDE24:
 2634               	.LSFDE26:
 2635 00e0 0C00 0000 		.long	.LEFDE26-.LASFDE26
 2636               	.LASFDE26:
 2637 00e4 0000 0000 		.long	.Lframe0
 2638 00e8 0000 0000 		.long	.LFB15
 2639 00ec 1A00 0000 		.long	.LFE15-.LFB15
 2640               		.p2align	2
 2641               	.LEFDE26:
 2642               	.LSFDE28:
 2643 00f0 0C00 0000 		.long	.LEFDE28-.LASFDE28
 2644               	.LASFDE28:
 2645 00f4 0000 0000 		.long	.Lframe0
 2646 00f8 0000 0000 		.long	.LFB16
 2647 00fc 1C00 0000 		.long	.LFE16-.LFB16
 2648               		.p2align	2
 2649               	.LEFDE28:
 2650               	.LSFDE30:
 2651 0100 0C00 0000 		.long	.LEFDE30-.LASFDE30
 2652               	.LASFDE30:
 2653 0104 0000 0000 		.long	.Lframe0
 2654 0108 0000 0000 		.long	.LFB17
 2655 010c 1600 0000 		.long	.LFE17-.LFB17
 2656               		.p2align	2
 2657               	.LEFDE30:
 2658               	.LSFDE32:
 2659 0110 0C00 0000 		.long	.LEFDE32-.LASFDE32
 2660               	.LASFDE32:
 2661 0114 0000 0000 		.long	.Lframe0
 2662 0118 0000 0000 		.long	.LFB18
 2663 011c 1600 0000 		.long	.LFE18-.LFB18
 2664               		.p2align	2
 2665               	.LEFDE32:
 2666               	.LSFDE34:
 2667 0120 0C00 0000 		.long	.LEFDE34-.LASFDE34
 2668               	.LASFDE34:
 2669 0124 0000 0000 		.long	.Lframe0
 2670 0128 0000 0000 		.long	.LFB19
 2671 012c 1401 0000 		.long	.LFE19-.LFB19
 2672               		.p2align	2
 2673               	.LEFDE34:
 2674               	.LSFDE36:
 2675 0130 0C00 0000 		.long	.LEFDE36-.LASFDE36
 2676               	.LASFDE36:
 2677 0134 0000 0000 		.long	.Lframe0
 2678 0138 0000 0000 		.long	.LFB20
 2679 013c 2200 0000 		.long	.LFE20-.LFB20
GAS LISTING C:\Users\ADMINI~1\AppData\Local\Temp/ccVnQtUk.s 			page 48


 2680               		.p2align	2
 2681               	.LEFDE36:
 2682               	.LSFDE38:
 2683 0140 0C00 0000 		.long	.LEFDE38-.LASFDE38
 2684               	.LASFDE38:
 2685 0144 0000 0000 		.long	.Lframe0
 2686 0148 0000 0000 		.long	.LFB21
 2687 014c 1600 0000 		.long	.LFE21-.LFB21
 2688               		.p2align	2
 2689               	.LEFDE38:
 2690               	.LSFDE40:
 2691 0150 0C00 0000 		.long	.LEFDE40-.LASFDE40
 2692               	.LASFDE40:
 2693 0154 0000 0000 		.long	.Lframe0
 2694 0158 0000 0000 		.long	.LFB22
 2695 015c 2200 0000 		.long	.LFE22-.LFB22
 2696               		.p2align	2
 2697               	.LEFDE40:
 2698               	.LSFDE42:
 2699 0160 0C00 0000 		.long	.LEFDE42-.LASFDE42
 2700               	.LASFDE42:
 2701 0164 0000 0000 		.long	.Lframe0
 2702 0168 0000 0000 		.long	.LFB23
 2703 016c 1600 0000 		.long	.LFE23-.LFB23
 2704               		.p2align	2
 2705               	.LEFDE42:
 2706               	.LSFDE44:
 2707 0170 0C00 0000 		.long	.LEFDE44-.LASFDE44
 2708               	.LASFDE44:
 2709 0174 0000 0000 		.long	.Lframe0
 2710 0178 0000 0000 		.long	.LFB24
 2711 017c 2A00 0000 		.long	.LFE24-.LFB24
 2712               		.p2align	2
 2713               	.LEFDE44:
 2714               	.LSFDE46:
 2715 0180 0C00 0000 		.long	.LEFDE46-.LASFDE46
 2716               	.LASFDE46:
 2717 0184 0000 0000 		.long	.Lframe0
 2718 0188 0000 0000 		.long	.LFB25
 2719 018c 0E00 0000 		.long	.LFE25-.LFB25
 2720               		.p2align	2
 2721               	.LEFDE46:
 2722               	.LSFDE48:
 2723 0190 0C00 0000 		.long	.LEFDE48-.LASFDE48
 2724               	.LASFDE48:
 2725 0194 0000 0000 		.long	.Lframe0
 2726 0198 0000 0000 		.long	.LFB26
 2727 019c 0E00 0000 		.long	.LFE26-.LFB26
 2728               		.p2align	2
 2729               	.LEFDE48:
 2730               	.LSFDE50:
 2731 01a0 0C00 0000 		.long	.LEFDE50-.LASFDE50
 2732               	.LASFDE50:
 2733 01a4 0000 0000 		.long	.Lframe0
 2734 01a8 0000 0000 		.long	.LFB27
 2735 01ac 0400 0000 		.long	.LFE27-.LFB27
 2736               		.p2align	2
GAS LISTING C:\Users\ADMINI~1\AppData\Local\Temp/ccVnQtUk.s 			page 49


 2737               	.LEFDE50:
 2738               	.LSFDE52:
 2739 01b0 0C00 0000 		.long	.LEFDE52-.LASFDE52
 2740               	.LASFDE52:
 2741 01b4 0000 0000 		.long	.Lframe0
 2742 01b8 0000 0000 		.long	.LFB28
 2743 01bc 3800 0000 		.long	.LFE28-.LFB28
 2744               		.p2align	2
 2745               	.LEFDE52:
 2746               	.LSFDE54:
 2747 01c0 0C00 0000 		.long	.LEFDE54-.LASFDE54
 2748               	.LASFDE54:
 2749 01c4 0000 0000 		.long	.Lframe0
 2750 01c8 0000 0000 		.long	.LFB29
 2751 01cc 2E00 0000 		.long	.LFE29-.LFB29
 2752               		.p2align	2
 2753               	.LEFDE54:
 2754               	.LSFDE56:
 2755 01d0 0C00 0000 		.long	.LEFDE56-.LASFDE56
 2756               	.LASFDE56:
 2757 01d4 0000 0000 		.long	.Lframe0
 2758 01d8 0000 0000 		.long	.LFB30
 2759 01dc 3200 0000 		.long	.LFE30-.LFB30
 2760               		.p2align	2
 2761               	.LEFDE56:
 2762               	.LSFDE58:
 2763 01e0 0C00 0000 		.long	.LEFDE58-.LASFDE58
 2764               	.LASFDE58:
 2765 01e4 0000 0000 		.long	.Lframe0
 2766 01e8 0000 0000 		.long	.LFB31
 2767 01ec 0E00 0000 		.long	.LFE31-.LFB31
 2768               		.p2align	2
 2769               	.LEFDE58:
 2770               	.LSFDE60:
 2771 01f0 0C00 0000 		.long	.LEFDE60-.LASFDE60
 2772               	.LASFDE60:
 2773 01f4 0000 0000 		.long	.Lframe0
 2774 01f8 0000 0000 		.long	.LFB32
 2775 01fc 0E00 0000 		.long	.LFE32-.LFB32
 2776               		.p2align	2
 2777               	.LEFDE60:
 2778               	.LSFDE62:
 2779 0200 0C00 0000 		.long	.LEFDE62-.LASFDE62
 2780               	.LASFDE62:
 2781 0204 0000 0000 		.long	.Lframe0
 2782 0208 0000 0000 		.long	.LFB33
 2783 020c 0E00 0000 		.long	.LFE33-.LFB33
 2784               		.p2align	2
 2785               	.LEFDE62:
 2786               	.LSFDE64:
 2787 0210 0C00 0000 		.long	.LEFDE64-.LASFDE64
 2788               	.LASFDE64:
 2789 0214 0000 0000 		.long	.Lframe0
 2790 0218 0000 0000 		.long	.LFB34
 2791 021c 0E00 0000 		.long	.LFE34-.LFB34
 2792               		.p2align	2
 2793               	.LEFDE64:
GAS LISTING C:\Users\ADMINI~1\AppData\Local\Temp/ccVnQtUk.s 			page 50


 2794               	.LSFDE66:
 2795 0220 0C00 0000 		.long	.LEFDE66-.LASFDE66
 2796               	.LASFDE66:
 2797 0224 0000 0000 		.long	.Lframe0
 2798 0228 0000 0000 		.long	.LFB35
 2799 022c 0E00 0000 		.long	.LFE35-.LFB35
 2800               		.p2align	2
 2801               	.LEFDE66:
 2802               	.LSFDE68:
 2803 0230 0C00 0000 		.long	.LEFDE68-.LASFDE68
 2804               	.LASFDE68:
 2805 0234 0000 0000 		.long	.Lframe0
 2806 0238 0000 0000 		.long	.LFB36
 2807 023c 0E00 0000 		.long	.LFE36-.LFB36
 2808               		.p2align	2
 2809               	.LEFDE68:
 2810               	.LSFDE70:
 2811 0240 0C00 0000 		.long	.LEFDE70-.LASFDE70
 2812               	.LASFDE70:
 2813 0244 0000 0000 		.long	.Lframe0
 2814 0248 0000 0000 		.long	.LFB37
 2815 024c 0600 0000 		.long	.LFE37-.LFB37
 2816               		.p2align	2
 2817               	.LEFDE70:
 2818               	.LSFDE72:
 2819 0250 0C00 0000 		.long	.LEFDE72-.LASFDE72
 2820               	.LASFDE72:
 2821 0254 0000 0000 		.long	.Lframe0
 2822 0258 0000 0000 		.long	.LFB38
 2823 025c 0600 0000 		.long	.LFE38-.LFB38
 2824               		.p2align	2
 2825               	.LEFDE72:
 2826               	.LSFDE74:
 2827 0260 0C00 0000 		.long	.LEFDE74-.LASFDE74
 2828               	.LASFDE74:
 2829 0264 0000 0000 		.long	.Lframe0
 2830 0268 0000 0000 		.long	.LFB39
 2831 026c 0A00 0000 		.long	.LFE39-.LFB39
 2832               		.p2align	2
 2833               	.LEFDE74:
 2834               	.LSFDE76:
 2835 0270 0C00 0000 		.long	.LEFDE76-.LASFDE76
 2836               	.LASFDE76:
 2837 0274 0000 0000 		.long	.Lframe0
 2838 0278 0000 0000 		.long	.LFB40
 2839 027c 5000 0000 		.long	.LFE40-.LFB40
 2840               		.p2align	2
 2841               	.LEFDE76:
 2842               	.LSFDE78:
 2843 0280 0C00 0000 		.long	.LEFDE78-.LASFDE78
 2844               	.LASFDE78:
 2845 0284 0000 0000 		.long	.Lframe0
 2846 0288 0000 0000 		.long	.LFB41
 2847 028c 4200 0000 		.long	.LFE41-.LFB41
 2848               		.p2align	2
 2849               	.LEFDE78:
 2850               	.LSFDE80:
GAS LISTING C:\Users\ADMINI~1\AppData\Local\Temp/ccVnQtUk.s 			page 51


 2851 0290 0C00 0000 		.long	.LEFDE80-.LASFDE80
 2852               	.LASFDE80:
 2853 0294 0000 0000 		.long	.Lframe0
 2854 0298 0000 0000 		.long	.LFB42
 2855 029c 3600 0000 		.long	.LFE42-.LFB42
 2856               		.p2align	2
 2857               	.LEFDE80:
 2858               	.LSFDE82:
 2859 02a0 0C00 0000 		.long	.LEFDE82-.LASFDE82
 2860               	.LASFDE82:
 2861 02a4 0000 0000 		.long	.Lframe0
 2862 02a8 0000 0000 		.long	.LFB43
 2863 02ac 1200 0000 		.long	.LFE43-.LFB43
 2864               		.p2align	2
 2865               	.LEFDE82:
 2866               	.LSFDE84:
 2867 02b0 0C00 0000 		.long	.LEFDE84-.LASFDE84
 2868               	.LASFDE84:
 2869 02b4 0000 0000 		.long	.Lframe0
 2870 02b8 0000 0000 		.long	.LFB44
 2871 02bc 1200 0000 		.long	.LFE44-.LFB44
 2872               		.p2align	2
 2873               	.LEFDE84:
 2874               	.LSFDE86:
 2875 02c0 0C00 0000 		.long	.LEFDE86-.LASFDE86
 2876               	.LASFDE86:
 2877 02c4 0000 0000 		.long	.Lframe0
 2878 02c8 0000 0000 		.long	.LFB45
 2879 02cc 1200 0000 		.long	.LFE45-.LFB45
 2880               		.p2align	2
 2881               	.LEFDE86:
 2882               	.LSFDE88:
 2883 02d0 0C00 0000 		.long	.LEFDE88-.LASFDE88
 2884               	.LASFDE88:
 2885 02d4 0000 0000 		.long	.Lframe0
 2886 02d8 0000 0000 		.long	.LFB46
 2887 02dc 1200 0000 		.long	.LFE46-.LFB46
 2888               		.p2align	2
 2889               	.LEFDE88:
 2890               	.LSFDE90:
 2891 02e0 0C00 0000 		.long	.LEFDE90-.LASFDE90
 2892               	.LASFDE90:
 2893 02e4 0000 0000 		.long	.Lframe0
 2894 02e8 0000 0000 		.long	.LFB47
 2895 02ec 1200 0000 		.long	.LFE47-.LFB47
 2896               		.p2align	2
 2897               	.LEFDE90:
 2898               	.LSFDE92:
 2899 02f0 0C00 0000 		.long	.LEFDE92-.LASFDE92
 2900               	.LASFDE92:
 2901 02f4 0000 0000 		.long	.Lframe0
 2902 02f8 0000 0000 		.long	.LFB48
 2903 02fc 1200 0000 		.long	.LFE48-.LFB48
 2904               		.p2align	2
 2905               	.LEFDE92:
 2906               	.LSFDE94:
 2907 0300 0C00 0000 		.long	.LEFDE94-.LASFDE94
GAS LISTING C:\Users\ADMINI~1\AppData\Local\Temp/ccVnQtUk.s 			page 52


 2908               	.LASFDE94:
 2909 0304 0000 0000 		.long	.Lframe0
 2910 0308 0000 0000 		.long	.LFB49
 2911 030c 0A00 0000 		.long	.LFE49-.LFB49
 2912               		.p2align	2
 2913               	.LEFDE94:
 2914               	.LSFDE96:
 2915 0310 0C00 0000 		.long	.LEFDE96-.LASFDE96
 2916               	.LASFDE96:
 2917 0314 0000 0000 		.long	.Lframe0
 2918 0318 0000 0000 		.long	.LFB50
 2919 031c 0A00 0000 		.long	.LFE50-.LFB50
 2920               		.p2align	2
 2921               	.LEFDE96:
 2922               	.LSFDE98:
 2923 0320 0C00 0000 		.long	.LEFDE98-.LASFDE98
 2924               	.LASFDE98:
 2925 0324 0000 0000 		.long	.Lframe0
 2926 0328 0000 0000 		.long	.LFB51
 2927 032c 0A00 0000 		.long	.LFE51-.LFB51
 2928               		.p2align	2
 2929               	.LEFDE98:
 2930               	.LSFDE100:
 2931 0330 0C00 0000 		.long	.LEFDE100-.LASFDE100
 2932               	.LASFDE100:
 2933 0334 0000 0000 		.long	.Lframe0
 2934 0338 0000 0000 		.long	.LFB52
 2935 033c C600 0000 		.long	.LFE52-.LFB52
 2936               		.p2align	2
 2937               	.LEFDE100:
 2938               	.LSFDE102:
 2939 0340 0C00 0000 		.long	.LEFDE102-.LASFDE102
 2940               	.LASFDE102:
 2941 0344 0000 0000 		.long	.Lframe0
 2942 0348 0000 0000 		.long	.LFB53
 2943 034c 6200 0000 		.long	.LFE53-.LFB53
 2944               		.p2align	2
 2945               	.LEFDE102:
 2946               	.LSFDE104:
 2947 0350 0C00 0000 		.long	.LEFDE104-.LASFDE104
 2948               	.LASFDE104:
 2949 0354 0000 0000 		.long	.Lframe0
 2950 0358 0000 0000 		.long	.LFB54
 2951 035c EC00 0000 		.long	.LFE54-.LFB54
 2952               		.p2align	2
 2953               	.LEFDE104:
 2954               	.LSFDE106:
 2955 0360 0C00 0000 		.long	.LEFDE106-.LASFDE106
 2956               	.LASFDE106:
 2957 0364 0000 0000 		.long	.Lframe0
 2958 0368 0000 0000 		.long	.LFB55
 2959 036c 6200 0000 		.long	.LFE55-.LFB55
 2960               		.p2align	2
 2961               	.LEFDE106:
 2962               	.LSFDE108:
 2963 0370 0C00 0000 		.long	.LEFDE108-.LASFDE108
 2964               	.LASFDE108:
GAS LISTING C:\Users\ADMINI~1\AppData\Local\Temp/ccVnQtUk.s 			page 53


 2965 0374 0000 0000 		.long	.Lframe0
 2966 0378 0000 0000 		.long	.LFB56
 2967 037c 6200 0000 		.long	.LFE56-.LFB56
 2968               		.p2align	2
 2969               	.LEFDE108:
 2970               	.LSFDE110:
 2971 0380 0C00 0000 		.long	.LEFDE110-.LASFDE110
 2972               	.LASFDE110:
 2973 0384 0000 0000 		.long	.Lframe0
 2974 0388 0000 0000 		.long	.LFB57
 2975 038c 6200 0000 		.long	.LFE57-.LFB57
 2976               		.p2align	2
 2977               	.LEFDE110:
 2978               	.LSFDE112:
 2979 0390 0C00 0000 		.long	.LEFDE112-.LASFDE112
 2980               	.LASFDE112:
 2981 0394 0000 0000 		.long	.Lframe0
 2982 0398 0000 0000 		.long	.LFB58
 2983 039c 6200 0000 		.long	.LFE58-.LFB58
 2984               		.p2align	2
 2985               	.LEFDE112:
 2986               	.LSFDE114:
 2987 03a0 0C00 0000 		.long	.LEFDE114-.LASFDE114
 2988               	.LASFDE114:
 2989 03a4 0000 0000 		.long	.Lframe0
 2990 03a8 0000 0000 		.long	.LFB59
 2991 03ac 6200 0000 		.long	.LFE59-.LFB59
 2992               		.p2align	2
 2993               	.LEFDE114:
 2994               	.LSFDE116:
 2995 03b0 0C00 0000 		.long	.LEFDE116-.LASFDE116
 2996               	.LASFDE116:
 2997 03b4 0000 0000 		.long	.Lframe0
 2998 03b8 0000 0000 		.long	.LFB60
 2999 03bc 6200 0000 		.long	.LFE60-.LFB60
 3000               		.p2align	2
 3001               	.LEFDE116:
 3002               	.LSFDE118:
 3003 03c0 0C00 0000 		.long	.LEFDE118-.LASFDE118
 3004               	.LASFDE118:
 3005 03c4 0000 0000 		.long	.Lframe0
 3006 03c8 0000 0000 		.long	.LFB61
 3007 03cc 6200 0000 		.long	.LFE61-.LFB61
 3008               		.p2align	2
 3009               	.LEFDE118:
 3010               	.LSFDE120:
 3011 03d0 0C00 0000 		.long	.LEFDE120-.LASFDE120
 3012               	.LASFDE120:
 3013 03d4 0000 0000 		.long	.Lframe0
 3014 03d8 0000 0000 		.long	.LFB62
 3015 03dc 6200 0000 		.long	.LFE62-.LFB62
 3016               		.p2align	2
 3017               	.LEFDE120:
 3018               	.LSFDE122:
 3019 03e0 0C00 0000 		.long	.LEFDE122-.LASFDE122
 3020               	.LASFDE122:
 3021 03e4 0000 0000 		.long	.Lframe0
GAS LISTING C:\Users\ADMINI~1\AppData\Local\Temp/ccVnQtUk.s 			page 54


 3022 03e8 0000 0000 		.long	.LFB63
 3023 03ec 6200 0000 		.long	.LFE63-.LFB63
 3024               		.p2align	2
 3025               	.LEFDE122:
 3026               	.LSFDE124:
 3027 03f0 0C00 0000 		.long	.LEFDE124-.LASFDE124
 3028               	.LASFDE124:
 3029 03f4 0000 0000 		.long	.Lframe0
 3030 03f8 0000 0000 		.long	.LFB64
 3031 03fc 6200 0000 		.long	.LFE64-.LFB64
 3032               		.p2align	2
 3033               	.LEFDE124:
 3034               	.LSFDE126:
 3035 0400 0C00 0000 		.long	.LEFDE126-.LASFDE126
 3036               	.LASFDE126:
 3037 0404 0000 0000 		.long	.Lframe0
 3038 0408 0000 0000 		.long	.LFB65
 3039 040c 6200 0000 		.long	.LFE65-.LFB65
 3040               		.p2align	2
 3041               	.LEFDE126:
 3042               		.text
 3043               	.Letext0:
 3044               		.section	.debug_loc,"",@progbits
 3045               	.Ldebug_loc0:
 3046               	.LLST12:
 3047 0000 0E01 0000 		.long	.LVL8-.Ltext0
 3048 0004 1001 0000 		.long	.LVL9-.Ltext0
 3049 0008 0600      		.word	0x6
 3050 000a 62        		.byte	0x62
 3051 000b 93        		.byte	0x93
 3052 000c 01        		.uleb128 0x1
 3053 000d 63        		.byte	0x63
 3054 000e 93        		.byte	0x93
 3055 000f 01        		.uleb128 0x1
 3056 0010 0000 0000 		.long	0x0
 3057 0014 0000 0000 		.long	0x0
 3058               	.LLST14:
 3059 0018 2801 0000 		.long	.LVL13-.Ltext0
 3060 001c 2A01 0000 		.long	.LVL14-.Ltext0
 3061 0020 0600      		.word	0x6
 3062 0022 62        		.byte	0x62
 3063 0023 93        		.byte	0x93
 3064 0024 01        		.uleb128 0x1
 3065 0025 63        		.byte	0x63
 3066 0026 93        		.byte	0x93
 3067 0027 01        		.uleb128 0x1
 3068 0028 0000 0000 		.long	0x0
 3069 002c 0000 0000 		.long	0x0
 3070               	.LLST16:
 3071 0030 4201 0000 		.long	.LVL18-.Ltext0
 3072 0034 4401 0000 		.long	.LVL19-.Ltext0
 3073 0038 0600      		.word	0x6
 3074 003a 62        		.byte	0x62
 3075 003b 93        		.byte	0x93
 3076 003c 01        		.uleb128 0x1
 3077 003d 63        		.byte	0x63
 3078 003e 93        		.byte	0x93
GAS LISTING C:\Users\ADMINI~1\AppData\Local\Temp/ccVnQtUk.s 			page 55


 3079 003f 01        		.uleb128 0x1
 3080 0040 0000 0000 		.long	0x0
 3081 0044 0000 0000 		.long	0x0
 3082               	.LLST18:
 3083 0048 5E01 0000 		.long	.LVL23-.Ltext0
 3084 004c 6001 0000 		.long	.LVL24-.Ltext0
 3085 0050 0600      		.word	0x6
 3086 0052 62        		.byte	0x62
 3087 0053 93        		.byte	0x93
 3088 0054 01        		.uleb128 0x1
 3089 0055 63        		.byte	0x63
 3090 0056 93        		.byte	0x93
 3091 0057 01        		.uleb128 0x1
 3092 0058 0000 0000 		.long	0x0
 3093 005c 0000 0000 		.long	0x0
 3094               	.LLST22:
 3095 0060 8E01 0000 		.long	.LVL27-.Ltext0
 3096 0064 B001 0000 		.long	.LVL29-.Ltext0
 3097 0068 0600      		.word	0x6
 3098 006a 68        		.byte	0x68
 3099 006b 93        		.byte	0x93
 3100 006c 01        		.uleb128 0x1
 3101 006d 69        		.byte	0x69
 3102 006e 93        		.byte	0x93
 3103 006f 01        		.uleb128 0x1
 3104 0070 B001 0000 		.long	.LVL29-.Ltext0
 3105 0074 F601 0000 		.long	.LVL38-.Ltext0
 3106 0078 0600      		.word	0x6
 3107 007a 6C        		.byte	0x6c
 3108 007b 93        		.byte	0x93
 3109 007c 01        		.uleb128 0x1
 3110 007d 6D        		.byte	0x6d
 3111 007e 93        		.byte	0x93
 3112 007f 01        		.uleb128 0x1
 3113 0080 F601 0000 		.long	.LVL38-.Ltext0
 3114 0084 0A02 0000 		.long	.LVL40-.Ltext0
 3115 0088 0C00      		.word	0xc
 3116 008a 62        		.byte	0x62
 3117 008b 93        		.byte	0x93
 3118 008c 01        		.uleb128 0x1
 3119 008d 63        		.byte	0x63
 3120 008e 93        		.byte	0x93
 3121 008f 01        		.uleb128 0x1
 3122 0090 64        		.byte	0x64
 3123 0091 93        		.byte	0x93
 3124 0092 01        		.uleb128 0x1
 3125 0093 65        		.byte	0x65
 3126 0094 93        		.byte	0x93
 3127 0095 01        		.uleb128 0x1
 3128 0096 0A02 0000 		.long	.LVL40-.Ltext0
 3129 009a 2602 0000 		.long	.LVL44-.Ltext0
 3130 009e 0600      		.word	0x6
 3131 00a0 6C        		.byte	0x6c
 3132 00a1 93        		.byte	0x93
 3133 00a2 01        		.uleb128 0x1
 3134 00a3 6D        		.byte	0x6d
 3135 00a4 93        		.byte	0x93
GAS LISTING C:\Users\ADMINI~1\AppData\Local\Temp/ccVnQtUk.s 			page 56


 3136 00a5 01        		.uleb128 0x1
 3137 00a6 2602 0000 		.long	.LVL44-.Ltext0
 3138 00aa 9802 0000 		.long	.LVL47-.Ltext0
 3139 00ae 0C00      		.word	0xc
 3140 00b0 62        		.byte	0x62
 3141 00b1 93        		.byte	0x93
 3142 00b2 01        		.uleb128 0x1
 3143 00b3 63        		.byte	0x63
 3144 00b4 93        		.byte	0x93
 3145 00b5 01        		.uleb128 0x1
 3146 00b6 64        		.byte	0x64
 3147 00b7 93        		.byte	0x93
 3148 00b8 01        		.uleb128 0x1
 3149 00b9 65        		.byte	0x65
 3150 00ba 93        		.byte	0x93
 3151 00bb 01        		.uleb128 0x1
 3152 00bc 0000 0000 		.long	0x0
 3153 00c0 0000 0000 		.long	0x0
 3154               	.LLST23:
 3155 00c4 9E01 0000 		.long	.LVL28-.Ltext0
 3156 00c8 9A02 0000 		.long	.LVL48-.Ltext0
 3157 00cc 0100      		.word	0x1
 3158 00ce 61        		.byte	0x61
 3159 00cf 0000 0000 		.long	0x0
 3160 00d3 0000 0000 		.long	0x0
 3161               	.LLST24:
 3162 00d7 E601 0000 		.long	.LVL37-.Ltext0
 3163 00db FA01 0000 		.long	.LVL39-.Ltext0
 3164 00df 0C00      		.word	0xc
 3165 00e1 66        		.byte	0x66
 3166 00e2 93        		.byte	0x93
 3167 00e3 01        		.uleb128 0x1
 3168 00e4 67        		.byte	0x67
 3169 00e5 93        		.byte	0x93
 3170 00e6 01        		.uleb128 0x1
 3171 00e7 68        		.byte	0x68
 3172 00e8 93        		.byte	0x93
 3173 00e9 01        		.uleb128 0x1
 3174 00ea 69        		.byte	0x69
 3175 00eb 93        		.byte	0x93
 3176 00ec 01        		.uleb128 0x1
 3177 00ed 1002 0000 		.long	.LVL42-.Ltext0
 3178 00f1 1C02 0000 		.long	.LVL43-.Ltext0
 3179 00f5 0C00      		.word	0xc
 3180 00f7 66        		.byte	0x66
 3181 00f8 93        		.byte	0x93
 3182 00f9 01        		.uleb128 0x1
 3183 00fa 67        		.byte	0x67
 3184 00fb 93        		.byte	0x93
 3185 00fc 01        		.uleb128 0x1
 3186 00fd 68        		.byte	0x68
 3187 00fe 93        		.byte	0x93
 3188 00ff 01        		.uleb128 0x1
 3189 0100 69        		.byte	0x69
 3190 0101 93        		.byte	0x93
 3191 0102 01        		.uleb128 0x1
 3192 0103 0000 0000 		.long	0x0
GAS LISTING C:\Users\ADMINI~1\AppData\Local\Temp/ccVnQtUk.s 			page 57


 3193 0107 0000 0000 		.long	0x0
 3194               	.LLST25:
 3195 010b 0E02 0000 		.long	.LVL41-.Ltext0
 3196 010f 1002 0000 		.long	.LVL42-.Ltext0
 3197 0113 0C00      		.word	0xc
 3198 0115 68        		.byte	0x68
 3199 0116 93        		.byte	0x93
 3200 0117 01        		.uleb128 0x1
 3201 0118 69        		.byte	0x69
 3202 0119 93        		.byte	0x93
 3203 011a 01        		.uleb128 0x1
 3204 011b 6A        		.byte	0x6a
 3205 011c 93        		.byte	0x93
 3206 011d 01        		.uleb128 0x1
 3207 011e 6B        		.byte	0x6b
 3208 011f 93        		.byte	0x93
 3209 0120 01        		.uleb128 0x1
 3210 0121 5202 0000 		.long	.LVL45-.Ltext0
 3211 0125 8202 0000 		.long	.LVL46-.Ltext0
 3212 0129 0C00      		.word	0xc
 3213 012b 66        		.byte	0x66
 3214 012c 93        		.byte	0x93
 3215 012d 01        		.uleb128 0x1
 3216 012e 67        		.byte	0x67
 3217 012f 93        		.byte	0x93
 3218 0130 01        		.uleb128 0x1
 3219 0131 68        		.byte	0x68
 3220 0132 93        		.byte	0x93
 3221 0133 01        		.uleb128 0x1
 3222 0134 69        		.byte	0x69
 3223 0135 93        		.byte	0x93
 3224 0136 01        		.uleb128 0x1
 3225 0137 0000 0000 		.long	0x0
 3226 013b 0000 0000 		.long	0x0
 3227               	.LLST26:
 3228 013f B401 0000 		.long	.LVL31-.Ltext0
 3229 0143 D401 0000 		.long	.LVL35-.Ltext0
 3230 0147 0600      		.word	0x6
 3231 0149 6E        		.byte	0x6e
 3232 014a 93        		.byte	0x93
 3233 014b 01        		.uleb128 0x1
 3234 014c 6F        		.byte	0x6f
 3235 014d 93        		.byte	0x93
 3236 014e 01        		.uleb128 0x1
 3237 014f 0000 0000 		.long	0x0
 3238 0153 0000 0000 		.long	0x0
 3239               	.LLST27:
 3240 0157 C401 0000 		.long	.LVL33-.Ltext0
 3241 015b C801 0000 		.long	.LVL34-.Ltext0
 3242 015f 0600      		.word	0x6
 3243 0161 62        		.byte	0x62
 3244 0162 93        		.byte	0x93
 3245 0163 01        		.uleb128 0x1
 3246 0164 63        		.byte	0x63
 3247 0165 93        		.byte	0x93
 3248 0166 01        		.uleb128 0x1
 3249 0167 C801 0000 		.long	.LVL34-.Ltext0
GAS LISTING C:\Users\ADMINI~1\AppData\Local\Temp/ccVnQtUk.s 			page 58


 3250 016b D401 0000 		.long	.LVL35-.Ltext0
 3251 016f 0C00      		.word	0xc
 3252 0171 62        		.byte	0x62
 3253 0172 93        		.byte	0x93
 3254 0173 01        		.uleb128 0x1
 3255 0174 63        		.byte	0x63
 3256 0175 93        		.byte	0x93
 3257 0176 01        		.uleb128 0x1
 3258 0177 64        		.byte	0x64
 3259 0178 93        		.byte	0x93
 3260 0179 01        		.uleb128 0x1
 3261 017a 65        		.byte	0x65
 3262 017b 93        		.byte	0x93
 3263 017c 01        		.uleb128 0x1
 3264 017d 0000 0000 		.long	0x0
 3265 0181 0000 0000 		.long	0x0
 3266               	.LLST33:
 3267 0185 1203 0000 		.long	.LVL49-.Ltext0
 3268 0189 1803 0000 		.long	.LVL50-.Ltext0
 3269 018d 0100      		.word	0x1
 3270 018f 68        		.byte	0x68
 3271 0190 2203 0000 		.long	.LVL51-.Ltext0
 3272 0194 2803 0000 		.long	.LVL52-.Ltext0
 3273 0198 0100      		.word	0x1
 3274 019a 68        		.byte	0x68
 3275 019b 2C03 0000 		.long	.LVL53-.Ltext0
 3276 019f 2E03 0000 		.long	.LVL54-.Ltext0
 3277 01a3 0100      		.word	0x1
 3278 01a5 68        		.byte	0x68
 3279 01a6 0000 0000 		.long	0x0
 3280 01aa 0000 0000 		.long	0x0
 3281               	.LLST38:
 3282 01ae 5C03 0000 		.long	.LVL56-.Ltext0
 3283 01b2 6203 0000 		.long	.LVL57-.Ltext0
 3284 01b6 0100      		.word	0x1
 3285 01b8 68        		.byte	0x68
 3286 01b9 6C03 0000 		.long	.LVL58-.Ltext0
 3287 01bd 7203 0000 		.long	.LVL59-.Ltext0
 3288 01c1 0100      		.word	0x1
 3289 01c3 68        		.byte	0x68
 3290 01c4 7603 0000 		.long	.LVL60-.Ltext0
 3291 01c8 7803 0000 		.long	.LVL61-.Ltext0
 3292 01cc 0100      		.word	0x1
 3293 01ce 68        		.byte	0x68
 3294 01cf 0000 0000 		.long	0x0
 3295 01d3 0000 0000 		.long	0x0
 3296               	.LLST51:
 3297 01d7 5E04 0000 		.long	.LVL70-.Ltext0
 3298 01db 6604 0000 		.long	.LVL71-.Ltext0
 3299 01df 0100      		.word	0x1
 3300 01e1 68        		.byte	0x68
 3301 01e2 7404 0000 		.long	.LVL72-.Ltext0
 3302 01e6 7C04 0000 		.long	.LVL73-.Ltext0
 3303 01ea 0100      		.word	0x1
 3304 01ec 68        		.byte	0x68
 3305 01ed 8004 0000 		.long	.LVL74-.Ltext0
 3306 01f1 8404 0000 		.long	.LVL75-.Ltext0
GAS LISTING C:\Users\ADMINI~1\AppData\Local\Temp/ccVnQtUk.s 			page 59


 3307 01f5 0100      		.word	0x1
 3308 01f7 68        		.byte	0x68
 3309 01f8 0000 0000 		.long	0x0
 3310 01fc 0000 0000 		.long	0x0
 3311               		.section	.debug_info
 3312 0000 E40B 0000 		.long	0xbe4
 3313 0004 0200      		.word	0x2
 3314 0006 0000 0000 		.long	.Ldebug_abbrev0
 3315 000a 04        		.byte	0x4
 3316 000b 01        		.uleb128 0x1
 3317 000c 0000 0000 		.long	.LASF98
 3318 0010 01        		.byte	0x1
 3319 0011 0000 0000 		.long	.LASF99
 3320 0015 0000 0000 		.long	.LASF100
 3321 0019 0000 0000 		.long	.Ltext0
 3322 001d 0000 0000 		.long	.Letext0
 3323 0021 0000 0000 		.long	.Ldebug_line0
 3324 0025 02        		.uleb128 0x2
 3325 0026 01        		.byte	0x1
 3326 0027 06        		.byte	0x6
 3327 0028 0000 0000 		.long	.LASF0
 3328 002c 02        		.uleb128 0x2
 3329 002d 01        		.byte	0x1
 3330 002e 08        		.byte	0x8
 3331 002f 0000 0000 		.long	.LASF1
 3332 0033 03        		.uleb128 0x3
 3333 0034 02        		.byte	0x2
 3334 0035 05        		.byte	0x5
 3335 0036 696E 7400 		.string	"int"
 3336 003a 04        		.uleb128 0x4
 3337 003b 0000 0000 		.long	.LASF7
 3338 003f 03        		.byte	0x3
 3339 0040 7C        		.byte	0x7c
 3340 0041 4500 0000 		.long	0x45
 3341 0045 02        		.uleb128 0x2
 3342 0046 02        		.byte	0x2
 3343 0047 07        		.byte	0x7
 3344 0048 0000 0000 		.long	.LASF2
 3345 004c 02        		.uleb128 0x2
 3346 004d 04        		.byte	0x4
 3347 004e 05        		.byte	0x5
 3348 004f 0000 0000 		.long	.LASF3
 3349 0053 02        		.uleb128 0x2
 3350 0054 04        		.byte	0x4
 3351 0055 07        		.byte	0x7
 3352 0056 0000 0000 		.long	.LASF4
 3353 005a 02        		.uleb128 0x2
 3354 005b 08        		.byte	0x8
 3355 005c 05        		.byte	0x5
 3356 005d 0000 0000 		.long	.LASF5
 3357 0061 02        		.uleb128 0x2
 3358 0062 08        		.byte	0x8
 3359 0063 07        		.byte	0x7
 3360 0064 0000 0000 		.long	.LASF6
 3361 0068 05        		.uleb128 0x5
 3362 0069 01        		.byte	0x1
 3363 006a 06        		.byte	0x6
GAS LISTING C:\Users\ADMINI~1\AppData\Local\Temp/ccVnQtUk.s 			page 60


 3364 006b 05        		.uleb128 0x5
 3365 006c 01        		.byte	0x1
 3366 006d 08        		.byte	0x8
 3367 006e 06        		.uleb128 0x6
 3368 006f 7530 3800 		.string	"u08"
 3369 0073 02        		.byte	0x2
 3370 0074 20        		.byte	0x20
 3371 0075 2C00 0000 		.long	0x2c
 3372 0079 06        		.uleb128 0x6
 3373 007a 7531 3600 		.string	"u16"
 3374 007e 02        		.byte	0x2
 3375 007f 22        		.byte	0x22
 3376 0080 8400 0000 		.long	0x84
 3377 0084 02        		.uleb128 0x2
 3378 0085 02        		.byte	0x2
 3379 0086 07        		.byte	0x7
 3380 0087 0000 0000 		.long	.LASF8
 3381 008b 02        		.uleb128 0x2
 3382 008c 02        		.byte	0x2
 3383 008d 05        		.byte	0x5
 3384 008e 0000 0000 		.long	.LASF9
 3385 0092 06        		.uleb128 0x6
 3386 0093 7533 3200 		.string	"u32"
 3387 0097 02        		.byte	0x2
 3388 0098 24        		.byte	0x24
 3389 0099 5300 0000 		.long	0x53
 3390 009d 02        		.uleb128 0x2
 3391 009e 01        		.byte	0x1
 3392 009f 06        		.byte	0x6
 3393 00a0 0000 0000 		.long	.LASF10
 3394 00a4 04        		.uleb128 0x4
 3395 00a5 0000 0000 		.long	.LASF11
 3396 00a9 01        		.byte	0x1
 3397 00aa 2A        		.byte	0x2a
 3398 00ab AF00 0000 		.long	0xaf
 3399 00af 07        		.uleb128 0x7
 3400 00b0 02        		.byte	0x2
 3401 00b1 B500 0000 		.long	0xb5
 3402 00b5 08        		.uleb128 0x8
 3403 00b6 01        		.byte	0x1
 3404 00b7 09        		.uleb128 0x9
 3405 00b8 01        		.byte	0x1
 3406 00b9 0000 0000 		.long	.LASF12
 3407 00bd 01        		.byte	0x1
 3408 00be 8E        		.byte	0x8e
 3409 00bf 01        		.byte	0x1
 3410 00c0 01        		.byte	0x1
 3411 00c1 D100 0000 		.long	0xd1
 3412 00c5 0A        		.uleb128 0xa
 3413 00c6 0000 0000 		.long	.LASF14
 3414 00ca 01        		.byte	0x1
 3415 00cb 8D        		.byte	0x8d
 3416 00cc 6E00 0000 		.long	0x6e
 3417 00d0 00        		.byte	0x0
 3418 00d1 09        		.uleb128 0x9
 3419 00d2 01        		.byte	0x1
 3420 00d3 0000 0000 		.long	.LASF13
GAS LISTING C:\Users\ADMINI~1\AppData\Local\Temp/ccVnQtUk.s 			page 61


 3421 00d7 01        		.byte	0x1
 3422 00d8 9A        		.byte	0x9a
 3423 00d9 01        		.byte	0x1
 3424 00da 01        		.byte	0x1
 3425 00db EB00 0000 		.long	0xeb
 3426 00df 0A        		.uleb128 0xa
 3427 00e0 0000 0000 		.long	.LASF14
 3428 00e4 01        		.byte	0x1
 3429 00e5 99        		.byte	0x99
 3430 00e6 6E00 0000 		.long	0x6e
 3431 00ea 00        		.byte	0x0
 3432 00eb 0B        		.uleb128 0xb
 3433 00ec 01        		.byte	0x1
 3434 00ed 0000 0000 		.long	.LASF101
 3435 00f1 01        		.byte	0x1
 3436 00f2 AC        		.byte	0xac
 3437 00f3 01        		.byte	0x1
 3438 00f4 7900 0000 		.long	0x79
 3439 00f8 01        		.byte	0x1
 3440 00f9 1601 0000 		.long	0x116
 3441 00fd 0C        		.uleb128 0xc
 3442 00fe 0D        		.uleb128 0xd
 3443 00ff 0000 0000 		.long	.LASF15
 3444 0103 01        		.byte	0x1
 3445 0104 AE        		.byte	0xae
 3446 0105 3A00 0000 		.long	0x3a
 3447 0109 0D        		.uleb128 0xd
 3448 010a 0000 0000 		.long	.LASF16
 3449 010e 01        		.byte	0x1
 3450 010f AE        		.byte	0xae
 3451 0110 3A00 0000 		.long	0x3a
 3452 0114 00        		.byte	0x0
 3453 0115 00        		.byte	0x0
 3454 0116 09        		.uleb128 0x9
 3455 0117 01        		.byte	0x1
 3456 0118 0000 0000 		.long	.LASF17
 3457 011c 01        		.byte	0x1
 3458 011d 88        		.byte	0x88
 3459 011e 01        		.byte	0x1
 3460 011f 01        		.byte	0x1
 3461 0120 3001 0000 		.long	0x130
 3462 0124 0A        		.uleb128 0xa
 3463 0125 0000 0000 		.long	.LASF14
 3464 0129 01        		.byte	0x1
 3465 012a 87        		.byte	0x87
 3466 012b 6E00 0000 		.long	0x6e
 3467 012f 00        		.byte	0x0
 3468 0130 0E        		.uleb128 0xe
 3469 0131 01        		.byte	0x1
 3470 0132 0000 0000 		.long	.LASF19
 3471 0136 01        		.byte	0x1
 3472 0137 EF        		.byte	0xef
 3473 0138 01        		.byte	0x1
 3474 0139 01        		.byte	0x1
 3475 013a 09        		.uleb128 0x9
 3476 013b 01        		.byte	0x1
 3477 013c 0000 0000 		.long	.LASF18
GAS LISTING C:\Users\ADMINI~1\AppData\Local\Temp/ccVnQtUk.s 			page 62


 3478 0140 01        		.byte	0x1
 3479 0141 94        		.byte	0x94
 3480 0142 01        		.byte	0x1
 3481 0143 01        		.byte	0x1
 3482 0144 5401 0000 		.long	0x154
 3483 0148 0A        		.uleb128 0xa
 3484 0149 0000 0000 		.long	.LASF14
 3485 014d 01        		.byte	0x1
 3486 014e 93        		.byte	0x93
 3487 014f 6E00 0000 		.long	0x6e
 3488 0153 00        		.byte	0x0
 3489 0154 0E        		.uleb128 0xe
 3490 0155 01        		.byte	0x1
 3491 0156 0000 0000 		.long	.LASF20
 3492 015a 01        		.byte	0x1
 3493 015b FD        		.byte	0xfd
 3494 015c 01        		.byte	0x1
 3495 015d 01        		.byte	0x1
 3496 015e 09        		.uleb128 0x9
 3497 015f 01        		.byte	0x1
 3498 0160 0000 0000 		.long	.LASF21
 3499 0164 01        		.byte	0x1
 3500 0165 C3        		.byte	0xc3
 3501 0166 01        		.byte	0x1
 3502 0167 01        		.byte	0x1
 3503 0168 7801 0000 		.long	0x178
 3504 016c 0A        		.uleb128 0xa
 3505 016d 0000 0000 		.long	.LASF22
 3506 0171 01        		.byte	0x1
 3507 0172 C2        		.byte	0xc2
 3508 0173 6E00 0000 		.long	0x6e
 3509 0177 00        		.byte	0x0
 3510 0178 09        		.uleb128 0x9
 3511 0179 01        		.byte	0x1
 3512 017a 0000 0000 		.long	.LASF23
 3513 017e 01        		.byte	0x1
 3514 017f 67        		.byte	0x67
 3515 0180 01        		.byte	0x1
 3516 0181 01        		.byte	0x1
 3517 0182 8E01 0000 		.long	0x18e
 3518 0186 0C        		.uleb128 0xc
 3519 0187 0F        		.uleb128 0xf
 3520 0188 C500 0000 		.long	0xc5
 3521 018c 00        		.byte	0x0
 3522 018d 00        		.byte	0x0
 3523 018e 09        		.uleb128 0x9
 3524 018f 01        		.byte	0x1
 3525 0190 0000 0000 		.long	.LASF24
 3526 0194 01        		.byte	0x1
 3527 0195 7F        		.byte	0x7f
 3528 0196 01        		.byte	0x1
 3529 0197 01        		.byte	0x1
 3530 0198 A401 0000 		.long	0x1a4
 3531 019c 0C        		.uleb128 0xc
 3532 019d 0F        		.uleb128 0xf
 3533 019e DF00 0000 		.long	0xdf
 3534 01a2 00        		.byte	0x0
GAS LISTING C:\Users\ADMINI~1\AppData\Local\Temp/ccVnQtUk.s 			page 63


 3535 01a3 00        		.byte	0x0
 3536 01a4 10        		.uleb128 0x10
 3537 01a5 01        		.byte	0x1
 3538 01a6 0000 0000 		.long	.LASF25
 3539 01aa 01        		.byte	0x1
 3540 01ab A301      		.word	0x1a3
 3541 01ad 01        		.byte	0x1
 3542 01ae 01        		.byte	0x1
 3543 01af 10        		.uleb128 0x10
 3544 01b0 01        		.byte	0x1
 3545 01b1 0000 0000 		.long	.LASF26
 3546 01b5 01        		.byte	0x1
 3547 01b6 AB01      		.word	0x1ab
 3548 01b8 01        		.byte	0x1
 3549 01b9 01        		.byte	0x1
 3550 01ba 10        		.uleb128 0x10
 3551 01bb 01        		.byte	0x1
 3552 01bc 0000 0000 		.long	.LASF27
 3553 01c0 01        		.byte	0x1
 3554 01c1 B301      		.word	0x1b3
 3555 01c3 01        		.byte	0x1
 3556 01c4 01        		.byte	0x1
 3557 01c5 10        		.uleb128 0x10
 3558 01c6 01        		.byte	0x1
 3559 01c7 0000 0000 		.long	.LASF28
 3560 01cb 01        		.byte	0x1
 3561 01cc 3C02      		.word	0x23c
 3562 01ce 01        		.byte	0x1
 3563 01cf 01        		.byte	0x1
 3564 01d0 10        		.uleb128 0x10
 3565 01d1 01        		.byte	0x1
 3566 01d2 0000 0000 		.long	.LASF29
 3567 01d6 01        		.byte	0x1
 3568 01d7 4402      		.word	0x244
 3569 01d9 01        		.byte	0x1
 3570 01da 01        		.byte	0x1
 3571 01db 10        		.uleb128 0x10
 3572 01dc 01        		.byte	0x1
 3573 01dd 0000 0000 		.long	.LASF30
 3574 01e1 01        		.byte	0x1
 3575 01e2 4C02      		.word	0x24c
 3576 01e4 01        		.byte	0x1
 3577 01e5 01        		.byte	0x1
 3578 01e6 11        		.uleb128 0x11
 3579 01e7 01        		.byte	0x1
 3580 01e8 0000 0000 		.long	.LASF32
 3581 01ec 01        		.byte	0x1
 3582 01ed 31        		.byte	0x31
 3583 01ee 01        		.byte	0x1
 3584 01ef 0000 0000 		.long	.LFB2
 3585 01f3 0000 0000 		.long	.LFE2
 3586 01f7 02        		.byte	0x2
 3587 01f8 90        		.byte	0x90
 3588 01f9 20        		.uleb128 0x20
 3589 01fa 2502 0000 		.long	0x225
 3590 01fe 12        		.uleb128 0x12
 3591 01ff 0000 0000 		.long	.LASF41
GAS LISTING C:\Users\ADMINI~1\AppData\Local\Temp/ccVnQtUk.s 			page 64


 3592 0203 01        		.byte	0x1
 3593 0204 30        		.byte	0x30
 3594 0205 8400 0000 		.long	0x84
 3595 0209 06        		.byte	0x6
 3596 020a 68        		.byte	0x68
 3597 020b 93        		.byte	0x93
 3598 020c 01        		.uleb128 0x1
 3599 020d 69        		.byte	0x69
 3600 020e 93        		.byte	0x93
 3601 020f 01        		.uleb128 0x1
 3602 0210 0D        		.uleb128 0xd
 3603 0211 0000 0000 		.long	.LASF31
 3604 0215 01        		.byte	0x1
 3605 0216 32        		.byte	0x32
 3606 0217 8400 0000 		.long	0x84
 3607 021b 13        		.uleb128 0x13
 3608 021c 6900      		.string	"i"
 3609 021e 01        		.byte	0x1
 3610 021f 33        		.byte	0x33
 3611 0220 8400 0000 		.long	0x84
 3612 0224 00        		.byte	0x0
 3613 0225 11        		.uleb128 0x11
 3614 0226 01        		.byte	0x1
 3615 0227 0000 0000 		.long	.LASF33
 3616 022b 01        		.byte	0x1
 3617 022c 5D        		.byte	0x5d
 3618 022d 01        		.byte	0x1
 3619 022e 0000 0000 		.long	.LFB4
 3620 0232 0000 0000 		.long	.LFE4
 3621 0236 02        		.byte	0x2
 3622 0237 90        		.byte	0x90
 3623 0238 20        		.uleb128 0x20
 3624 0239 6602 0000 		.long	0x266
 3625 023d 14        		.uleb128 0x14
 3626 023e 1601 0000 		.long	0x116
 3627 0242 0000 0000 		.long	.LBB39
 3628 0246 0000 0000 		.long	.LBE39
 3629 024a 01        		.byte	0x1
 3630 024b 5F        		.byte	0x5f
 3631 024c 5602 0000 		.long	0x256
 3632 0250 0F        		.uleb128 0xf
 3633 0251 2401 0000 		.long	0x124
 3634 0255 00        		.byte	0x0
 3635 0256 15        		.uleb128 0x15
 3636 0257 3001 0000 		.long	0x130
 3637 025b 0000 0000 		.long	.LBB41
 3638 025f 0000 0000 		.long	.LBE41
 3639 0263 01        		.byte	0x1
 3640 0264 63        		.byte	0x63
 3641 0265 00        		.byte	0x0
 3642 0266 16        		.uleb128 0x16
 3643 0267 7801 0000 		.long	0x178
 3644 026b 0000 0000 		.long	.LFB5
 3645 026f 0000 0000 		.long	.LFE5
 3646 0273 02        		.byte	0x2
 3647 0274 90        		.byte	0x90
 3648 0275 20        		.uleb128 0x20
GAS LISTING C:\Users\ADMINI~1\AppData\Local\Temp/ccVnQtUk.s 			page 65


 3649 0276 9002 0000 		.long	0x290
 3650 027a 17        		.uleb128 0x17
 3651 027b B700 0000 		.long	0xb7
 3652 027f 0000 0000 		.long	.LBB43
 3653 0283 0000 0000 		.long	.LBE43
 3654 0287 01        		.byte	0x1
 3655 0288 69        		.byte	0x69
 3656 0289 0F        		.uleb128 0xf
 3657 028a C500 0000 		.long	0xc5
 3658 028e 00        		.byte	0x0
 3659 028f 00        		.byte	0x0
 3660 0290 11        		.uleb128 0x11
 3661 0291 01        		.byte	0x1
 3662 0292 0000 0000 		.long	.LASF34
 3663 0296 01        		.byte	0x1
 3664 0297 70        		.byte	0x70
 3665 0298 01        		.byte	0x1
 3666 0299 0000 0000 		.long	.LFB6
 3667 029d 0000 0000 		.long	.LFE6
 3668 02a1 02        		.byte	0x2
 3669 02a2 90        		.byte	0x90
 3670 02a3 20        		.uleb128 0x20
 3671 02a4 D102 0000 		.long	0x2d1
 3672 02a8 14        		.uleb128 0x14
 3673 02a9 3A01 0000 		.long	0x13a
 3674 02ad 0000 0000 		.long	.LBB45
 3675 02b1 0000 0000 		.long	.LBE45
 3676 02b5 01        		.byte	0x1
 3677 02b6 72        		.byte	0x72
 3678 02b7 C102 0000 		.long	0x2c1
 3679 02bb 0F        		.uleb128 0xf
 3680 02bc 4801 0000 		.long	0x148
 3681 02c0 00        		.byte	0x0
 3682 02c1 15        		.uleb128 0x15
 3683 02c2 5401 0000 		.long	0x154
 3684 02c6 0000 0000 		.long	.LBB47
 3685 02ca 0000 0000 		.long	.LBE47
 3686 02ce 01        		.byte	0x1
 3687 02cf 76        		.byte	0x76
 3688 02d0 00        		.byte	0x0
 3689 02d1 11        		.uleb128 0x11
 3690 02d2 01        		.byte	0x1
 3691 02d3 0000 0000 		.long	.LASF35
 3692 02d7 01        		.byte	0x1
 3693 02d8 4D        		.byte	0x4d
 3694 02d9 01        		.byte	0x1
 3695 02da 0000 0000 		.long	.LFB3
 3696 02de 0000 0000 		.long	.LFE3
 3697 02e2 02        		.byte	0x2
 3698 02e3 90        		.byte	0x90
 3699 02e4 20        		.uleb128 0x20
 3700 02e5 5C03 0000 		.long	0x35c
 3701 02e9 0D        		.uleb128 0xd
 3702 02ea 0000 0000 		.long	.LASF36
 3703 02ee 01        		.byte	0x1
 3704 02ef 4E        		.byte	0x4e
 3705 02f0 6E00 0000 		.long	0x6e
GAS LISTING C:\Users\ADMINI~1\AppData\Local\Temp/ccVnQtUk.s 			page 66


 3706 02f4 14        		.uleb128 0x14
 3707 02f5 5E01 0000 		.long	0x15e
 3708 02f9 0000 0000 		.long	.LBB49
 3709 02fd 0000 0000 		.long	.LBE49
 3710 0301 01        		.byte	0x1
 3711 0302 51        		.byte	0x51
 3712 0303 0D03 0000 		.long	0x30d
 3713 0307 0F        		.uleb128 0xf
 3714 0308 6C01 0000 		.long	0x16c
 3715 030c 00        		.byte	0x0
 3716 030d 14        		.uleb128 0x14
 3717 030e 7801 0000 		.long	0x178
 3718 0312 0000 0000 		.long	.LBB51
 3719 0316 0000 0000 		.long	.LBE51
 3720 031a 01        		.byte	0x1
 3721 031b 55        		.byte	0x55
 3722 031c 3603 0000 		.long	0x336
 3723 0320 17        		.uleb128 0x17
 3724 0321 B700 0000 		.long	0xb7
 3725 0325 0000 0000 		.long	.LBB53
 3726 0329 0000 0000 		.long	.LBE53
 3727 032d 01        		.byte	0x1
 3728 032e 69        		.byte	0x69
 3729 032f 0F        		.uleb128 0xf
 3730 0330 C500 0000 		.long	0xc5
 3731 0334 00        		.byte	0x0
 3732 0335 00        		.byte	0x0
 3733 0336 17        		.uleb128 0x17
 3734 0337 8E01 0000 		.long	0x18e
 3735 033b 0000 0000 		.long	.LBB55
 3736 033f 0000 0000 		.long	.LBE55
 3737 0343 01        		.byte	0x1
 3738 0344 57        		.byte	0x57
 3739 0345 17        		.uleb128 0x17
 3740 0346 D100 0000 		.long	0xd1
 3741 034a 0000 0000 		.long	.LBB57
 3742 034e 0000 0000 		.long	.LBE57
 3743 0352 01        		.byte	0x1
 3744 0353 81        		.byte	0x81
 3745 0354 0F        		.uleb128 0xf
 3746 0355 DF00 0000 		.long	0xdf
 3747 0359 00        		.byte	0x0
 3748 035a 00        		.byte	0x0
 3749 035b 00        		.byte	0x0
 3750 035c 18        		.uleb128 0x18
 3751 035d 01        		.byte	0x1
 3752 035e 0000 0000 		.long	.LASF52
 3753 0362 01        		.byte	0x1
 3754 0363 7A        		.byte	0x7a
 3755 0364 01        		.byte	0x1
 3756 0365 0000 0000 		.long	.LFB7
 3757 0369 0000 0000 		.long	.LFE7
 3758 036d 02        		.byte	0x2
 3759 036e 90        		.byte	0x90
 3760 036f 20        		.uleb128 0x20
 3761 0370 16        		.uleb128 0x16
 3762 0371 8E01 0000 		.long	0x18e
GAS LISTING C:\Users\ADMINI~1\AppData\Local\Temp/ccVnQtUk.s 			page 67


 3763 0375 0000 0000 		.long	.LFB8
 3764 0379 0000 0000 		.long	.LFE8
 3765 037d 02        		.byte	0x2
 3766 037e 90        		.byte	0x90
 3767 037f 20        		.uleb128 0x20
 3768 0380 9A03 0000 		.long	0x39a
 3769 0384 17        		.uleb128 0x17
 3770 0385 D100 0000 		.long	0xd1
 3771 0389 0000 0000 		.long	.LBB59
 3772 038d 0000 0000 		.long	.LBE59
 3773 0391 01        		.byte	0x1
 3774 0392 81        		.byte	0x81
 3775 0393 0F        		.uleb128 0xf
 3776 0394 DF00 0000 		.long	0xdf
 3777 0398 00        		.byte	0x0
 3778 0399 00        		.byte	0x0
 3779 039a 16        		.uleb128 0x16
 3780 039b 1601 0000 		.long	0x116
 3781 039f 0000 0000 		.long	.LFB9
 3782 03a3 0000 0000 		.long	.LFE9
 3783 03a7 02        		.byte	0x2
 3784 03a8 90        		.byte	0x90
 3785 03a9 20        		.uleb128 0x20
 3786 03aa B603 0000 		.long	0x3b6
 3787 03ae 19        		.uleb128 0x19
 3788 03af 2401 0000 		.long	0x124
 3789 03b3 01        		.byte	0x1
 3790 03b4 68        		.byte	0x68
 3791 03b5 00        		.byte	0x0
 3792 03b6 16        		.uleb128 0x16
 3793 03b7 B700 0000 		.long	0xb7
 3794 03bb 0000 0000 		.long	.LFB10
 3795 03bf 0000 0000 		.long	.LFE10
 3796 03c3 02        		.byte	0x2
 3797 03c4 90        		.byte	0x90
 3798 03c5 20        		.uleb128 0x20
 3799 03c6 D203 0000 		.long	0x3d2
 3800 03ca 19        		.uleb128 0x19
 3801 03cb C500 0000 		.long	0xc5
 3802 03cf 01        		.byte	0x1
 3803 03d0 68        		.byte	0x68
 3804 03d1 00        		.byte	0x0
 3805 03d2 16        		.uleb128 0x16
 3806 03d3 3A01 0000 		.long	0x13a
 3807 03d7 0000 0000 		.long	.LFB11
 3808 03db 0000 0000 		.long	.LFE11
 3809 03df 02        		.byte	0x2
 3810 03e0 90        		.byte	0x90
 3811 03e1 20        		.uleb128 0x20
 3812 03e2 EE03 0000 		.long	0x3ee
 3813 03e6 19        		.uleb128 0x19
 3814 03e7 4801 0000 		.long	0x148
 3815 03eb 01        		.byte	0x1
 3816 03ec 68        		.byte	0x68
 3817 03ed 00        		.byte	0x0
 3818 03ee 16        		.uleb128 0x16
 3819 03ef D100 0000 		.long	0xd1
GAS LISTING C:\Users\ADMINI~1\AppData\Local\Temp/ccVnQtUk.s 			page 68


 3820 03f3 0000 0000 		.long	.LFB12
 3821 03f7 0000 0000 		.long	.LFE12
 3822 03fb 02        		.byte	0x2
 3823 03fc 90        		.byte	0x90
 3824 03fd 20        		.uleb128 0x20
 3825 03fe 0A04 0000 		.long	0x40a
 3826 0402 19        		.uleb128 0x19
 3827 0403 DF00 0000 		.long	0xdf
 3828 0407 01        		.byte	0x1
 3829 0408 68        		.byte	0x68
 3830 0409 00        		.byte	0x0
 3831 040a 1A        		.uleb128 0x1a
 3832 040b 01        		.byte	0x1
 3833 040c 0000 0000 		.long	.LASF37
 3834 0410 01        		.byte	0x1
 3835 0411 A0        		.byte	0xa0
 3836 0412 01        		.byte	0x1
 3837 0413 7900 0000 		.long	0x79
 3838 0417 0000 0000 		.long	.LFB13
 3839 041b 0000 0000 		.long	.LFE13
 3840 041f 02        		.byte	0x2
 3841 0420 90        		.byte	0x90
 3842 0421 20        		.uleb128 0x20
 3843 0422 5204 0000 		.long	0x452
 3844 0426 1B        		.uleb128 0x1b
 3845 0427 0000 0000 		.long	.LBB61
 3846 042b 0000 0000 		.long	.LBE61
 3847 042f 1C        		.uleb128 0x1c
 3848 0430 0000 0000 		.long	.LASF15
 3849 0434 01        		.byte	0x1
 3850 0435 A2        		.byte	0xa2
 3851 0436 3A00 0000 		.long	0x3a
 3852 043a 06        		.byte	0x6
 3853 043b 6E        		.byte	0x6e
 3854 043c 93        		.byte	0x93
 3855 043d 01        		.uleb128 0x1
 3856 043e 6F        		.byte	0x6f
 3857 043f 93        		.byte	0x93
 3858 0440 01        		.uleb128 0x1
 3859 0441 1D        		.uleb128 0x1d
 3860 0442 0000 0000 		.long	.LASF16
 3861 0446 01        		.byte	0x1
 3862 0447 A2        		.byte	0xa2
 3863 0448 3A00 0000 		.long	0x3a
 3864 044c 0000 0000 		.long	.LLST12
 3865 0450 00        		.byte	0x0
 3866 0451 00        		.byte	0x0
 3867 0452 1A        		.uleb128 0x1a
 3868 0453 01        		.byte	0x1
 3869 0454 0000 0000 		.long	.LASF38
 3870 0458 01        		.byte	0x1
 3871 0459 A6        		.byte	0xa6
 3872 045a 01        		.byte	0x1
 3873 045b 7900 0000 		.long	0x79
 3874 045f 0000 0000 		.long	.LFB14
 3875 0463 0000 0000 		.long	.LFE14
 3876 0467 02        		.byte	0x2
GAS LISTING C:\Users\ADMINI~1\AppData\Local\Temp/ccVnQtUk.s 			page 69


 3877 0468 90        		.byte	0x90
 3878 0469 20        		.uleb128 0x20
 3879 046a 9A04 0000 		.long	0x49a
 3880 046e 1B        		.uleb128 0x1b
 3881 046f 0000 0000 		.long	.LBB62
 3882 0473 0000 0000 		.long	.LBE62
 3883 0477 1C        		.uleb128 0x1c
 3884 0478 0000 0000 		.long	.LASF15
 3885 047c 01        		.byte	0x1
 3886 047d A8        		.byte	0xa8
 3887 047e 3A00 0000 		.long	0x3a
 3888 0482 06        		.byte	0x6
 3889 0483 6E        		.byte	0x6e
 3890 0484 93        		.byte	0x93
 3891 0485 01        		.uleb128 0x1
 3892 0486 6F        		.byte	0x6f
 3893 0487 93        		.byte	0x93
 3894 0488 01        		.uleb128 0x1
 3895 0489 1D        		.uleb128 0x1d
 3896 048a 0000 0000 		.long	.LASF16
 3897 048e 01        		.byte	0x1
 3898 048f A8        		.byte	0xa8
 3899 0490 3A00 0000 		.long	0x3a
 3900 0494 0000 0000 		.long	.LLST14
 3901 0498 00        		.byte	0x0
 3902 0499 00        		.byte	0x0
 3903 049a 16        		.uleb128 0x16
 3904 049b EB00 0000 		.long	0xeb
 3905 049f 0000 0000 		.long	.LFB15
 3906 04a3 0000 0000 		.long	.LFE15
 3907 04a7 02        		.byte	0x2
 3908 04a8 90        		.byte	0x90
 3909 04a9 20        		.uleb128 0x20
 3910 04aa CE04 0000 		.long	0x4ce
 3911 04ae 1B        		.uleb128 0x1b
 3912 04af 0000 0000 		.long	.LBB63
 3913 04b3 0000 0000 		.long	.LBE63
 3914 04b7 1E        		.uleb128 0x1e
 3915 04b8 FE00 0000 		.long	0xfe
 3916 04bc 06        		.byte	0x6
 3917 04bd 6E        		.byte	0x6e
 3918 04be 93        		.byte	0x93
 3919 04bf 01        		.uleb128 0x1
 3920 04c0 6F        		.byte	0x6f
 3921 04c1 93        		.byte	0x93
 3922 04c2 01        		.uleb128 0x1
 3923 04c3 1F        		.uleb128 0x1f
 3924 04c4 0901 0000 		.long	0x109
 3925 04c8 0000 0000 		.long	.LLST16
 3926 04cc 00        		.byte	0x0
 3927 04cd 00        		.byte	0x0
 3928 04ce 1A        		.uleb128 0x1a
 3929 04cf 01        		.byte	0x1
 3930 04d0 0000 0000 		.long	.LASF39
 3931 04d4 01        		.byte	0x1
 3932 04d5 B2        		.byte	0xb2
 3933 04d6 01        		.byte	0x1
GAS LISTING C:\Users\ADMINI~1\AppData\Local\Temp/ccVnQtUk.s 			page 70


 3934 04d7 7900 0000 		.long	0x79
 3935 04db 0000 0000 		.long	.LFB16
 3936 04df 0000 0000 		.long	.LFE16
 3937 04e3 02        		.byte	0x2
 3938 04e4 90        		.byte	0x90
 3939 04e5 20        		.uleb128 0x20
 3940 04e6 1605 0000 		.long	0x516
 3941 04ea 1B        		.uleb128 0x1b
 3942 04eb 0000 0000 		.long	.LBB64
 3943 04ef 0000 0000 		.long	.LBE64
 3944 04f3 1C        		.uleb128 0x1c
 3945 04f4 0000 0000 		.long	.LASF15
 3946 04f8 01        		.byte	0x1
 3947 04f9 B4        		.byte	0xb4
 3948 04fa 3A00 0000 		.long	0x3a
 3949 04fe 06        		.byte	0x6
 3950 04ff 6E        		.byte	0x6e
 3951 0500 93        		.byte	0x93
 3952 0501 01        		.uleb128 0x1
 3953 0502 6F        		.byte	0x6f
 3954 0503 93        		.byte	0x93
 3955 0504 01        		.uleb128 0x1
 3956 0505 1D        		.uleb128 0x1d
 3957 0506 0000 0000 		.long	.LASF16
 3958 050a 01        		.byte	0x1
 3959 050b B4        		.byte	0xb4
 3960 050c 3A00 0000 		.long	0x3a
 3961 0510 0000 0000 		.long	.LLST18
 3962 0514 00        		.byte	0x0
 3963 0515 00        		.byte	0x0
 3964 0516 11        		.uleb128 0x11
 3965 0517 01        		.byte	0x1
 3966 0518 0000 0000 		.long	.LASF40
 3967 051c 01        		.byte	0x1
 3968 051d B8        		.byte	0xb8
 3969 051e 01        		.byte	0x1
 3970 051f 0000 0000 		.long	.LFB17
 3971 0523 0000 0000 		.long	.LFE17
 3972 0527 02        		.byte	0x2
 3973 0528 90        		.byte	0x90
 3974 0529 20        		.uleb128 0x20
 3975 052a 4E05 0000 		.long	0x54e
 3976 052e 12        		.uleb128 0x12
 3977 052f 0000 0000 		.long	.LASF22
 3978 0533 01        		.byte	0x1
 3979 0534 B7        		.byte	0xb7
 3980 0535 6E00 0000 		.long	0x6e
 3981 0539 01        		.byte	0x1
 3982 053a 68        		.byte	0x68
 3983 053b 12        		.uleb128 0x12
 3984 053c 0000 0000 		.long	.LASF42
 3985 0540 01        		.byte	0x1
 3986 0541 B7        		.byte	0xb7
 3987 0542 AF00 0000 		.long	0xaf
 3988 0546 06        		.byte	0x6
 3989 0547 66        		.byte	0x66
 3990 0548 93        		.byte	0x93
GAS LISTING C:\Users\ADMINI~1\AppData\Local\Temp/ccVnQtUk.s 			page 71


 3991 0549 01        		.uleb128 0x1
 3992 054a 67        		.byte	0x67
 3993 054b 93        		.byte	0x93
 3994 054c 01        		.uleb128 0x1
 3995 054d 00        		.byte	0x0
 3996 054e 16        		.uleb128 0x16
 3997 054f 5E01 0000 		.long	0x15e
 3998 0553 0000 0000 		.long	.LFB18
 3999 0557 0000 0000 		.long	.LFE18
 4000 055b 02        		.byte	0x2
 4001 055c 90        		.byte	0x90
 4002 055d 20        		.uleb128 0x20
 4003 055e 6A05 0000 		.long	0x56a
 4004 0562 19        		.uleb128 0x19
 4005 0563 6C01 0000 		.long	0x16c
 4006 0567 01        		.byte	0x1
 4007 0568 68        		.byte	0x68
 4008 0569 00        		.byte	0x0
 4009 056a 11        		.uleb128 0x11
 4010 056b 01        		.byte	0x1
 4011 056c 0000 0000 		.long	.LASF43
 4012 0570 01        		.byte	0x1
 4013 0571 CD        		.byte	0xcd
 4014 0572 01        		.byte	0x1
 4015 0573 0000 0000 		.long	.LFB19
 4016 0577 0000 0000 		.long	.LFE19
 4017 057b 02        		.byte	0x2
 4018 057c 90        		.byte	0x90
 4019 057d 20        		.uleb128 0x20
 4020 057e EB05 0000 		.long	0x5eb
 4021 0582 20        		.uleb128 0x20
 4022 0583 0000 0000 		.long	.LASF44
 4023 0587 01        		.byte	0x1
 4024 0588 CC        		.byte	0xcc
 4025 0589 8400 0000 		.long	0x84
 4026 058d 0000 0000 		.long	.LLST22
 4027 0591 1D        		.uleb128 0x1d
 4028 0592 0000 0000 		.long	.LASF45
 4029 0596 01        		.byte	0x1
 4030 0597 CF        		.byte	0xcf
 4031 0598 6E00 0000 		.long	0x6e
 4032 059c 0000 0000 		.long	.LLST23
 4033 05a0 1D        		.uleb128 0x1d
 4034 05a1 0000 0000 		.long	.LASF46
 4035 05a5 01        		.byte	0x1
 4036 05a6 D0        		.byte	0xd0
 4037 05a7 9200 0000 		.long	0x92
 4038 05ab 0000 0000 		.long	.LLST24
 4039 05af 1D        		.uleb128 0x1d
 4040 05b0 0000 0000 		.long	.LASF47
 4041 05b4 01        		.byte	0x1
 4042 05b5 D1        		.byte	0xd1
 4043 05b6 9200 0000 		.long	0x92
 4044 05ba 0000 0000 		.long	.LLST25
 4045 05be 17        		.uleb128 0x17
 4046 05bf EB00 0000 		.long	0xeb
 4047 05c3 0000 0000 		.long	.LBB65
GAS LISTING C:\Users\ADMINI~1\AppData\Local\Temp/ccVnQtUk.s 			page 72


 4048 05c7 0000 0000 		.long	.LBE65
 4049 05cb 01        		.byte	0x1
 4050 05cc D9        		.byte	0xd9
 4051 05cd 1B        		.uleb128 0x1b
 4052 05ce 0000 0000 		.long	.LBB67
 4053 05d2 0000 0000 		.long	.LBE67
 4054 05d6 1F        		.uleb128 0x1f
 4055 05d7 FE00 0000 		.long	0xfe
 4056 05db 0000 0000 		.long	.LLST26
 4057 05df 1F        		.uleb128 0x1f
 4058 05e0 0901 0000 		.long	0x109
 4059 05e4 0000 0000 		.long	.LLST27
 4060 05e8 00        		.byte	0x0
 4061 05e9 00        		.byte	0x0
 4062 05ea 00        		.byte	0x0
 4063 05eb 21        		.uleb128 0x21
 4064 05ec 3001 0000 		.long	0x130
 4065 05f0 0000 0000 		.long	.LFB20
 4066 05f4 0000 0000 		.long	.LFE20
 4067 05f8 02        		.byte	0x2
 4068 05f9 90        		.byte	0x90
 4069 05fa 20        		.uleb128 0x20
 4070 05fb 22        		.uleb128 0x22
 4071 05fc 01        		.byte	0x1
 4072 05fd 0000 0000 		.long	.LASF48
 4073 0601 01        		.byte	0x1
 4074 0602 F6        		.byte	0xf6
 4075 0603 01        		.byte	0x1
 4076 0604 4C00 0000 		.long	0x4c
 4077 0608 0000 0000 		.long	.LFB21
 4078 060c 0000 0000 		.long	.LFE21
 4079 0610 02        		.byte	0x2
 4080 0611 90        		.byte	0x90
 4081 0612 20        		.uleb128 0x20
 4082 0613 21        		.uleb128 0x21
 4083 0614 5401 0000 		.long	0x154
 4084 0618 0000 0000 		.long	.LFB22
 4085 061c 0000 0000 		.long	.LFE22
 4086 0620 02        		.byte	0x2
 4087 0621 90        		.byte	0x90
 4088 0622 20        		.uleb128 0x20
 4089 0623 23        		.uleb128 0x23
 4090 0624 01        		.byte	0x1
 4091 0625 0000 0000 		.long	.LASF49
 4092 0629 01        		.byte	0x1
 4093 062a 0401      		.word	0x104
 4094 062c 01        		.byte	0x1
 4095 062d 4C00 0000 		.long	0x4c
 4096 0631 0000 0000 		.long	.LFB23
 4097 0635 0000 0000 		.long	.LFE23
 4098 0639 02        		.byte	0x2
 4099 063a 90        		.byte	0x90
 4100 063b 20        		.uleb128 0x20
 4101 063c 24        		.uleb128 0x24
 4102 063d 01        		.byte	0x1
 4103 063e 0000 0000 		.long	.LASF50
 4104 0642 01        		.byte	0x1
GAS LISTING C:\Users\ADMINI~1\AppData\Local\Temp/ccVnQtUk.s 			page 73


 4105 0643 0C01      		.word	0x10c
 4106 0645 01        		.byte	0x1
 4107 0646 0000 0000 		.long	.LFB24
 4108 064a 0000 0000 		.long	.LFE24
 4109 064e 02        		.byte	0x2
 4110 064f 90        		.byte	0x90
 4111 0650 20        		.uleb128 0x20
 4112 0651 6606 0000 		.long	0x666
 4113 0655 25        		.uleb128 0x25
 4114 0656 0000 0000 		.long	.LASF51
 4115 065a 01        		.byte	0x1
 4116 065b 0B01      		.word	0x10b
 4117 065d 6E00 0000 		.long	0x6e
 4118 0661 0000 0000 		.long	.LLST33
 4119 0665 00        		.byte	0x0
 4120 0666 26        		.uleb128 0x26
 4121 0667 01        		.byte	0x1
 4122 0668 0000 0000 		.long	.LASF53
 4123 066c 01        		.byte	0x1
 4124 066d 2901      		.word	0x129
 4125 066f 01        		.byte	0x1
 4126 0670 0000 0000 		.long	.LFB25
 4127 0674 0000 0000 		.long	.LFE25
 4128 0678 02        		.byte	0x2
 4129 0679 90        		.byte	0x90
 4130 067a 20        		.uleb128 0x20
 4131 067b 26        		.uleb128 0x26
 4132 067c 01        		.byte	0x1
 4133 067d 0000 0000 		.long	.LASF54
 4134 0681 01        		.byte	0x1
 4135 0682 3101      		.word	0x131
 4136 0684 01        		.byte	0x1
 4137 0685 0000 0000 		.long	.LFB26
 4138 0689 0000 0000 		.long	.LFE26
 4139 068d 02        		.byte	0x2
 4140 068e 90        		.byte	0x90
 4141 068f 20        		.uleb128 0x20
 4142 0690 24        		.uleb128 0x24
 4143 0691 01        		.byte	0x1
 4144 0692 0000 0000 		.long	.LASF55
 4145 0696 01        		.byte	0x1
 4146 0697 3901      		.word	0x139
 4147 0699 01        		.byte	0x1
 4148 069a 0000 0000 		.long	.LFB27
 4149 069e 0000 0000 		.long	.LFE27
 4150 06a2 02        		.byte	0x2
 4151 06a3 90        		.byte	0x90
 4152 06a4 20        		.uleb128 0x20
 4153 06a5 BD06 0000 		.long	0x6bd
 4154 06a9 27        		.uleb128 0x27
 4155 06aa 0000 0000 		.long	.LASF56
 4156 06ae 01        		.byte	0x1
 4157 06af 3801      		.word	0x138
 4158 06b1 7900 0000 		.long	0x79
 4159 06b5 06        		.byte	0x6
 4160 06b6 68        		.byte	0x68
 4161 06b7 93        		.byte	0x93
GAS LISTING C:\Users\ADMINI~1\AppData\Local\Temp/ccVnQtUk.s 			page 74


 4162 06b8 01        		.uleb128 0x1
 4163 06b9 69        		.byte	0x69
 4164 06ba 93        		.byte	0x93
 4165 06bb 01        		.uleb128 0x1
 4166 06bc 00        		.byte	0x0
 4167 06bd 24        		.uleb128 0x24
 4168 06be 01        		.byte	0x1
 4169 06bf 0000 0000 		.long	.LASF57
 4170 06c3 01        		.byte	0x1
 4171 06c4 4401      		.word	0x144
 4172 06c6 01        		.byte	0x1
 4173 06c7 0000 0000 		.long	.LFB28
 4174 06cb 0000 0000 		.long	.LFE28
 4175 06cf 02        		.byte	0x2
 4176 06d0 90        		.byte	0x90
 4177 06d1 20        		.uleb128 0x20
 4178 06d2 E706 0000 		.long	0x6e7
 4179 06d6 25        		.uleb128 0x25
 4180 06d7 0000 0000 		.long	.LASF51
 4181 06db 01        		.byte	0x1
 4182 06dc 4301      		.word	0x143
 4183 06de 6E00 0000 		.long	0x6e
 4184 06e2 0000 0000 		.long	.LLST38
 4185 06e6 00        		.byte	0x0
 4186 06e7 24        		.uleb128 0x24
 4187 06e8 01        		.byte	0x1
 4188 06e9 0000 0000 		.long	.LASF58
 4189 06ed 01        		.byte	0x1
 4190 06ee 6701      		.word	0x167
 4191 06f0 01        		.byte	0x1
 4192 06f1 0000 0000 		.long	.LFB29
 4193 06f5 0000 0000 		.long	.LFE29
 4194 06f9 02        		.byte	0x2
 4195 06fa 90        		.byte	0x90
 4196 06fb 20        		.uleb128 0x20
 4197 06fc 1407 0000 		.long	0x714
 4198 0700 27        		.uleb128 0x27
 4199 0701 0000 0000 		.long	.LASF59
 4200 0705 01        		.byte	0x1
 4201 0706 6601      		.word	0x166
 4202 0708 7900 0000 		.long	0x79
 4203 070c 06        		.byte	0x6
 4204 070d 68        		.byte	0x68
 4205 070e 93        		.byte	0x93
 4206 070f 01        		.uleb128 0x1
 4207 0710 69        		.byte	0x69
 4208 0711 93        		.byte	0x93
 4209 0712 01        		.uleb128 0x1
 4210 0713 00        		.byte	0x0
 4211 0714 24        		.uleb128 0x24
 4212 0715 01        		.byte	0x1
 4213 0716 0000 0000 		.long	.LASF60
 4214 071a 01        		.byte	0x1
 4215 071b 7E01      		.word	0x17e
 4216 071d 01        		.byte	0x1
 4217 071e 0000 0000 		.long	.LFB30
 4218 0722 0000 0000 		.long	.LFE30
GAS LISTING C:\Users\ADMINI~1\AppData\Local\Temp/ccVnQtUk.s 			page 75


 4219 0726 02        		.byte	0x2
 4220 0727 90        		.byte	0x90
 4221 0728 20        		.uleb128 0x20
 4222 0729 5E07 0000 		.long	0x75e
 4223 072d 28        		.uleb128 0x28
 4224 072e A401 0000 		.long	0x1a4
 4225 0732 0000 0000 		.long	.LBB68
 4226 0736 0000 0000 		.long	.LBE68
 4227 073a 01        		.byte	0x1
 4228 073b 8501      		.word	0x185
 4229 073d 28        		.uleb128 0x28
 4230 073e AF01 0000 		.long	0x1af
 4231 0742 0000 0000 		.long	.LBB70
 4232 0746 0000 0000 		.long	.LBE70
 4233 074a 01        		.byte	0x1
 4234 074b 8601      		.word	0x186
 4235 074d 28        		.uleb128 0x28
 4236 074e BA01 0000 		.long	0x1ba
 4237 0752 0000 0000 		.long	.LBB72
 4238 0756 0000 0000 		.long	.LBE72
 4239 075a 01        		.byte	0x1
 4240 075b 8701      		.word	0x187
 4241 075d 00        		.byte	0x0
 4242 075e 26        		.uleb128 0x26
 4243 075f 01        		.byte	0x1
 4244 0760 0000 0000 		.long	.LASF61
 4245 0764 01        		.byte	0x1
 4246 0765 8B01      		.word	0x18b
 4247 0767 01        		.byte	0x1
 4248 0768 0000 0000 		.long	.LFB31
 4249 076c 0000 0000 		.long	.LFE31
 4250 0770 02        		.byte	0x2
 4251 0771 90        		.byte	0x90
 4252 0772 20        		.uleb128 0x20
 4253 0773 26        		.uleb128 0x26
 4254 0774 01        		.byte	0x1
 4255 0775 0000 0000 		.long	.LASF62
 4256 0779 01        		.byte	0x1
 4257 077a 9301      		.word	0x193
 4258 077c 01        		.byte	0x1
 4259 077d 0000 0000 		.long	.LFB32
 4260 0781 0000 0000 		.long	.LFE32
 4261 0785 02        		.byte	0x2
 4262 0786 90        		.byte	0x90
 4263 0787 20        		.uleb128 0x20
 4264 0788 26        		.uleb128 0x26
 4265 0789 01        		.byte	0x1
 4266 078a 0000 0000 		.long	.LASF63
 4267 078e 01        		.byte	0x1
 4268 078f 9B01      		.word	0x19b
 4269 0791 01        		.byte	0x1
 4270 0792 0000 0000 		.long	.LFB33
 4271 0796 0000 0000 		.long	.LFE33
 4272 079a 02        		.byte	0x2
 4273 079b 90        		.byte	0x90
 4274 079c 20        		.uleb128 0x20
 4275 079d 21        		.uleb128 0x21
GAS LISTING C:\Users\ADMINI~1\AppData\Local\Temp/ccVnQtUk.s 			page 76


 4276 079e A401 0000 		.long	0x1a4
 4277 07a2 0000 0000 		.long	.LFB34
 4278 07a6 0000 0000 		.long	.LFE34
 4279 07aa 02        		.byte	0x2
 4280 07ab 90        		.byte	0x90
 4281 07ac 20        		.uleb128 0x20
 4282 07ad 21        		.uleb128 0x21
 4283 07ae AF01 0000 		.long	0x1af
 4284 07b2 0000 0000 		.long	.LFB35
 4285 07b6 0000 0000 		.long	.LFE35
 4286 07ba 02        		.byte	0x2
 4287 07bb 90        		.byte	0x90
 4288 07bc 20        		.uleb128 0x20
 4289 07bd 21        		.uleb128 0x21
 4290 07be BA01 0000 		.long	0x1ba
 4291 07c2 0000 0000 		.long	.LFB36
 4292 07c6 0000 0000 		.long	.LFE36
 4293 07ca 02        		.byte	0x2
 4294 07cb 90        		.byte	0x90
 4295 07cc 20        		.uleb128 0x20
 4296 07cd 24        		.uleb128 0x24
 4297 07ce 01        		.byte	0x1
 4298 07cf 0000 0000 		.long	.LASF64
 4299 07d3 01        		.byte	0x1
 4300 07d4 BB01      		.word	0x1bb
 4301 07d6 01        		.byte	0x1
 4302 07d7 0000 0000 		.long	.LFB37
 4303 07db 0000 0000 		.long	.LFE37
 4304 07df 02        		.byte	0x2
 4305 07e0 90        		.byte	0x90
 4306 07e1 20        		.uleb128 0x20
 4307 07e2 FA07 0000 		.long	0x7fa
 4308 07e6 27        		.uleb128 0x27
 4309 07e7 0000 0000 		.long	.LASF56
 4310 07eb 01        		.byte	0x1
 4311 07ec BA01      		.word	0x1ba
 4312 07ee 7900 0000 		.long	0x79
 4313 07f2 06        		.byte	0x6
 4314 07f3 68        		.byte	0x68
 4315 07f4 93        		.byte	0x93
 4316 07f5 01        		.uleb128 0x1
 4317 07f6 69        		.byte	0x69
 4318 07f7 93        		.byte	0x93
 4319 07f8 01        		.uleb128 0x1
 4320 07f9 00        		.byte	0x0
 4321 07fa 24        		.uleb128 0x24
 4322 07fb 01        		.byte	0x1
 4323 07fc 0000 0000 		.long	.LASF65
 4324 0800 01        		.byte	0x1
 4325 0801 C601      		.word	0x1c6
 4326 0803 01        		.byte	0x1
 4327 0804 0000 0000 		.long	.LFB38
 4328 0808 0000 0000 		.long	.LFE38
 4329 080c 02        		.byte	0x2
 4330 080d 90        		.byte	0x90
 4331 080e 20        		.uleb128 0x20
 4332 080f 2708 0000 		.long	0x827
GAS LISTING C:\Users\ADMINI~1\AppData\Local\Temp/ccVnQtUk.s 			page 77


 4333 0813 27        		.uleb128 0x27
 4334 0814 0000 0000 		.long	.LASF56
 4335 0818 01        		.byte	0x1
 4336 0819 C501      		.word	0x1c5
 4337 081b 7900 0000 		.long	0x79
 4338 081f 06        		.byte	0x6
 4339 0820 68        		.byte	0x68
 4340 0821 93        		.byte	0x93
 4341 0822 01        		.uleb128 0x1
 4342 0823 69        		.byte	0x69
 4343 0824 93        		.byte	0x93
 4344 0825 01        		.uleb128 0x1
 4345 0826 00        		.byte	0x0
 4346 0827 24        		.uleb128 0x24
 4347 0828 01        		.byte	0x1
 4348 0829 0000 0000 		.long	.LASF66
 4349 082d 01        		.byte	0x1
 4350 082e D101      		.word	0x1d1
 4351 0830 01        		.byte	0x1
 4352 0831 0000 0000 		.long	.LFB39
 4353 0835 0000 0000 		.long	.LFE39
 4354 0839 02        		.byte	0x2
 4355 083a 90        		.byte	0x90
 4356 083b 20        		.uleb128 0x20
 4357 083c 5408 0000 		.long	0x854
 4358 0840 27        		.uleb128 0x27
 4359 0841 0000 0000 		.long	.LASF56
 4360 0845 01        		.byte	0x1
 4361 0846 D001      		.word	0x1d0
 4362 0848 7900 0000 		.long	0x79
 4363 084c 06        		.byte	0x6
 4364 084d 68        		.byte	0x68
 4365 084e 93        		.byte	0x93
 4366 084f 01        		.uleb128 0x1
 4367 0850 69        		.byte	0x69
 4368 0851 93        		.byte	0x93
 4369 0852 01        		.uleb128 0x1
 4370 0853 00        		.byte	0x0
 4371 0854 24        		.uleb128 0x24
 4372 0855 01        		.byte	0x1
 4373 0856 0000 0000 		.long	.LASF67
 4374 085a 01        		.byte	0x1
 4375 085b DD01      		.word	0x1dd
 4376 085d 01        		.byte	0x1
 4377 085e 0000 0000 		.long	.LFB40
 4378 0862 0000 0000 		.long	.LFE40
 4379 0866 02        		.byte	0x2
 4380 0867 90        		.byte	0x90
 4381 0868 20        		.uleb128 0x20
 4382 0869 7E08 0000 		.long	0x87e
 4383 086d 25        		.uleb128 0x25
 4384 086e 0000 0000 		.long	.LASF51
 4385 0872 01        		.byte	0x1
 4386 0873 DC01      		.word	0x1dc
 4387 0875 6E00 0000 		.long	0x6e
 4388 0879 0000 0000 		.long	.LLST51
 4389 087d 00        		.byte	0x0
GAS LISTING C:\Users\ADMINI~1\AppData\Local\Temp/ccVnQtUk.s 			page 78


 4390 087e 24        		.uleb128 0x24
 4391 087f 01        		.byte	0x1
 4392 0880 0000 0000 		.long	.LASF68
 4393 0884 01        		.byte	0x1
 4394 0885 0002      		.word	0x200
 4395 0887 01        		.byte	0x1
 4396 0888 0000 0000 		.long	.LFB41
 4397 088c 0000 0000 		.long	.LFE41
 4398 0890 02        		.byte	0x2
 4399 0891 90        		.byte	0x90
 4400 0892 20        		.uleb128 0x20
 4401 0893 AB08 0000 		.long	0x8ab
 4402 0897 27        		.uleb128 0x27
 4403 0898 0000 0000 		.long	.LASF59
 4404 089c 01        		.byte	0x1
 4405 089d FF01      		.word	0x1ff
 4406 089f 7900 0000 		.long	0x79
 4407 08a3 06        		.byte	0x6
 4408 08a4 68        		.byte	0x68
 4409 08a5 93        		.byte	0x93
 4410 08a6 01        		.uleb128 0x1
 4411 08a7 69        		.byte	0x69
 4412 08a8 93        		.byte	0x93
 4413 08a9 01        		.uleb128 0x1
 4414 08aa 00        		.byte	0x0
 4415 08ab 24        		.uleb128 0x24
 4416 08ac 01        		.byte	0x1
 4417 08ad 0000 0000 		.long	.LASF69
 4418 08b1 01        		.byte	0x1
 4419 08b2 1702      		.word	0x217
 4420 08b4 01        		.byte	0x1
 4421 08b5 0000 0000 		.long	.LFB42
 4422 08b9 0000 0000 		.long	.LFE42
 4423 08bd 02        		.byte	0x2
 4424 08be 90        		.byte	0x90
 4425 08bf 20        		.uleb128 0x20
 4426 08c0 F508 0000 		.long	0x8f5
 4427 08c4 28        		.uleb128 0x28
 4428 08c5 C501 0000 		.long	0x1c5
 4429 08c9 0000 0000 		.long	.LBB74
 4430 08cd 0000 0000 		.long	.LBE74
 4431 08d1 01        		.byte	0x1
 4432 08d2 1E02      		.word	0x21e
 4433 08d4 28        		.uleb128 0x28
 4434 08d5 D001 0000 		.long	0x1d0
 4435 08d9 0000 0000 		.long	.LBB76
 4436 08dd 0000 0000 		.long	.LBE76
 4437 08e1 01        		.byte	0x1
 4438 08e2 1F02      		.word	0x21f
 4439 08e4 28        		.uleb128 0x28
 4440 08e5 DB01 0000 		.long	0x1db
 4441 08e9 0000 0000 		.long	.LBB78
 4442 08ed 0000 0000 		.long	.LBE78
 4443 08f1 01        		.byte	0x1
 4444 08f2 2002      		.word	0x220
 4445 08f4 00        		.byte	0x0
 4446 08f5 26        		.uleb128 0x26
GAS LISTING C:\Users\ADMINI~1\AppData\Local\Temp/ccVnQtUk.s 			page 79


 4447 08f6 01        		.byte	0x1
 4448 08f7 0000 0000 		.long	.LASF70
 4449 08fb 01        		.byte	0x1
 4450 08fc 2402      		.word	0x224
 4451 08fe 01        		.byte	0x1
 4452 08ff 0000 0000 		.long	.LFB43
 4453 0903 0000 0000 		.long	.LFE43
 4454 0907 02        		.byte	0x2
 4455 0908 90        		.byte	0x90
 4456 0909 20        		.uleb128 0x20
 4457 090a 26        		.uleb128 0x26
 4458 090b 01        		.byte	0x1
 4459 090c 0000 0000 		.long	.LASF71
 4460 0910 01        		.byte	0x1
 4461 0911 2C02      		.word	0x22c
 4462 0913 01        		.byte	0x1
 4463 0914 0000 0000 		.long	.LFB44
 4464 0918 0000 0000 		.long	.LFE44
 4465 091c 02        		.byte	0x2
 4466 091d 90        		.byte	0x90
 4467 091e 20        		.uleb128 0x20
 4468 091f 26        		.uleb128 0x26
 4469 0920 01        		.byte	0x1
 4470 0921 0000 0000 		.long	.LASF72
 4471 0925 01        		.byte	0x1
 4472 0926 3402      		.word	0x234
 4473 0928 01        		.byte	0x1
 4474 0929 0000 0000 		.long	.LFB45
 4475 092d 0000 0000 		.long	.LFE45
 4476 0931 02        		.byte	0x2
 4477 0932 90        		.byte	0x90
 4478 0933 20        		.uleb128 0x20
 4479 0934 21        		.uleb128 0x21
 4480 0935 C501 0000 		.long	0x1c5
 4481 0939 0000 0000 		.long	.LFB46
 4482 093d 0000 0000 		.long	.LFE46
 4483 0941 02        		.byte	0x2
 4484 0942 90        		.byte	0x90
 4485 0943 20        		.uleb128 0x20
 4486 0944 21        		.uleb128 0x21
 4487 0945 D001 0000 		.long	0x1d0
 4488 0949 0000 0000 		.long	.LFB47
 4489 094d 0000 0000 		.long	.LFE47
 4490 0951 02        		.byte	0x2
 4491 0952 90        		.byte	0x90
 4492 0953 20        		.uleb128 0x20
 4493 0954 21        		.uleb128 0x21
 4494 0955 DB01 0000 		.long	0x1db
 4495 0959 0000 0000 		.long	.LFB48
 4496 095d 0000 0000 		.long	.LFE48
 4497 0961 02        		.byte	0x2
 4498 0962 90        		.byte	0x90
 4499 0963 20        		.uleb128 0x20
 4500 0964 24        		.uleb128 0x24
 4501 0965 01        		.byte	0x1
 4502 0966 0000 0000 		.long	.LASF73
 4503 096a 01        		.byte	0x1
GAS LISTING C:\Users\ADMINI~1\AppData\Local\Temp/ccVnQtUk.s 			page 80


 4504 096b 5402      		.word	0x254
 4505 096d 01        		.byte	0x1
 4506 096e 0000 0000 		.long	.LFB49
 4507 0972 0000 0000 		.long	.LFE49
 4508 0976 02        		.byte	0x2
 4509 0977 90        		.byte	0x90
 4510 0978 20        		.uleb128 0x20
 4511 0979 9109 0000 		.long	0x991
 4512 097d 27        		.uleb128 0x27
 4513 097e 0000 0000 		.long	.LASF56
 4514 0982 01        		.byte	0x1
 4515 0983 5302      		.word	0x253
 4516 0985 7900 0000 		.long	0x79
 4517 0989 06        		.byte	0x6
 4518 098a 68        		.byte	0x68
 4519 098b 93        		.byte	0x93
 4520 098c 01        		.uleb128 0x1
 4521 098d 69        		.byte	0x69
 4522 098e 93        		.byte	0x93
 4523 098f 01        		.uleb128 0x1
 4524 0990 00        		.byte	0x0
 4525 0991 24        		.uleb128 0x24
 4526 0992 01        		.byte	0x1
 4527 0993 0000 0000 		.long	.LASF74
 4528 0997 01        		.byte	0x1
 4529 0998 5F02      		.word	0x25f
 4530 099a 01        		.byte	0x1
 4531 099b 0000 0000 		.long	.LFB50
 4532 099f 0000 0000 		.long	.LFE50
 4533 09a3 02        		.byte	0x2
 4534 09a4 90        		.byte	0x90
 4535 09a5 20        		.uleb128 0x20
 4536 09a6 BE09 0000 		.long	0x9be
 4537 09aa 27        		.uleb128 0x27
 4538 09ab 0000 0000 		.long	.LASF56
 4539 09af 01        		.byte	0x1
 4540 09b0 5E02      		.word	0x25e
 4541 09b2 7900 0000 		.long	0x79
 4542 09b6 06        		.byte	0x6
 4543 09b7 68        		.byte	0x68
 4544 09b8 93        		.byte	0x93
 4545 09b9 01        		.uleb128 0x1
 4546 09ba 69        		.byte	0x69
 4547 09bb 93        		.byte	0x93
 4548 09bc 01        		.uleb128 0x1
 4549 09bd 00        		.byte	0x0
 4550 09be 24        		.uleb128 0x24
 4551 09bf 01        		.byte	0x1
 4552 09c0 0000 0000 		.long	.LASF75
 4553 09c4 01        		.byte	0x1
 4554 09c5 6A02      		.word	0x26a
 4555 09c7 01        		.byte	0x1
 4556 09c8 0000 0000 		.long	.LFB51
 4557 09cc 0000 0000 		.long	.LFE51
 4558 09d0 02        		.byte	0x2
 4559 09d1 90        		.byte	0x90
 4560 09d2 20        		.uleb128 0x20
GAS LISTING C:\Users\ADMINI~1\AppData\Local\Temp/ccVnQtUk.s 			page 81


 4561 09d3 EB09 0000 		.long	0x9eb
 4562 09d7 27        		.uleb128 0x27
 4563 09d8 0000 0000 		.long	.LASF56
 4564 09dc 01        		.byte	0x1
 4565 09dd 6902      		.word	0x269
 4566 09df 7900 0000 		.long	0x79
 4567 09e3 06        		.byte	0x6
 4568 09e4 68        		.byte	0x68
 4569 09e5 93        		.byte	0x93
 4570 09e6 01        		.uleb128 0x1
 4571 09e7 69        		.byte	0x69
 4572 09e8 93        		.byte	0x93
 4573 09e9 01        		.uleb128 0x1
 4574 09ea 00        		.byte	0x0
 4575 09eb 26        		.uleb128 0x26
 4576 09ec 01        		.byte	0x1
 4577 09ed 0000 0000 		.long	.LASF76
 4578 09f1 01        		.byte	0x1
 4579 09f2 7702      		.word	0x277
 4580 09f4 01        		.byte	0x1
 4581 09f5 0000 0000 		.long	.LFB52
 4582 09f9 0000 0000 		.long	.LFE52
 4583 09fd 02        		.byte	0x2
 4584 09fe 90        		.byte	0x90
 4585 09ff 20        		.uleb128 0x20
 4586 0a00 26        		.uleb128 0x26
 4587 0a01 01        		.byte	0x1
 4588 0a02 0000 0000 		.long	.LASF77
 4589 0a06 01        		.byte	0x1
 4590 0a07 8302      		.word	0x283
 4591 0a09 01        		.byte	0x1
 4592 0a0a 0000 0000 		.long	.LFB53
 4593 0a0e 0000 0000 		.long	.LFE53
 4594 0a12 02        		.byte	0x2
 4595 0a13 90        		.byte	0x90
 4596 0a14 20        		.uleb128 0x20
 4597 0a15 26        		.uleb128 0x26
 4598 0a16 01        		.byte	0x1
 4599 0a17 0000 0000 		.long	.LASF78
 4600 0a1b 01        		.byte	0x1
 4601 0a1c 8B02      		.word	0x28b
 4602 0a1e 01        		.byte	0x1
 4603 0a1f 0000 0000 		.long	.LFB54
 4604 0a23 0000 0000 		.long	.LFE54
 4605 0a27 02        		.byte	0x2
 4606 0a28 90        		.byte	0x90
 4607 0a29 20        		.uleb128 0x20
 4608 0a2a 26        		.uleb128 0x26
 4609 0a2b 01        		.byte	0x1
 4610 0a2c 0000 0000 		.long	.LASF79
 4611 0a30 01        		.byte	0x1
 4612 0a31 9A02      		.word	0x29a
 4613 0a33 01        		.byte	0x1
 4614 0a34 0000 0000 		.long	.LFB55
 4615 0a38 0000 0000 		.long	.LFE55
 4616 0a3c 02        		.byte	0x2
 4617 0a3d 90        		.byte	0x90
GAS LISTING C:\Users\ADMINI~1\AppData\Local\Temp/ccVnQtUk.s 			page 82


 4618 0a3e 20        		.uleb128 0x20
 4619 0a3f 26        		.uleb128 0x26
 4620 0a40 01        		.byte	0x1
 4621 0a41 0000 0000 		.long	.LASF80
 4622 0a45 01        		.byte	0x1
 4623 0a46 A202      		.word	0x2a2
 4624 0a48 01        		.byte	0x1
 4625 0a49 0000 0000 		.long	.LFB56
 4626 0a4d 0000 0000 		.long	.LFE56
 4627 0a51 02        		.byte	0x2
 4628 0a52 90        		.byte	0x90
 4629 0a53 20        		.uleb128 0x20
 4630 0a54 26        		.uleb128 0x26
 4631 0a55 01        		.byte	0x1
 4632 0a56 0000 0000 		.long	.LASF81
 4633 0a5a 01        		.byte	0x1
 4634 0a5b AA02      		.word	0x2aa
 4635 0a5d 01        		.byte	0x1
 4636 0a5e 0000 0000 		.long	.LFB57
 4637 0a62 0000 0000 		.long	.LFE57
 4638 0a66 02        		.byte	0x2
 4639 0a67 90        		.byte	0x90
 4640 0a68 20        		.uleb128 0x20
 4641 0a69 26        		.uleb128 0x26
 4642 0a6a 01        		.byte	0x1
 4643 0a6b 0000 0000 		.long	.LASF82
 4644 0a6f 01        		.byte	0x1
 4645 0a70 B202      		.word	0x2b2
 4646 0a72 01        		.byte	0x1
 4647 0a73 0000 0000 		.long	.LFB58
 4648 0a77 0000 0000 		.long	.LFE58
 4649 0a7b 02        		.byte	0x2
 4650 0a7c 90        		.byte	0x90
 4651 0a7d 20        		.uleb128 0x20
 4652 0a7e 26        		.uleb128 0x26
 4653 0a7f 01        		.byte	0x1
 4654 0a80 0000 0000 		.long	.LASF83
 4655 0a84 01        		.byte	0x1
 4656 0a85 BA02      		.word	0x2ba
 4657 0a87 01        		.byte	0x1
 4658 0a88 0000 0000 		.long	.LFB59
 4659 0a8c 0000 0000 		.long	.LFE59
 4660 0a90 02        		.byte	0x2
 4661 0a91 90        		.byte	0x90
 4662 0a92 20        		.uleb128 0x20
 4663 0a93 26        		.uleb128 0x26
 4664 0a94 01        		.byte	0x1
 4665 0a95 0000 0000 		.long	.LASF84
 4666 0a99 01        		.byte	0x1
 4667 0a9a C202      		.word	0x2c2
 4668 0a9c 01        		.byte	0x1
 4669 0a9d 0000 0000 		.long	.LFB60
 4670 0aa1 0000 0000 		.long	.LFE60
 4671 0aa5 02        		.byte	0x2
 4672 0aa6 90        		.byte	0x90
 4673 0aa7 20        		.uleb128 0x20
 4674 0aa8 26        		.uleb128 0x26
GAS LISTING C:\Users\ADMINI~1\AppData\Local\Temp/ccVnQtUk.s 			page 83


 4675 0aa9 01        		.byte	0x1
 4676 0aaa 0000 0000 		.long	.LASF85
 4677 0aae 01        		.byte	0x1
 4678 0aaf CA02      		.word	0x2ca
 4679 0ab1 01        		.byte	0x1
 4680 0ab2 0000 0000 		.long	.LFB61
 4681 0ab6 0000 0000 		.long	.LFE61
 4682 0aba 02        		.byte	0x2
 4683 0abb 90        		.byte	0x90
 4684 0abc 20        		.uleb128 0x20
 4685 0abd 26        		.uleb128 0x26
 4686 0abe 01        		.byte	0x1
 4687 0abf 0000 0000 		.long	.LASF86
 4688 0ac3 01        		.byte	0x1
 4689 0ac4 D202      		.word	0x2d2
 4690 0ac6 01        		.byte	0x1
 4691 0ac7 0000 0000 		.long	.LFB62
 4692 0acb 0000 0000 		.long	.LFE62
 4693 0acf 02        		.byte	0x2
 4694 0ad0 90        		.byte	0x90
 4695 0ad1 20        		.uleb128 0x20
 4696 0ad2 26        		.uleb128 0x26
 4697 0ad3 01        		.byte	0x1
 4698 0ad4 0000 0000 		.long	.LASF87
 4699 0ad8 01        		.byte	0x1
 4700 0ad9 DA02      		.word	0x2da
 4701 0adb 01        		.byte	0x1
 4702 0adc 0000 0000 		.long	.LFB63
 4703 0ae0 0000 0000 		.long	.LFE63
 4704 0ae4 02        		.byte	0x2
 4705 0ae5 90        		.byte	0x90
 4706 0ae6 20        		.uleb128 0x20
 4707 0ae7 26        		.uleb128 0x26
 4708 0ae8 01        		.byte	0x1
 4709 0ae9 0000 0000 		.long	.LASF88
 4710 0aed 01        		.byte	0x1
 4711 0aee E202      		.word	0x2e2
 4712 0af0 01        		.byte	0x1
 4713 0af1 0000 0000 		.long	.LFB64
 4714 0af5 0000 0000 		.long	.LFE64
 4715 0af9 02        		.byte	0x2
 4716 0afa 90        		.byte	0x90
 4717 0afb 20        		.uleb128 0x20
 4718 0afc 26        		.uleb128 0x26
 4719 0afd 01        		.byte	0x1
 4720 0afe 0000 0000 		.long	.LASF89
 4721 0b02 01        		.byte	0x1
 4722 0b03 EA02      		.word	0x2ea
 4723 0b05 01        		.byte	0x1
 4724 0b06 0000 0000 		.long	.LFB65
 4725 0b0a 0000 0000 		.long	.LFE65
 4726 0b0e 02        		.byte	0x2
 4727 0b0f 90        		.byte	0x90
 4728 0b10 20        		.uleb128 0x20
 4729 0b11 29        		.uleb128 0x29
 4730 0b12 A400 0000 		.long	0xa4
 4731 0b16 210B 0000 		.long	0xb21
GAS LISTING C:\Users\ADMINI~1\AppData\Local\Temp/ccVnQtUk.s 			page 84


 4732 0b1a 2A        		.uleb128 0x2a
 4733 0b1b 210B 0000 		.long	0xb21
 4734 0b1f 0D        		.byte	0xd
 4735 0b20 00        		.byte	0x0
 4736 0b21 05        		.uleb128 0x5
 4737 0b22 02        		.byte	0x2
 4738 0b23 07        		.byte	0x7
 4739 0b24 1C        		.uleb128 0x1c
 4740 0b25 0000 0000 		.long	.LASF90
 4741 0b29 01        		.byte	0x1
 4742 0b2a 2B        		.byte	0x2b
 4743 0b2b 350B 0000 		.long	0xb35
 4744 0b2f 05        		.byte	0x5
 4745 0b30 03        		.byte	0x3
 4746 0b31 0000 0000 		.long	TimerIntFunc
 4747 0b35 2B        		.uleb128 0x2b
 4748 0b36 110B 0000 		.long	0xb11
 4749 0b3a 29        		.uleb128 0x29
 4750 0b3b 8400 0000 		.long	0x84
 4751 0b3f 4A0B 0000 		.long	0xb4a
 4752 0b43 2A        		.uleb128 0x2a
 4753 0b44 210B 0000 		.long	0xb21
 4754 0b48 05        		.byte	0x5
 4755 0b49 00        		.byte	0x0
 4756 0b4a 2C        		.uleb128 0x2c
 4757 0b4b 0000 0000 		.long	.LASF91
 4758 0b4f 01        		.byte	0x1
 4759 0b50 1D        		.byte	0x1d
 4760 0b51 5C0B 0000 		.long	0xb5c
 4761 0b55 01        		.byte	0x1
 4762 0b56 05        		.byte	0x5
 4763 0b57 03        		.byte	0x3
 4764 0b58 0000 0000 		.long	TimerPrescaleFactor
 4765 0b5c 2D        		.uleb128 0x2d
 4766 0b5d 3A0B 0000 		.long	0xb3a
 4767 0b61 29        		.uleb128 0x29
 4768 0b62 8400 0000 		.long	0x84
 4769 0b66 710B 0000 		.long	0xb71
 4770 0b6a 2A        		.uleb128 0x2a
 4771 0b6b 210B 0000 		.long	0xb21
 4772 0b6f 07        		.byte	0x7
 4773 0b70 00        		.byte	0x0
 4774 0b71 2C        		.uleb128 0x2c
 4775 0b72 0000 0000 		.long	.LASF92
 4776 0b76 01        		.byte	0x1
 4777 0b77 20        		.byte	0x20
 4778 0b78 830B 0000 		.long	0xb83
 4779 0b7c 01        		.byte	0x1
 4780 0b7d 05        		.byte	0x5
 4781 0b7e 03        		.byte	0x3
 4782 0b7f 0000 0000 		.long	TimerRTCPrescaleFactor
 4783 0b83 2D        		.uleb128 0x2d
 4784 0b84 610B 0000 		.long	0xb61
 4785 0b88 2C        		.uleb128 0x2c
 4786 0b89 0000 0000 		.long	.LASF93
 4787 0b8d 01        		.byte	0x1
 4788 0b8e 24        		.byte	0x24
GAS LISTING C:\Users\ADMINI~1\AppData\Local\Temp/ccVnQtUk.s 			page 85


 4789 0b8f 9A0B 0000 		.long	0xb9a
 4790 0b93 01        		.byte	0x1
 4791 0b94 05        		.byte	0x5
 4792 0b95 03        		.byte	0x3
 4793 0b96 0000 0000 		.long	TimerPauseReg
 4794 0b9a 2B        		.uleb128 0x2b
 4795 0b9b 5300 0000 		.long	0x53
 4796 0b9f 2C        		.uleb128 0x2c
 4797 0ba0 0000 0000 		.long	.LASF94
 4798 0ba4 01        		.byte	0x1
 4799 0ba5 25        		.byte	0x25
 4800 0ba6 9A0B 0000 		.long	0xb9a
 4801 0baa 01        		.byte	0x1
 4802 0bab 05        		.byte	0x5
 4803 0bac 03        		.byte	0x3
 4804 0bad 0000 0000 		.long	Timer0Reg0
 4805 0bb1 2C        		.uleb128 0x2c
 4806 0bb2 0000 0000 		.long	.LASF95
 4807 0bb6 01        		.byte	0x1
 4808 0bb7 26        		.byte	0x26
 4809 0bb8 9A0B 0000 		.long	0xb9a
 4810 0bbc 01        		.byte	0x1
 4811 0bbd 05        		.byte	0x5
 4812 0bbe 03        		.byte	0x3
 4813 0bbf 0000 0000 		.long	Timer0Reg1
 4814 0bc3 2C        		.uleb128 0x2c
 4815 0bc4 0000 0000 		.long	.LASF96
 4816 0bc8 01        		.byte	0x1
 4817 0bc9 27        		.byte	0x27
 4818 0bca 9A0B 0000 		.long	0xb9a
 4819 0bce 01        		.byte	0x1
 4820 0bcf 05        		.byte	0x5
 4821 0bd0 03        		.byte	0x3
 4822 0bd1 0000 0000 		.long	Timer2Reg0
 4823 0bd5 2C        		.uleb128 0x2c
 4824 0bd6 0000 0000 		.long	.LASF97
 4825 0bda 01        		.byte	0x1
 4826 0bdb 28        		.byte	0x28
 4827 0bdc 9A0B 0000 		.long	0xb9a
 4828 0be0 01        		.byte	0x1
 4829 0be1 05        		.byte	0x5
 4830 0be2 03        		.byte	0x3
 4831 0be3 0000 0000 		.long	Timer2Reg1
 4832 0be7 00        		.byte	0x0
 4833               		.section	.debug_abbrev
 4834 0000 01        		.uleb128 0x1
 4835 0001 11        		.uleb128 0x11
 4836 0002 01        		.byte	0x1
 4837 0003 25        		.uleb128 0x25
 4838 0004 0E        		.uleb128 0xe
 4839 0005 13        		.uleb128 0x13
 4840 0006 0B        		.uleb128 0xb
 4841 0007 03        		.uleb128 0x3
 4842 0008 0E        		.uleb128 0xe
 4843 0009 1B        		.uleb128 0x1b
 4844 000a 0E        		.uleb128 0xe
 4845 000b 11        		.uleb128 0x11
GAS LISTING C:\Users\ADMINI~1\AppData\Local\Temp/ccVnQtUk.s 			page 86


 4846 000c 01        		.uleb128 0x1
 4847 000d 12        		.uleb128 0x12
 4848 000e 01        		.uleb128 0x1
 4849 000f 10        		.uleb128 0x10
 4850 0010 06        		.uleb128 0x6
 4851 0011 00        		.byte	0x0
 4852 0012 00        		.byte	0x0
 4853 0013 02        		.uleb128 0x2
 4854 0014 24        		.uleb128 0x24
 4855 0015 00        		.byte	0x0
 4856 0016 0B        		.uleb128 0xb
 4857 0017 0B        		.uleb128 0xb
 4858 0018 3E        		.uleb128 0x3e
 4859 0019 0B        		.uleb128 0xb
 4860 001a 03        		.uleb128 0x3
 4861 001b 0E        		.uleb128 0xe
 4862 001c 00        		.byte	0x0
 4863 001d 00        		.byte	0x0
 4864 001e 03        		.uleb128 0x3
 4865 001f 24        		.uleb128 0x24
 4866 0020 00        		.byte	0x0
 4867 0021 0B        		.uleb128 0xb
 4868 0022 0B        		.uleb128 0xb
 4869 0023 3E        		.uleb128 0x3e
 4870 0024 0B        		.uleb128 0xb
 4871 0025 03        		.uleb128 0x3
 4872 0026 08        		.uleb128 0x8
 4873 0027 00        		.byte	0x0
 4874 0028 00        		.byte	0x0
 4875 0029 04        		.uleb128 0x4
 4876 002a 16        		.uleb128 0x16
 4877 002b 00        		.byte	0x0
 4878 002c 03        		.uleb128 0x3
 4879 002d 0E        		.uleb128 0xe
 4880 002e 3A        		.uleb128 0x3a
 4881 002f 0B        		.uleb128 0xb
 4882 0030 3B        		.uleb128 0x3b
 4883 0031 0B        		.uleb128 0xb
 4884 0032 49        		.uleb128 0x49
 4885 0033 13        		.uleb128 0x13
 4886 0034 00        		.byte	0x0
 4887 0035 00        		.byte	0x0
 4888 0036 05        		.uleb128 0x5
 4889 0037 24        		.uleb128 0x24
 4890 0038 00        		.byte	0x0
 4891 0039 0B        		.uleb128 0xb
 4892 003a 0B        		.uleb128 0xb
 4893 003b 3E        		.uleb128 0x3e
 4894 003c 0B        		.uleb128 0xb
 4895 003d 00        		.byte	0x0
 4896 003e 00        		.byte	0x0
 4897 003f 06        		.uleb128 0x6
 4898 0040 16        		.uleb128 0x16
 4899 0041 00        		.byte	0x0
 4900 0042 03        		.uleb128 0x3
 4901 0043 08        		.uleb128 0x8
 4902 0044 3A        		.uleb128 0x3a
GAS LISTING C:\Users\ADMINI~1\AppData\Local\Temp/ccVnQtUk.s 			page 87


 4903 0045 0B        		.uleb128 0xb
 4904 0046 3B        		.uleb128 0x3b
 4905 0047 0B        		.uleb128 0xb
 4906 0048 49        		.uleb128 0x49
 4907 0049 13        		.uleb128 0x13
 4908 004a 00        		.byte	0x0
 4909 004b 00        		.byte	0x0
 4910 004c 07        		.uleb128 0x7
 4911 004d 0F        		.uleb128 0xf
 4912 004e 00        		.byte	0x0
 4913 004f 0B        		.uleb128 0xb
 4914 0050 0B        		.uleb128 0xb
 4915 0051 49        		.uleb128 0x49
 4916 0052 13        		.uleb128 0x13
 4917 0053 00        		.byte	0x0
 4918 0054 00        		.byte	0x0
 4919 0055 08        		.uleb128 0x8
 4920 0056 15        		.uleb128 0x15
 4921 0057 00        		.byte	0x0
 4922 0058 27        		.uleb128 0x27
 4923 0059 0C        		.uleb128 0xc
 4924 005a 00        		.byte	0x0
 4925 005b 00        		.byte	0x0
 4926 005c 09        		.uleb128 0x9
 4927 005d 2E        		.uleb128 0x2e
 4928 005e 01        		.byte	0x1
 4929 005f 3F        		.uleb128 0x3f
 4930 0060 0C        		.uleb128 0xc
 4931 0061 03        		.uleb128 0x3
 4932 0062 0E        		.uleb128 0xe
 4933 0063 3A        		.uleb128 0x3a
 4934 0064 0B        		.uleb128 0xb
 4935 0065 3B        		.uleb128 0x3b
 4936 0066 0B        		.uleb128 0xb
 4937 0067 27        		.uleb128 0x27
 4938 0068 0C        		.uleb128 0xc
 4939 0069 20        		.uleb128 0x20
 4940 006a 0B        		.uleb128 0xb
 4941 006b 01        		.uleb128 0x1
 4942 006c 13        		.uleb128 0x13
 4943 006d 00        		.byte	0x0
 4944 006e 00        		.byte	0x0
 4945 006f 0A        		.uleb128 0xa
 4946 0070 05        		.uleb128 0x5
 4947 0071 00        		.byte	0x0
 4948 0072 03        		.uleb128 0x3
 4949 0073 0E        		.uleb128 0xe
 4950 0074 3A        		.uleb128 0x3a
 4951 0075 0B        		.uleb128 0xb
 4952 0076 3B        		.uleb128 0x3b
 4953 0077 0B        		.uleb128 0xb
 4954 0078 49        		.uleb128 0x49
 4955 0079 13        		.uleb128 0x13
 4956 007a 00        		.byte	0x0
 4957 007b 00        		.byte	0x0
 4958 007c 0B        		.uleb128 0xb
 4959 007d 2E        		.uleb128 0x2e
GAS LISTING C:\Users\ADMINI~1\AppData\Local\Temp/ccVnQtUk.s 			page 88


 4960 007e 01        		.byte	0x1
 4961 007f 3F        		.uleb128 0x3f
 4962 0080 0C        		.uleb128 0xc
 4963 0081 03        		.uleb128 0x3
 4964 0082 0E        		.uleb128 0xe
 4965 0083 3A        		.uleb128 0x3a
 4966 0084 0B        		.uleb128 0xb
 4967 0085 3B        		.uleb128 0x3b
 4968 0086 0B        		.uleb128 0xb
 4969 0087 27        		.uleb128 0x27
 4970 0088 0C        		.uleb128 0xc
 4971 0089 49        		.uleb128 0x49
 4972 008a 13        		.uleb128 0x13
 4973 008b 20        		.uleb128 0x20
 4974 008c 0B        		.uleb128 0xb
 4975 008d 01        		.uleb128 0x1
 4976 008e 13        		.uleb128 0x13
 4977 008f 00        		.byte	0x0
 4978 0090 00        		.byte	0x0
 4979 0091 0C        		.uleb128 0xc
 4980 0092 0B        		.uleb128 0xb
 4981 0093 01        		.byte	0x1
 4982 0094 00        		.byte	0x0
 4983 0095 00        		.byte	0x0
 4984 0096 0D        		.uleb128 0xd
 4985 0097 34        		.uleb128 0x34
 4986 0098 00        		.byte	0x0
 4987 0099 03        		.uleb128 0x3
 4988 009a 0E        		.uleb128 0xe
 4989 009b 3A        		.uleb128 0x3a
 4990 009c 0B        		.uleb128 0xb
 4991 009d 3B        		.uleb128 0x3b
 4992 009e 0B        		.uleb128 0xb
 4993 009f 49        		.uleb128 0x49
 4994 00a0 13        		.uleb128 0x13
 4995 00a1 00        		.byte	0x0
 4996 00a2 00        		.byte	0x0
 4997 00a3 0E        		.uleb128 0xe
 4998 00a4 2E        		.uleb128 0x2e
 4999 00a5 00        		.byte	0x0
 5000 00a6 3F        		.uleb128 0x3f
 5001 00a7 0C        		.uleb128 0xc
 5002 00a8 03        		.uleb128 0x3
 5003 00a9 0E        		.uleb128 0xe
 5004 00aa 3A        		.uleb128 0x3a
 5005 00ab 0B        		.uleb128 0xb
 5006 00ac 3B        		.uleb128 0x3b
 5007 00ad 0B        		.uleb128 0xb
 5008 00ae 27        		.uleb128 0x27
 5009 00af 0C        		.uleb128 0xc
 5010 00b0 20        		.uleb128 0x20
 5011 00b1 0B        		.uleb128 0xb
 5012 00b2 00        		.byte	0x0
 5013 00b3 00        		.byte	0x0
 5014 00b4 0F        		.uleb128 0xf
 5015 00b5 05        		.uleb128 0x5
 5016 00b6 00        		.byte	0x0
GAS LISTING C:\Users\ADMINI~1\AppData\Local\Temp/ccVnQtUk.s 			page 89


 5017 00b7 31        		.uleb128 0x31
 5018 00b8 13        		.uleb128 0x13
 5019 00b9 00        		.byte	0x0
 5020 00ba 00        		.byte	0x0
 5021 00bb 10        		.uleb128 0x10
 5022 00bc 2E        		.uleb128 0x2e
 5023 00bd 00        		.byte	0x0
 5024 00be 3F        		.uleb128 0x3f
 5025 00bf 0C        		.uleb128 0xc
 5026 00c0 03        		.uleb128 0x3
 5027 00c1 0E        		.uleb128 0xe
 5028 00c2 3A        		.uleb128 0x3a
 5029 00c3 0B        		.uleb128 0xb
 5030 00c4 3B        		.uleb128 0x3b
 5031 00c5 05        		.uleb128 0x5
 5032 00c6 27        		.uleb128 0x27
 5033 00c7 0C        		.uleb128 0xc
 5034 00c8 20        		.uleb128 0x20
 5035 00c9 0B        		.uleb128 0xb
 5036 00ca 00        		.byte	0x0
 5037 00cb 00        		.byte	0x0
 5038 00cc 11        		.uleb128 0x11
 5039 00cd 2E        		.uleb128 0x2e
 5040 00ce 01        		.byte	0x1
 5041 00cf 3F        		.uleb128 0x3f
 5042 00d0 0C        		.uleb128 0xc
 5043 00d1 03        		.uleb128 0x3
 5044 00d2 0E        		.uleb128 0xe
 5045 00d3 3A        		.uleb128 0x3a
 5046 00d4 0B        		.uleb128 0xb
 5047 00d5 3B        		.uleb128 0x3b
 5048 00d6 0B        		.uleb128 0xb
 5049 00d7 27        		.uleb128 0x27
 5050 00d8 0C        		.uleb128 0xc
 5051 00d9 11        		.uleb128 0x11
 5052 00da 01        		.uleb128 0x1
 5053 00db 12        		.uleb128 0x12
 5054 00dc 01        		.uleb128 0x1
 5055 00dd 40        		.uleb128 0x40
 5056 00de 0A        		.uleb128 0xa
 5057 00df 01        		.uleb128 0x1
 5058 00e0 13        		.uleb128 0x13
 5059 00e1 00        		.byte	0x0
 5060 00e2 00        		.byte	0x0
 5061 00e3 12        		.uleb128 0x12
 5062 00e4 05        		.uleb128 0x5
 5063 00e5 00        		.byte	0x0
 5064 00e6 03        		.uleb128 0x3
 5065 00e7 0E        		.uleb128 0xe
 5066 00e8 3A        		.uleb128 0x3a
 5067 00e9 0B        		.uleb128 0xb
 5068 00ea 3B        		.uleb128 0x3b
 5069 00eb 0B        		.uleb128 0xb
 5070 00ec 49        		.uleb128 0x49
 5071 00ed 13        		.uleb128 0x13
 5072 00ee 02        		.uleb128 0x2
 5073 00ef 0A        		.uleb128 0xa
GAS LISTING C:\Users\ADMINI~1\AppData\Local\Temp/ccVnQtUk.s 			page 90


 5074 00f0 00        		.byte	0x0
 5075 00f1 00        		.byte	0x0
 5076 00f2 13        		.uleb128 0x13
 5077 00f3 34        		.uleb128 0x34
 5078 00f4 00        		.byte	0x0
 5079 00f5 03        		.uleb128 0x3
 5080 00f6 08        		.uleb128 0x8
 5081 00f7 3A        		.uleb128 0x3a
 5082 00f8 0B        		.uleb128 0xb
 5083 00f9 3B        		.uleb128 0x3b
 5084 00fa 0B        		.uleb128 0xb
 5085 00fb 49        		.uleb128 0x49
 5086 00fc 13        		.uleb128 0x13
 5087 00fd 00        		.byte	0x0
 5088 00fe 00        		.byte	0x0
 5089 00ff 14        		.uleb128 0x14
 5090 0100 1D        		.uleb128 0x1d
 5091 0101 01        		.byte	0x1
 5092 0102 31        		.uleb128 0x31
 5093 0103 13        		.uleb128 0x13
 5094 0104 11        		.uleb128 0x11
 5095 0105 01        		.uleb128 0x1
 5096 0106 12        		.uleb128 0x12
 5097 0107 01        		.uleb128 0x1
 5098 0108 58        		.uleb128 0x58
 5099 0109 0B        		.uleb128 0xb
 5100 010a 59        		.uleb128 0x59
 5101 010b 0B        		.uleb128 0xb
 5102 010c 01        		.uleb128 0x1
 5103 010d 13        		.uleb128 0x13
 5104 010e 00        		.byte	0x0
 5105 010f 00        		.byte	0x0
 5106 0110 15        		.uleb128 0x15
 5107 0111 1D        		.uleb128 0x1d
 5108 0112 00        		.byte	0x0
 5109 0113 31        		.uleb128 0x31
 5110 0114 13        		.uleb128 0x13
 5111 0115 11        		.uleb128 0x11
 5112 0116 01        		.uleb128 0x1
 5113 0117 12        		.uleb128 0x12
 5114 0118 01        		.uleb128 0x1
 5115 0119 58        		.uleb128 0x58
 5116 011a 0B        		.uleb128 0xb
 5117 011b 59        		.uleb128 0x59
 5118 011c 0B        		.uleb128 0xb
 5119 011d 00        		.byte	0x0
 5120 011e 00        		.byte	0x0
 5121 011f 16        		.uleb128 0x16
 5122 0120 2E        		.uleb128 0x2e
 5123 0121 01        		.byte	0x1
 5124 0122 31        		.uleb128 0x31
 5125 0123 13        		.uleb128 0x13
 5126 0124 11        		.uleb128 0x11
 5127 0125 01        		.uleb128 0x1
 5128 0126 12        		.uleb128 0x12
 5129 0127 01        		.uleb128 0x1
 5130 0128 40        		.uleb128 0x40
GAS LISTING C:\Users\ADMINI~1\AppData\Local\Temp/ccVnQtUk.s 			page 91


 5131 0129 0A        		.uleb128 0xa
 5132 012a 01        		.uleb128 0x1
 5133 012b 13        		.uleb128 0x13
 5134 012c 00        		.byte	0x0
 5135 012d 00        		.byte	0x0
 5136 012e 17        		.uleb128 0x17
 5137 012f 1D        		.uleb128 0x1d
 5138 0130 01        		.byte	0x1
 5139 0131 31        		.uleb128 0x31
 5140 0132 13        		.uleb128 0x13
 5141 0133 11        		.uleb128 0x11
 5142 0134 01        		.uleb128 0x1
 5143 0135 12        		.uleb128 0x12
 5144 0136 01        		.uleb128 0x1
 5145 0137 58        		.uleb128 0x58
 5146 0138 0B        		.uleb128 0xb
 5147 0139 59        		.uleb128 0x59
 5148 013a 0B        		.uleb128 0xb
 5149 013b 00        		.byte	0x0
 5150 013c 00        		.byte	0x0
 5151 013d 18        		.uleb128 0x18
 5152 013e 2E        		.uleb128 0x2e
 5153 013f 00        		.byte	0x0
 5154 0140 3F        		.uleb128 0x3f
 5155 0141 0C        		.uleb128 0xc
 5156 0142 03        		.uleb128 0x3
 5157 0143 0E        		.uleb128 0xe
 5158 0144 3A        		.uleb128 0x3a
 5159 0145 0B        		.uleb128 0xb
 5160 0146 3B        		.uleb128 0x3b
 5161 0147 0B        		.uleb128 0xb
 5162 0148 27        		.uleb128 0x27
 5163 0149 0C        		.uleb128 0xc
 5164 014a 11        		.uleb128 0x11
 5165 014b 01        		.uleb128 0x1
 5166 014c 12        		.uleb128 0x12
 5167 014d 01        		.uleb128 0x1
 5168 014e 40        		.uleb128 0x40
 5169 014f 0A        		.uleb128 0xa
 5170 0150 00        		.byte	0x0
 5171 0151 00        		.byte	0x0
 5172 0152 19        		.uleb128 0x19
 5173 0153 05        		.uleb128 0x5
 5174 0154 00        		.byte	0x0
 5175 0155 31        		.uleb128 0x31
 5176 0156 13        		.uleb128 0x13
 5177 0157 02        		.uleb128 0x2
 5178 0158 0A        		.uleb128 0xa
 5179 0159 00        		.byte	0x0
 5180 015a 00        		.byte	0x0
 5181 015b 1A        		.uleb128 0x1a
 5182 015c 2E        		.uleb128 0x2e
 5183 015d 01        		.byte	0x1
 5184 015e 3F        		.uleb128 0x3f
 5185 015f 0C        		.uleb128 0xc
 5186 0160 03        		.uleb128 0x3
 5187 0161 0E        		.uleb128 0xe
GAS LISTING C:\Users\ADMINI~1\AppData\Local\Temp/ccVnQtUk.s 			page 92


 5188 0162 3A        		.uleb128 0x3a
 5189 0163 0B        		.uleb128 0xb
 5190 0164 3B        		.uleb128 0x3b
 5191 0165 0B        		.uleb128 0xb
 5192 0166 27        		.uleb128 0x27
 5193 0167 0C        		.uleb128 0xc
 5194 0168 49        		.uleb128 0x49
 5195 0169 13        		.uleb128 0x13
 5196 016a 11        		.uleb128 0x11
 5197 016b 01        		.uleb128 0x1
 5198 016c 12        		.uleb128 0x12
 5199 016d 01        		.uleb128 0x1
 5200 016e 40        		.uleb128 0x40
 5201 016f 0A        		.uleb128 0xa
 5202 0170 01        		.uleb128 0x1
 5203 0171 13        		.uleb128 0x13
 5204 0172 00        		.byte	0x0
 5205 0173 00        		.byte	0x0
 5206 0174 1B        		.uleb128 0x1b
 5207 0175 0B        		.uleb128 0xb
 5208 0176 01        		.byte	0x1
 5209 0177 11        		.uleb128 0x11
 5210 0178 01        		.uleb128 0x1
 5211 0179 12        		.uleb128 0x12
 5212 017a 01        		.uleb128 0x1
 5213 017b 00        		.byte	0x0
 5214 017c 00        		.byte	0x0
 5215 017d 1C        		.uleb128 0x1c
 5216 017e 34        		.uleb128 0x34
 5217 017f 00        		.byte	0x0
 5218 0180 03        		.uleb128 0x3
 5219 0181 0E        		.uleb128 0xe
 5220 0182 3A        		.uleb128 0x3a
 5221 0183 0B        		.uleb128 0xb
 5222 0184 3B        		.uleb128 0x3b
 5223 0185 0B        		.uleb128 0xb
 5224 0186 49        		.uleb128 0x49
 5225 0187 13        		.uleb128 0x13
 5226 0188 02        		.uleb128 0x2
 5227 0189 0A        		.uleb128 0xa
 5228 018a 00        		.byte	0x0
 5229 018b 00        		.byte	0x0
 5230 018c 1D        		.uleb128 0x1d
 5231 018d 34        		.uleb128 0x34
 5232 018e 00        		.byte	0x0
 5233 018f 03        		.uleb128 0x3
 5234 0190 0E        		.uleb128 0xe
 5235 0191 3A        		.uleb128 0x3a
 5236 0192 0B        		.uleb128 0xb
 5237 0193 3B        		.uleb128 0x3b
 5238 0194 0B        		.uleb128 0xb
 5239 0195 49        		.uleb128 0x49
 5240 0196 13        		.uleb128 0x13
 5241 0197 02        		.uleb128 0x2
 5242 0198 06        		.uleb128 0x6
 5243 0199 00        		.byte	0x0
 5244 019a 00        		.byte	0x0
GAS LISTING C:\Users\ADMINI~1\AppData\Local\Temp/ccVnQtUk.s 			page 93


 5245 019b 1E        		.uleb128 0x1e
 5246 019c 34        		.uleb128 0x34
 5247 019d 00        		.byte	0x0
 5248 019e 31        		.uleb128 0x31
 5249 019f 13        		.uleb128 0x13
 5250 01a0 02        		.uleb128 0x2
 5251 01a1 0A        		.uleb128 0xa
 5252 01a2 00        		.byte	0x0
 5253 01a3 00        		.byte	0x0
 5254 01a4 1F        		.uleb128 0x1f
 5255 01a5 34        		.uleb128 0x34
 5256 01a6 00        		.byte	0x0
 5257 01a7 31        		.uleb128 0x31
 5258 01a8 13        		.uleb128 0x13
 5259 01a9 02        		.uleb128 0x2
 5260 01aa 06        		.uleb128 0x6
 5261 01ab 00        		.byte	0x0
 5262 01ac 00        		.byte	0x0
 5263 01ad 20        		.uleb128 0x20
 5264 01ae 05        		.uleb128 0x5
 5265 01af 00        		.byte	0x0
 5266 01b0 03        		.uleb128 0x3
 5267 01b1 0E        		.uleb128 0xe
 5268 01b2 3A        		.uleb128 0x3a
 5269 01b3 0B        		.uleb128 0xb
 5270 01b4 3B        		.uleb128 0x3b
 5271 01b5 0B        		.uleb128 0xb
 5272 01b6 49        		.uleb128 0x49
 5273 01b7 13        		.uleb128 0x13
 5274 01b8 02        		.uleb128 0x2
 5275 01b9 06        		.uleb128 0x6
 5276 01ba 00        		.byte	0x0
 5277 01bb 00        		.byte	0x0
 5278 01bc 21        		.uleb128 0x21
 5279 01bd 2E        		.uleb128 0x2e
 5280 01be 00        		.byte	0x0
 5281 01bf 31        		.uleb128 0x31
 5282 01c0 13        		.uleb128 0x13
 5283 01c1 11        		.uleb128 0x11
 5284 01c2 01        		.uleb128 0x1
 5285 01c3 12        		.uleb128 0x12
 5286 01c4 01        		.uleb128 0x1
 5287 01c5 40        		.uleb128 0x40
 5288 01c6 0A        		.uleb128 0xa
 5289 01c7 00        		.byte	0x0
 5290 01c8 00        		.byte	0x0
 5291 01c9 22        		.uleb128 0x22
 5292 01ca 2E        		.uleb128 0x2e
 5293 01cb 00        		.byte	0x0
 5294 01cc 3F        		.uleb128 0x3f
 5295 01cd 0C        		.uleb128 0xc
 5296 01ce 03        		.uleb128 0x3
 5297 01cf 0E        		.uleb128 0xe
 5298 01d0 3A        		.uleb128 0x3a
 5299 01d1 0B        		.uleb128 0xb
 5300 01d2 3B        		.uleb128 0x3b
 5301 01d3 0B        		.uleb128 0xb
GAS LISTING C:\Users\ADMINI~1\AppData\Local\Temp/ccVnQtUk.s 			page 94


 5302 01d4 27        		.uleb128 0x27
 5303 01d5 0C        		.uleb128 0xc
 5304 01d6 49        		.uleb128 0x49
 5305 01d7 13        		.uleb128 0x13
 5306 01d8 11        		.uleb128 0x11
 5307 01d9 01        		.uleb128 0x1
 5308 01da 12        		.uleb128 0x12
 5309 01db 01        		.uleb128 0x1
 5310 01dc 40        		.uleb128 0x40
 5311 01dd 0A        		.uleb128 0xa
 5312 01de 00        		.byte	0x0
 5313 01df 00        		.byte	0x0
 5314 01e0 23        		.uleb128 0x23
 5315 01e1 2E        		.uleb128 0x2e
 5316 01e2 00        		.byte	0x0
 5317 01e3 3F        		.uleb128 0x3f
 5318 01e4 0C        		.uleb128 0xc
 5319 01e5 03        		.uleb128 0x3
 5320 01e6 0E        		.uleb128 0xe
 5321 01e7 3A        		.uleb128 0x3a
 5322 01e8 0B        		.uleb128 0xb
 5323 01e9 3B        		.uleb128 0x3b
 5324 01ea 05        		.uleb128 0x5
 5325 01eb 27        		.uleb128 0x27
 5326 01ec 0C        		.uleb128 0xc
 5327 01ed 49        		.uleb128 0x49
 5328 01ee 13        		.uleb128 0x13
 5329 01ef 11        		.uleb128 0x11
 5330 01f0 01        		.uleb128 0x1
 5331 01f1 12        		.uleb128 0x12
 5332 01f2 01        		.uleb128 0x1
 5333 01f3 40        		.uleb128 0x40
 5334 01f4 0A        		.uleb128 0xa
 5335 01f5 00        		.byte	0x0
 5336 01f6 00        		.byte	0x0
 5337 01f7 24        		.uleb128 0x24
 5338 01f8 2E        		.uleb128 0x2e
 5339 01f9 01        		.byte	0x1
 5340 01fa 3F        		.uleb128 0x3f
 5341 01fb 0C        		.uleb128 0xc
 5342 01fc 03        		.uleb128 0x3
 5343 01fd 0E        		.uleb128 0xe
 5344 01fe 3A        		.uleb128 0x3a
 5345 01ff 0B        		.uleb128 0xb
 5346 0200 3B        		.uleb128 0x3b
 5347 0201 05        		.uleb128 0x5
 5348 0202 27        		.uleb128 0x27
 5349 0203 0C        		.uleb128 0xc
 5350 0204 11        		.uleb128 0x11
 5351 0205 01        		.uleb128 0x1
 5352 0206 12        		.uleb128 0x12
 5353 0207 01        		.uleb128 0x1
 5354 0208 40        		.uleb128 0x40
 5355 0209 0A        		.uleb128 0xa
 5356 020a 01        		.uleb128 0x1
 5357 020b 13        		.uleb128 0x13
 5358 020c 00        		.byte	0x0
GAS LISTING C:\Users\ADMINI~1\AppData\Local\Temp/ccVnQtUk.s 			page 95


 5359 020d 00        		.byte	0x0
 5360 020e 25        		.uleb128 0x25
 5361 020f 05        		.uleb128 0x5
 5362 0210 00        		.byte	0x0
 5363 0211 03        		.uleb128 0x3
 5364 0212 0E        		.uleb128 0xe
 5365 0213 3A        		.uleb128 0x3a
 5366 0214 0B        		.uleb128 0xb
 5367 0215 3B        		.uleb128 0x3b
 5368 0216 05        		.uleb128 0x5
 5369 0217 49        		.uleb128 0x49
 5370 0218 13        		.uleb128 0x13
 5371 0219 02        		.uleb128 0x2
 5372 021a 06        		.uleb128 0x6
 5373 021b 00        		.byte	0x0
 5374 021c 00        		.byte	0x0
 5375 021d 26        		.uleb128 0x26
 5376 021e 2E        		.uleb128 0x2e
 5377 021f 00        		.byte	0x0
 5378 0220 3F        		.uleb128 0x3f
 5379 0221 0C        		.uleb128 0xc
 5380 0222 03        		.uleb128 0x3
 5381 0223 0E        		.uleb128 0xe
 5382 0224 3A        		.uleb128 0x3a
 5383 0225 0B        		.uleb128 0xb
 5384 0226 3B        		.uleb128 0x3b
 5385 0227 05        		.uleb128 0x5
 5386 0228 27        		.uleb128 0x27
 5387 0229 0C        		.uleb128 0xc
 5388 022a 11        		.uleb128 0x11
 5389 022b 01        		.uleb128 0x1
 5390 022c 12        		.uleb128 0x12
 5391 022d 01        		.uleb128 0x1
 5392 022e 40        		.uleb128 0x40
 5393 022f 0A        		.uleb128 0xa
 5394 0230 00        		.byte	0x0
 5395 0231 00        		.byte	0x0
 5396 0232 27        		.uleb128 0x27
 5397 0233 05        		.uleb128 0x5
 5398 0234 00        		.byte	0x0
 5399 0235 03        		.uleb128 0x3
 5400 0236 0E        		.uleb128 0xe
 5401 0237 3A        		.uleb128 0x3a
 5402 0238 0B        		.uleb128 0xb
 5403 0239 3B        		.uleb128 0x3b
 5404 023a 05        		.uleb128 0x5
 5405 023b 49        		.uleb128 0x49
 5406 023c 13        		.uleb128 0x13
 5407 023d 02        		.uleb128 0x2
 5408 023e 0A        		.uleb128 0xa
 5409 023f 00        		.byte	0x0
 5410 0240 00        		.byte	0x0
 5411 0241 28        		.uleb128 0x28
 5412 0242 1D        		.uleb128 0x1d
 5413 0243 00        		.byte	0x0
 5414 0244 31        		.uleb128 0x31
 5415 0245 13        		.uleb128 0x13
GAS LISTING C:\Users\ADMINI~1\AppData\Local\Temp/ccVnQtUk.s 			page 96


 5416 0246 11        		.uleb128 0x11
 5417 0247 01        		.uleb128 0x1
 5418 0248 12        		.uleb128 0x12
 5419 0249 01        		.uleb128 0x1
 5420 024a 58        		.uleb128 0x58
 5421 024b 0B        		.uleb128 0xb
 5422 024c 59        		.uleb128 0x59
 5423 024d 05        		.uleb128 0x5
 5424 024e 00        		.byte	0x0
 5425 024f 00        		.byte	0x0
 5426 0250 29        		.uleb128 0x29
 5427 0251 01        		.uleb128 0x1
 5428 0252 01        		.byte	0x1
 5429 0253 49        		.uleb128 0x49
 5430 0254 13        		.uleb128 0x13
 5431 0255 01        		.uleb128 0x1
 5432 0256 13        		.uleb128 0x13
 5433 0257 00        		.byte	0x0
 5434 0258 00        		.byte	0x0
 5435 0259 2A        		.uleb128 0x2a
 5436 025a 21        		.uleb128 0x21
 5437 025b 00        		.byte	0x0
 5438 025c 49        		.uleb128 0x49
 5439 025d 13        		.uleb128 0x13
 5440 025e 2F        		.uleb128 0x2f
 5441 025f 0B        		.uleb128 0xb
 5442 0260 00        		.byte	0x0
 5443 0261 00        		.byte	0x0
 5444 0262 2B        		.uleb128 0x2b
 5445 0263 35        		.uleb128 0x35
 5446 0264 00        		.byte	0x0
 5447 0265 49        		.uleb128 0x49
 5448 0266 13        		.uleb128 0x13
 5449 0267 00        		.byte	0x0
 5450 0268 00        		.byte	0x0
 5451 0269 2C        		.uleb128 0x2c
 5452 026a 34        		.uleb128 0x34
 5453 026b 00        		.byte	0x0
 5454 026c 03        		.uleb128 0x3
 5455 026d 0E        		.uleb128 0xe
 5456 026e 3A        		.uleb128 0x3a
 5457 026f 0B        		.uleb128 0xb
 5458 0270 3B        		.uleb128 0x3b
 5459 0271 0B        		.uleb128 0xb
 5460 0272 49        		.uleb128 0x49
 5461 0273 13        		.uleb128 0x13
 5462 0274 3F        		.uleb128 0x3f
 5463 0275 0C        		.uleb128 0xc
 5464 0276 02        		.uleb128 0x2
 5465 0277 0A        		.uleb128 0xa
 5466 0278 00        		.byte	0x0
 5467 0279 00        		.byte	0x0
 5468 027a 2D        		.uleb128 0x2d
 5469 027b 26        		.uleb128 0x26
 5470 027c 00        		.byte	0x0
 5471 027d 49        		.uleb128 0x49
 5472 027e 13        		.uleb128 0x13
GAS LISTING C:\Users\ADMINI~1\AppData\Local\Temp/ccVnQtUk.s 			page 97


 5473 027f 00        		.byte	0x0
 5474 0280 00        		.byte	0x0
 5475 0281 00        		.byte	0x0
 5476               		.section	.debug_pubnames,"",@progbits
 5477 0000 2205 0000 		.long	0x522
 5478 0004 0200      		.word	0x2
 5479 0006 0000 0000 		.long	.Ldebug_info0
 5480 000a E80B 0000 		.long	0xbe8
 5481 000e E601 0000 		.long	0x1e6
 5482 0012 6465 6C61 		.string	"delay_us"
 5482      795F 7573 
 5482      00
 5483 001b 2502 0000 		.long	0x225
 5484 001f 7469 6D65 		.string	"timer0Init"
 5484      7230 496E 
 5484      6974 00
 5485 002a 6602 0000 		.long	0x266
 5486 002e 7469 6D65 		.string	"timer1Init"
 5486      7231 496E 
 5486      6974 00
 5487 0039 9002 0000 		.long	0x290
 5488 003d 7469 6D65 		.string	"timer2Init"
 5488      7232 496E 
 5488      6974 00
 5489 0048 D102 0000 		.long	0x2d1
 5490 004c 7469 6D65 		.string	"timerInit"
 5490      7249 6E69 
 5490      7400 
 5491 0056 5C03 0000 		.long	0x35c
 5492 005a 7469 6D65 		.string	"timer2IntEnable"
 5492      7232 496E 
 5492      7445 6E61 
 5492      626C 6500 
 5493 006a 7003 0000 		.long	0x370
 5494 006e 7469 6D65 		.string	"timer3Init"
 5494      7233 496E 
 5494      6974 00
 5495 0079 9A03 0000 		.long	0x39a
 5496 007d 7469 6D65 		.string	"timer0SetPrescaler"
 5496      7230 5365 
 5496      7450 7265 
 5496      7363 616C 
 5496      6572 00
 5497 0090 B603 0000 		.long	0x3b6
 5498 0094 7469 6D65 		.string	"timer1SetPrescaler"
 5498      7231 5365 
 5498      7450 7265 
 5498      7363 616C 
 5498      6572 00
 5499 00a7 D203 0000 		.long	0x3d2
 5500 00ab 7469 6D65 		.string	"timer2SetPrescaler"
 5500      7232 5365 
 5500      7450 7265 
 5500      7363 616C 
 5500      6572 00
 5501 00be EE03 0000 		.long	0x3ee
 5502 00c2 7469 6D65 		.string	"timer3SetPrescaler"
GAS LISTING C:\Users\ADMINI~1\AppData\Local\Temp/ccVnQtUk.s 			page 98


 5502      7233 5365 
 5502      7450 7265 
 5502      7363 616C 
 5502      6572 00
 5503 00d5 0A04 0000 		.long	0x40a
 5504 00d9 7469 6D65 		.string	"timer0GetPrescaler"
 5504      7230 4765 
 5504      7450 7265 
 5504      7363 616C 
 5504      6572 00
 5505 00ec 5204 0000 		.long	0x452
 5506 00f0 7469 6D65 		.string	"timer1GetPrescaler"
 5506      7231 4765 
 5506      7450 7265 
 5506      7363 616C 
 5506      6572 00
 5507 0103 9A04 0000 		.long	0x49a
 5508 0107 7469 6D65 		.string	"timer2GetPrescaler"
 5508      7232 4765 
 5508      7450 7265 
 5508      7363 616C 
 5508      6572 00
 5509 011a CE04 0000 		.long	0x4ce
 5510 011e 7469 6D65 		.string	"timer3GetPrescaler"
 5510      7233 4765 
 5510      7450 7265 
 5510      7363 616C 
 5510      6572 00
 5511 0131 1605 0000 		.long	0x516
 5512 0135 7469 6D65 		.string	"timerAttach"
 5512      7241 7474 
 5512      6163 6800 
 5513 0141 4E05 0000 		.long	0x54e
 5514 0145 7469 6D65 		.string	"timerDetach"
 5514      7244 6574 
 5514      6163 6800 
 5515 0151 6A05 0000 		.long	0x56a
 5516 0155 7469 6D65 		.string	"timerPause"
 5516      7250 6175 
 5516      7365 00
 5517 0160 EB05 0000 		.long	0x5eb
 5518 0164 7469 6D65 		.string	"timer0ClearOverflowCount"
 5518      7230 436C 
 5518      6561 724F 
 5518      7665 7266 
 5518      6C6F 7743 
 5519 017d FB05 0000 		.long	0x5fb
 5520 0181 7469 6D65 		.string	"timer0GetOverflowCount"
 5520      7230 4765 
 5520      744F 7665 
 5520      7266 6C6F 
 5520      7743 6F75 
 5521 0198 1306 0000 		.long	0x613
 5522 019c 7469 6D65 		.string	"timer2ClearOverflowCount"
 5522      7232 436C 
 5522      6561 724F 
 5522      7665 7266 
GAS LISTING C:\Users\ADMINI~1\AppData\Local\Temp/ccVnQtUk.s 			page 99


 5522      6C6F 7743 
 5523 01b5 2306 0000 		.long	0x623
 5524 01b9 7469 6D65 		.string	"timer2GetOverflowCount"
 5524      7232 4765 
 5524      744F 7665 
 5524      7266 6C6F 
 5524      7743 6F75 
 5525 01d0 3C06 0000 		.long	0x63c
 5526 01d4 7469 6D65 		.string	"timer0PWMInit"
 5526      7230 5057 
 5526      4D49 6E69 
 5526      7400 
 5527 01e2 6606 0000 		.long	0x666
 5528 01e6 7469 6D65 		.string	"timer0PWMOn"
 5528      7230 5057 
 5528      4D4F 6E00 
 5529 01f2 7B06 0000 		.long	0x67b
 5530 01f6 7469 6D65 		.string	"timer0PWMOff"
 5530      7230 5057 
 5530      4D4F 6666 
 5530      00
 5531 0203 9006 0000 		.long	0x690
 5532 0207 7469 6D65 		.string	"timer0PWMSet"
 5532      7230 5057 
 5532      4D53 6574 
 5532      00
 5533 0214 BD06 0000 		.long	0x6bd
 5534 0218 7469 6D65 		.string	"timer1PWMInit"
 5534      7231 5057 
 5534      4D49 6E69 
 5534      7400 
 5535 0226 E706 0000 		.long	0x6e7
 5536 022a 7469 6D65 		.string	"timer1PWMInitICR"
 5536      7231 5057 
 5536      4D49 6E69 
 5536      7449 4352 
 5536      00
 5537 023b 1407 0000 		.long	0x714
 5538 023f 7469 6D65 		.string	"timer1PWMOff"
 5538      7231 5057 
 5538      4D4F 6666 
 5538      00
 5539 024c 5E07 0000 		.long	0x75e
 5540 0250 7469 6D65 		.string	"timer1PWMAOn"
 5540      7231 5057 
 5540      4D41 4F6E 
 5540      00
 5541 025d 7307 0000 		.long	0x773
 5542 0261 7469 6D65 		.string	"timer1PWMBOn"
 5542      7231 5057 
 5542      4D42 4F6E 
 5542      00
 5543 026e 8807 0000 		.long	0x788
 5544 0272 7469 6D65 		.string	"timer1PWMCOn"
 5544      7231 5057 
 5544      4D43 4F6E 
 5544      00
GAS LISTING C:\Users\ADMINI~1\AppData\Local\Temp/ccVnQtUk.s 			page 100


 5545 027f 9D07 0000 		.long	0x79d
 5546 0283 7469 6D65 		.string	"timer1PWMAOff"
 5546      7231 5057 
 5546      4D41 4F66 
 5546      6600 
 5547 0291 AD07 0000 		.long	0x7ad
 5548 0295 7469 6D65 		.string	"timer1PWMBOff"
 5548      7231 5057 
 5548      4D42 4F66 
 5548      6600 
 5549 02a3 BD07 0000 		.long	0x7bd
 5550 02a7 7469 6D65 		.string	"timer1PWMCOff"
 5550      7231 5057 
 5550      4D43 4F66 
 5550      6600 
 5551 02b5 CD07 0000 		.long	0x7cd
 5552 02b9 7469 6D65 		.string	"timer1PWMASet"
 5552      7231 5057 
 5552      4D41 5365 
 5552      7400 
 5553 02c7 FA07 0000 		.long	0x7fa
 5554 02cb 7469 6D65 		.string	"timer1PWMBSet"
 5554      7231 5057 
 5554      4D42 5365 
 5554      7400 
 5555 02d9 2708 0000 		.long	0x827
 5556 02dd 7469 6D65 		.string	"timer1PWMCSet"
 5556      7231 5057 
 5556      4D43 5365 
 5556      7400 
 5557 02eb 5408 0000 		.long	0x854
 5558 02ef 7469 6D65 		.string	"timer3PWMInit"
 5558      7233 5057 
 5558      4D49 6E69 
 5558      7400 
 5559 02fd 7E08 0000 		.long	0x87e
 5560 0301 7469 6D65 		.string	"timer3PWMInitICR"
 5560      7233 5057 
 5560      4D49 6E69 
 5560      7449 4352 
 5560      00
 5561 0312 AB08 0000 		.long	0x8ab
 5562 0316 7469 6D65 		.string	"timer3PWMOff"
 5562      7233 5057 
 5562      4D4F 6666 
 5562      00
 5563 0323 F508 0000 		.long	0x8f5
 5564 0327 7469 6D65 		.string	"timer3PWMAOn"
 5564      7233 5057 
 5564      4D41 4F6E 
 5564      00
 5565 0334 0A09 0000 		.long	0x90a
 5566 0338 7469 6D65 		.string	"timer3PWMBOn"
 5566      7233 5057 
 5566      4D42 4F6E 
 5566      00
 5567 0345 1F09 0000 		.long	0x91f
GAS LISTING C:\Users\ADMINI~1\AppData\Local\Temp/ccVnQtUk.s 			page 101


 5568 0349 7469 6D65 		.string	"timer3PWMCOn"
 5568      7233 5057 
 5568      4D43 4F6E 
 5568      00
 5569 0356 3409 0000 		.long	0x934
 5570 035a 7469 6D65 		.string	"timer3PWMAOff"
 5570      7233 5057 
 5570      4D41 4F66 
 5570      6600 
 5571 0368 4409 0000 		.long	0x944
 5572 036c 7469 6D65 		.string	"timer3PWMBOff"
 5572      7233 5057 
 5572      4D42 4F66 
 5572      6600 
 5573 037a 5409 0000 		.long	0x954
 5574 037e 7469 6D65 		.string	"timer3PWMCOff"
 5574      7233 5057 
 5574      4D43 4F66 
 5574      6600 
 5575 038c 6409 0000 		.long	0x964
 5576 0390 7469 6D65 		.string	"timer3PWMASet"
 5576      7233 5057 
 5576      4D41 5365 
 5576      7400 
 5577 039e 9109 0000 		.long	0x991
 5578 03a2 7469 6D65 		.string	"timer3PWMBSet"
 5578      7233 5057 
 5578      4D42 5365 
 5578      7400 
 5579 03b0 BE09 0000 		.long	0x9be
 5580 03b4 7469 6D65 		.string	"timer3PWMCSet"
 5580      7233 5057 
 5580      4D43 5365 
 5580      7400 
 5581 03c2 EB09 0000 		.long	0x9eb
 5582 03c6 5F5F 7665 		.string	"__vector_16"
 5582      6374 6F72 
 5582      5F31 3600 
 5583 03d2 000A 0000 		.long	0xa00
 5584 03d6 5F5F 7665 		.string	"__vector_14"
 5584      6374 6F72 
 5584      5F31 3400 
 5585 03e2 150A 0000 		.long	0xa15
 5586 03e6 5F5F 7665 		.string	"__vector_10"
 5586      6374 6F72 
 5586      5F31 3000 
 5587 03f2 2A0A 0000 		.long	0xa2a
 5588 03f6 5F5F 7665 		.string	"__vector_29"
 5588      6374 6F72 
 5588      5F32 3900 
 5589 0402 3F0A 0000 		.long	0xa3f
 5590 0406 5F5F 7665 		.string	"__vector_15"
 5590      6374 6F72 
 5590      5F31 3500 
 5591 0412 540A 0000 		.long	0xa54
 5592 0416 5F5F 7665 		.string	"__vector_12"
 5592      6374 6F72 
GAS LISTING C:\Users\ADMINI~1\AppData\Local\Temp/ccVnQtUk.s 			page 102


 5592      5F31 3200 
 5593 0422 690A 0000 		.long	0xa69
 5594 0426 5F5F 7665 		.string	"__vector_13"
 5594      6374 6F72 
 5594      5F31 3300 
 5595 0432 7E0A 0000 		.long	0xa7e
 5596 0436 5F5F 7665 		.string	"__vector_24"
 5596      6374 6F72 
 5596      5F32 3400 
 5597 0442 930A 0000 		.long	0xa93
 5598 0446 5F5F 7665 		.string	"__vector_11"
 5598      6374 6F72 
 5598      5F31 3100 
 5599 0452 A80A 0000 		.long	0xaa8
 5600 0456 5F5F 7665 		.string	"__vector_9"
 5600      6374 6F72 
 5600      5F39 00
 5601 0461 BD0A 0000 		.long	0xabd
 5602 0465 5F5F 7665 		.string	"__vector_26"
 5602      6374 6F72 
 5602      5F32 3600 
 5603 0471 D20A 0000 		.long	0xad2
 5604 0475 5F5F 7665 		.string	"__vector_27"
 5604      6374 6F72 
 5604      5F32 3700 
 5605 0481 E70A 0000 		.long	0xae7
 5606 0485 5F5F 7665 		.string	"__vector_28"
 5606      6374 6F72 
 5606      5F32 3800 
 5607 0491 FC0A 0000 		.long	0xafc
 5608 0495 5F5F 7665 		.string	"__vector_25"
 5608      6374 6F72 
 5608      5F32 3500 
 5609 04a1 4A0B 0000 		.long	0xb4a
 5610 04a5 5469 6D65 		.string	"TimerPrescaleFactor"
 5610      7250 7265 
 5610      7363 616C 
 5610      6546 6163 
 5610      746F 7200 
 5611 04b9 710B 0000 		.long	0xb71
 5612 04bd 5469 6D65 		.string	"TimerRTCPrescaleFactor"
 5612      7252 5443 
 5612      5072 6573 
 5612      6361 6C65 
 5612      4661 6374 
 5613 04d4 880B 0000 		.long	0xb88
 5614 04d8 5469 6D65 		.string	"TimerPauseReg"
 5614      7250 6175 
 5614      7365 5265 
 5614      6700 
 5615 04e6 9F0B 0000 		.long	0xb9f
 5616 04ea 5469 6D65 		.string	"Timer0Reg0"
 5616      7230 5265 
 5616      6730 00
 5617 04f5 B10B 0000 		.long	0xbb1
 5618 04f9 5469 6D65 		.string	"Timer0Reg1"
 5618      7230 5265 
GAS LISTING C:\Users\ADMINI~1\AppData\Local\Temp/ccVnQtUk.s 			page 103


 5618      6731 00
 5619 0504 C30B 0000 		.long	0xbc3
 5620 0508 5469 6D65 		.string	"Timer2Reg0"
 5620      7232 5265 
 5620      6730 00
 5621 0513 D50B 0000 		.long	0xbd5
 5622 0517 5469 6D65 		.string	"Timer2Reg1"
 5622      7232 5265 
 5622      6731 00
 5623 0522 0000 0000 		.long	0x0
 5624               		.section	.debug_aranges,"",@progbits
 5625 0000 1C00 0000 		.long	0x1c
 5626 0004 0200      		.word	0x2
 5627 0006 0000 0000 		.long	.Ldebug_info0
 5628 000a 04        		.byte	0x4
 5629 000b 00        		.byte	0x0
 5630 000c 0000      		.word	0x0
 5631 000e 0000      		.word	0x0
 5632 0010 0000 0000 		.long	.Ltext0
 5633 0014 FA0B 0000 		.long	.Letext0-.Ltext0
 5634 0018 0000 0000 		.long	0x0
 5635 001c 0000 0000 		.long	0x0
 5636               		.section	.debug_line
 5637 0000 000B 0000 		.long	.LELT0-.LSLT0
 5638               	.LSLT0:
 5639 0004 0200      		.word	0x2
 5640 0006 6F00 0000 		.long	.LELTP0-.LASLTP0
 5641               	.LASLTP0:
 5642 000a 01        		.byte	0x1
 5643 000b 01        		.byte	0x1
 5644 000c F6        		.byte	0xf6
 5645 000d F5        		.byte	0xf5
 5646 000e 0A        		.byte	0xa
 5647 000f 00        		.byte	0x0
 5648 0010 01        		.byte	0x1
 5649 0011 01        		.byte	0x1
 5650 0012 01        		.byte	0x1
 5651 0013 01        		.byte	0x1
 5652 0014 00        		.byte	0x0
 5653 0015 00        		.byte	0x0
 5654 0016 00        		.byte	0x0
 5655 0017 01        		.byte	0x1
 5656 0018 633A 2F77 		.ascii	"c:/winavr-20100110/lib/gcc/../../avr/include"
 5656      696E 6176 
 5656      722D 3230 
 5656      3130 3031 
 5656      3130 2F6C 
 5657 0044 00        		.byte	0
 5658 0045 6176 726C 		.ascii	"avrlib"
 5658      6962 
 5659 004b 00        		.byte	0
 5660 004c 00        		.byte	0x0
 5661 004d 7469 6D65 		.string	"timer128.c"
 5661      7231 3238 
 5661      2E63 00
 5662 0058 02        		.uleb128 0x2
 5663 0059 00        		.uleb128 0x0
GAS LISTING C:\Users\ADMINI~1\AppData\Local\Temp/ccVnQtUk.s 			page 104


 5664 005a 00        		.uleb128 0x0
 5665 005b 6176 726C 		.string	"avrlibtypes.h"
 5665      6962 7479 
 5665      7065 732E 
 5665      6800 
 5666 0069 02        		.uleb128 0x2
 5667 006a 00        		.uleb128 0x0
 5668 006b 00        		.uleb128 0x0
 5669 006c 7374 6469 		.string	"stdint.h"
 5669      6E74 2E68 
 5669      00
 5670 0075 01        		.uleb128 0x1
 5671 0076 00        		.uleb128 0x0
 5672 0077 00        		.uleb128 0x0
 5673 0078 00        		.byte	0x0
 5674               	.LELTP0:
 5675 0079 00        		.byte	0x0
 5676 007a 05        		.uleb128 0x5
 5677 007b 02        		.byte	0x2
 5678 007c 0000 0000 		.long	.LM1
 5679 0080 44        		.byte	0x44
 5680 0081 00        		.byte	0x0
 5681 0082 05        		.uleb128 0x5
 5682 0083 02        		.byte	0x2
 5683 0084 0000 0000 		.long	.LM2
 5684 0088 1C        		.byte	0x1c
 5685 0089 00        		.byte	0x0
 5686 008a 05        		.uleb128 0x5
 5687 008b 02        		.byte	0x2
 5688 008c 0000 0000 		.long	.LM3
 5689 0090 38        		.byte	0x38
 5690 0091 00        		.byte	0x0
 5691 0092 05        		.uleb128 0x5
 5692 0093 02        		.byte	0x2
 5693 0094 0000 0000 		.long	.LM4
 5694 0098 41        		.byte	0x41
 5695 0099 00        		.byte	0x0
 5696 009a 05        		.uleb128 0x5
 5697 009b 02        		.byte	0x2
 5698 009c 0000 0000 		.long	.LM5
 5699 00a0 03        		.byte	0x3
 5700 00a1 56        		.sleb128 -42
 5701 00a2 01        		.byte	0x1
 5702 00a3 00        		.byte	0x0
 5703 00a4 05        		.uleb128 0x5
 5704 00a5 02        		.byte	0x2
 5705 00a6 0000 0000 		.long	.LM6
 5706 00aa A5        		.byte	0xa5
 5707 00ab 00        		.byte	0x0
 5708 00ac 05        		.uleb128 0x5
 5709 00ad 02        		.byte	0x2
 5710 00ae 0000 0000 		.long	.LM7
 5711 00b2 15        		.byte	0x15
 5712 00b3 00        		.byte	0x0
 5713 00b4 05        		.uleb128 0x5
 5714 00b5 02        		.byte	0x2
 5715 00b6 0000 0000 		.long	.LM8
GAS LISTING C:\Users\ADMINI~1\AppData\Local\Temp/ccVnQtUk.s 			page 105


 5716 00ba 03        		.byte	0x3
 5717 00bb F27E      		.sleb128 -142
 5718 00bd 01        		.byte	0x1
 5719 00be 00        		.byte	0x0
 5720 00bf 05        		.uleb128 0x5
 5721 00c0 02        		.byte	0x2
 5722 00c1 0000 0000 		.long	.LM9
 5723 00c5 17        		.byte	0x17
 5724 00c6 00        		.byte	0x0
 5725 00c7 05        		.uleb128 0x5
 5726 00c8 02        		.byte	0x2
 5727 00c9 0000 0000 		.long	.LM10
 5728 00cd 3D        		.byte	0x3d
 5729 00ce 00        		.byte	0x0
 5730 00cf 05        		.uleb128 0x5
 5731 00d0 02        		.byte	0x2
 5732 00d1 0000 0000 		.long	.LM11
 5733 00d5 03        		.byte	0x3
 5734 00d6 5A        		.sleb128 -38
 5735 00d7 01        		.byte	0x1
 5736 00d8 00        		.byte	0x0
 5737 00d9 05        		.uleb128 0x5
 5738 00da 02        		.byte	0x2
 5739 00db 0000 0000 		.long	.LM12
 5740 00df 15        		.byte	0x15
 5741 00e0 00        		.byte	0x0
 5742 00e1 05        		.uleb128 0x5
 5743 00e2 02        		.byte	0x2
 5744 00e3 0000 0000 		.long	.LM13
 5745 00e7 16        		.byte	0x16
 5746 00e8 00        		.byte	0x0
 5747 00e9 05        		.uleb128 0x5
 5748 00ea 02        		.byte	0x2
 5749 00eb 0000 0000 		.long	.LM14
 5750 00ef 17        		.byte	0x17
 5751 00f0 00        		.byte	0x0
 5752 00f1 05        		.uleb128 0x5
 5753 00f2 02        		.byte	0x2
 5754 00f3 0000 0000 		.long	.LM15
 5755 00f7 3A        		.byte	0x3a
 5756 00f8 00        		.byte	0x0
 5757 00f9 05        		.uleb128 0x5
 5758 00fa 02        		.byte	0x2
 5759 00fb 0000 0000 		.long	.LM16
 5760 00ff 03        		.byte	0x3
 5761 0100 5D        		.sleb128 -35
 5762 0101 01        		.byte	0x1
 5763 0102 00        		.byte	0x0
 5764 0103 05        		.uleb128 0x5
 5765 0104 02        		.byte	0x2
 5766 0105 0000 0000 		.long	.LM17
 5767 0109 A0        		.byte	0xa0
 5768 010a 00        		.byte	0x0
 5769 010b 05        		.uleb128 0x5
 5770 010c 02        		.byte	0x2
 5771 010d 0000 0000 		.long	.LM18
 5772 0111 15        		.byte	0x15
GAS LISTING C:\Users\ADMINI~1\AppData\Local\Temp/ccVnQtUk.s 			page 106


 5773 0112 00        		.byte	0x0
 5774 0113 05        		.uleb128 0x5
 5775 0114 02        		.byte	0x2
 5776 0115 0000 0000 		.long	.LM19
 5777 0119 03        		.byte	0x3
 5778 011a F77E      		.sleb128 -137
 5779 011c 01        		.byte	0x1
 5780 011d 00        		.byte	0x0
 5781 011e 05        		.uleb128 0x5
 5782 011f 02        		.byte	0x2
 5783 0120 0000 0000 		.long	.LM20
 5784 0124 03        		.byte	0x3
 5785 0125 56        		.sleb128 -42
 5786 0126 01        		.byte	0x1
 5787 0127 00        		.byte	0x0
 5788 0128 05        		.uleb128 0x5
 5789 0129 02        		.byte	0x2
 5790 012a 0000 0000 		.long	.LM21
 5791 012e 01        		.byte	0x1
 5792 012f 00        		.byte	0x0
 5793 0130 05        		.uleb128 0x5
 5794 0131 02        		.byte	0x2
 5795 0132 0000 0000 		.long	.LM22
 5796 0136 8F        		.byte	0x8f
 5797 0137 00        		.byte	0x0
 5798 0138 05        		.uleb128 0x5
 5799 0139 02        		.byte	0x2
 5800 013a 0000 0000 		.long	.LM23
 5801 013e 03        		.byte	0x3
 5802 013f 887F      		.sleb128 -120
 5803 0141 01        		.byte	0x1
 5804 0142 00        		.byte	0x0
 5805 0143 05        		.uleb128 0x5
 5806 0144 02        		.byte	0x2
 5807 0145 0000 0000 		.long	.LM24
 5808 0149 18        		.byte	0x18
 5809 014a 00        		.byte	0x0
 5810 014b 05        		.uleb128 0x5
 5811 014c 02        		.byte	0x2
 5812 014d 0000 0000 		.long	.LM25
 5813 0151 50        		.byte	0x50
 5814 0152 00        		.byte	0x0
 5815 0153 05        		.uleb128 0x5
 5816 0154 02        		.byte	0x2
 5817 0155 0000 0000 		.long	.LM26
 5818 0159 03        		.byte	0x3
 5819 015a 5A        		.sleb128 -38
 5820 015b 01        		.byte	0x1
 5821 015c 00        		.byte	0x0
 5822 015d 05        		.uleb128 0x5
 5823 015e 02        		.byte	0x2
 5824 015f 0000 0000 		.long	.LM27
 5825 0163 15        		.byte	0x15
 5826 0164 00        		.byte	0x0
 5827 0165 05        		.uleb128 0x5
 5828 0166 02        		.byte	0x2
 5829 0167 0000 0000 		.long	.LM28
GAS LISTING C:\Users\ADMINI~1\AppData\Local\Temp/ccVnQtUk.s 			page 107


 5830 016b 03        		.byte	0x3
 5831 016c 6B        		.sleb128 -21
 5832 016d 01        		.byte	0x1
 5833 016e 00        		.byte	0x0
 5834 016f 05        		.uleb128 0x5
 5835 0170 02        		.byte	0x2
 5836 0171 0000 0000 		.long	.LM29
 5837 0175 5A        		.byte	0x5a
 5838 0176 00        		.byte	0x0
 5839 0177 05        		.uleb128 0x5
 5840 0178 02        		.byte	0x2
 5841 0179 0000 0000 		.long	.LM30
 5842 017d 03        		.byte	0x3
 5843 017e 66        		.sleb128 -26
 5844 017f 01        		.byte	0x1
 5845 0180 00        		.byte	0x0
 5846 0181 05        		.uleb128 0x5
 5847 0182 02        		.byte	0x2
 5848 0183 0000 0000 		.long	.LM31
 5849 0187 15        		.byte	0x15
 5850 0188 00        		.byte	0x0
 5851 0189 05        		.uleb128 0x5
 5852 018a 02        		.byte	0x2
 5853 018b 0000 0000 		.long	.LM32
 5854 018f 03        		.byte	0x3
 5855 0190 56        		.sleb128 -42
 5856 0191 01        		.byte	0x1
 5857 0192 00        		.byte	0x0
 5858 0193 05        		.uleb128 0x5
 5859 0194 02        		.byte	0x2
 5860 0195 0000 0000 		.long	.LM33
 5861 0199 15        		.byte	0x15
 5862 019a 00        		.byte	0x0
 5863 019b 05        		.uleb128 0x5
 5864 019c 02        		.byte	0x2
 5865 019d 0000 0000 		.long	.LM34
 5866 01a1 34        		.byte	0x34
 5867 01a2 00        		.byte	0x0
 5868 01a3 05        		.uleb128 0x5
 5869 01a4 02        		.byte	0x2
 5870 01a5 0000 0000 		.long	.LM35
 5871 01a9 15        		.byte	0x15
 5872 01aa 00        		.byte	0x0
 5873 01ab 05        		.uleb128 0x5
 5874 01ac 02        		.byte	0x2
 5875 01ad 0000 0000 		.long	.LM36
 5876 01b1 15        		.byte	0x15
 5877 01b2 00        		.byte	0x0
 5878 01b3 05        		.uleb128 0x5
 5879 01b4 02        		.byte	0x2
 5880 01b5 0000 0000 		.long	.LM37
 5881 01b9 17        		.byte	0x17
 5882 01ba 00        		.byte	0x0
 5883 01bb 05        		.uleb128 0x5
 5884 01bc 02        		.byte	0x2
 5885 01bd 0000 0000 		.long	.LM38
 5886 01c1 31        		.byte	0x31
GAS LISTING C:\Users\ADMINI~1\AppData\Local\Temp/ccVnQtUk.s 			page 108


 5887 01c2 00        		.byte	0x0
 5888 01c3 05        		.uleb128 0x5
 5889 01c4 02        		.byte	0x2
 5890 01c5 0000 0000 		.long	.LM39
 5891 01c9 03        		.byte	0x3
 5892 01ca 66        		.sleb128 -26
 5893 01cb 01        		.byte	0x1
 5894 01cc 00        		.byte	0x0
 5895 01cd 05        		.uleb128 0x5
 5896 01ce 02        		.byte	0x2
 5897 01cf 0000 0000 		.long	.LM40
 5898 01d3 15        		.byte	0x15
 5899 01d4 00        		.byte	0x0
 5900 01d5 05        		.uleb128 0x5
 5901 01d6 02        		.byte	0x2
 5902 01d7 0000 0000 		.long	.LM41
 5903 01db 16        		.byte	0x16
 5904 01dc 00        		.byte	0x0
 5905 01dd 05        		.uleb128 0x5
 5906 01de 02        		.byte	0x2
 5907 01df 0000 0000 		.long	.LM42
 5908 01e3 17        		.byte	0x17
 5909 01e4 00        		.byte	0x0
 5910 01e5 05        		.uleb128 0x5
 5911 01e6 02        		.byte	0x2
 5912 01e7 0000 0000 		.long	.LM43
 5913 01eb 16        		.byte	0x16
 5914 01ec 00        		.byte	0x0
 5915 01ed 05        		.uleb128 0x5
 5916 01ee 02        		.byte	0x2
 5917 01ef 0000 0000 		.long	.LM44
 5918 01f3 15        		.byte	0x15
 5919 01f4 00        		.byte	0x0
 5920 01f5 05        		.uleb128 0x5
 5921 01f6 02        		.byte	0x2
 5922 01f7 0000 0000 		.long	.LM45
 5923 01fb 17        		.byte	0x17
 5924 01fc 00        		.byte	0x0
 5925 01fd 05        		.uleb128 0x5
 5926 01fe 02        		.byte	0x2
 5927 01ff 0000 0000 		.long	.LM46
 5928 0203 16        		.byte	0x16
 5929 0204 00        		.byte	0x0
 5930 0205 05        		.uleb128 0x5
 5931 0206 02        		.byte	0x2
 5932 0207 0000 0000 		.long	.LM47
 5933 020b 15        		.byte	0x15
 5934 020c 00        		.byte	0x0
 5935 020d 05        		.uleb128 0x5
 5936 020e 02        		.byte	0x2
 5937 020f 0000 0000 		.long	.LM48
 5938 0213 17        		.byte	0x17
 5939 0214 00        		.byte	0x0
 5940 0215 05        		.uleb128 0x5
 5941 0216 02        		.byte	0x2
 5942 0217 0000 0000 		.long	.LM49
 5943 021b 16        		.byte	0x16
GAS LISTING C:\Users\ADMINI~1\AppData\Local\Temp/ccVnQtUk.s 			page 109


 5944 021c 00        		.byte	0x0
 5945 021d 05        		.uleb128 0x5
 5946 021e 02        		.byte	0x2
 5947 021f 0000 0000 		.long	.LM50
 5948 0223 15        		.byte	0x15
 5949 0224 00        		.byte	0x0
 5950 0225 05        		.uleb128 0x5
 5951 0226 02        		.byte	0x2
 5952 0227 0000 0000 		.long	.LM51
 5953 022b 17        		.byte	0x17
 5954 022c 00        		.byte	0x0
 5955 022d 05        		.uleb128 0x5
 5956 022e 02        		.byte	0x2
 5957 022f 0000 0000 		.long	.LM52
 5958 0233 16        		.byte	0x16
 5959 0234 00        		.byte	0x0
 5960 0235 05        		.uleb128 0x5
 5961 0236 02        		.byte	0x2
 5962 0237 0000 0000 		.long	.LM53
 5963 023b 15        		.byte	0x15
 5964 023c 00        		.byte	0x0
 5965 023d 05        		.uleb128 0x5
 5966 023e 02        		.byte	0x2
 5967 023f 0000 0000 		.long	.LM54
 5968 0243 17        		.byte	0x17
 5969 0244 00        		.byte	0x0
 5970 0245 05        		.uleb128 0x5
 5971 0246 02        		.byte	0x2
 5972 0247 0000 0000 		.long	.LM55
 5973 024b 16        		.byte	0x16
 5974 024c 00        		.byte	0x0
 5975 024d 05        		.uleb128 0x5
 5976 024e 02        		.byte	0x2
 5977 024f 0000 0000 		.long	.LM56
 5978 0253 15        		.byte	0x15
 5979 0254 00        		.byte	0x0
 5980 0255 05        		.uleb128 0x5
 5981 0256 02        		.byte	0x2
 5982 0257 0000 0000 		.long	.LM57
 5983 025b 17        		.byte	0x17
 5984 025c 00        		.byte	0x0
 5985 025d 05        		.uleb128 0x5
 5986 025e 02        		.byte	0x2
 5987 025f 0000 0000 		.long	.LM58
 5988 0263 16        		.byte	0x16
 5989 0264 00        		.byte	0x0
 5990 0265 05        		.uleb128 0x5
 5991 0266 02        		.byte	0x2
 5992 0267 0000 0000 		.long	.LM59
 5993 026b 15        		.byte	0x15
 5994 026c 00        		.byte	0x0
 5995 026d 05        		.uleb128 0x5
 5996 026e 02        		.byte	0x2
 5997 026f 0000 0000 		.long	.LM60
 5998 0273 17        		.byte	0x17
 5999 0274 00        		.byte	0x0
 6000 0275 05        		.uleb128 0x5
GAS LISTING C:\Users\ADMINI~1\AppData\Local\Temp/ccVnQtUk.s 			page 110


 6001 0276 02        		.byte	0x2
 6002 0277 0000 0000 		.long	.LM61
 6003 027b 16        		.byte	0x16
 6004 027c 00        		.byte	0x0
 6005 027d 05        		.uleb128 0x5
 6006 027e 02        		.byte	0x2
 6007 027f 0000 0000 		.long	.LM62
 6008 0283 15        		.byte	0x15
 6009 0284 00        		.byte	0x0
 6010 0285 05        		.uleb128 0x5
 6011 0286 02        		.byte	0x2
 6012 0287 0000 0000 		.long	.LM63
 6013 028b 17        		.byte	0x17
 6014 028c 00        		.byte	0x0
 6015 028d 05        		.uleb128 0x5
 6016 028e 02        		.byte	0x2
 6017 028f 0000 0000 		.long	.LM64
 6018 0293 16        		.byte	0x16
 6019 0294 00        		.byte	0x0
 6020 0295 05        		.uleb128 0x5
 6021 0296 02        		.byte	0x2
 6022 0297 0000 0000 		.long	.LM65
 6023 029b 15        		.byte	0x15
 6024 029c 00        		.byte	0x0
 6025 029d 05        		.uleb128 0x5
 6026 029e 02        		.byte	0x2
 6027 029f 0000 0000 		.long	.LM66
 6028 02a3 17        		.byte	0x17
 6029 02a4 00        		.byte	0x0
 6030 02a5 05        		.uleb128 0x5
 6031 02a6 02        		.byte	0x2
 6032 02a7 0000 0000 		.long	.LM67
 6033 02ab 16        		.byte	0x16
 6034 02ac 00        		.byte	0x0
 6035 02ad 05        		.uleb128 0x5
 6036 02ae 02        		.byte	0x2
 6037 02af 0000 0000 		.long	.LM68
 6038 02b3 18        		.byte	0x18
 6039 02b4 00        		.byte	0x0
 6040 02b5 05        		.uleb128 0x5
 6041 02b6 02        		.byte	0x2
 6042 02b7 0000 0000 		.long	.LM69
 6043 02bb 19        		.byte	0x19
 6044 02bc 00        		.byte	0x0
 6045 02bd 05        		.uleb128 0x5
 6046 02be 02        		.byte	0x2
 6047 02bf 0000 0000 		.long	.LM70
 6048 02c3 16        		.byte	0x16
 6049 02c4 00        		.byte	0x0
 6050 02c5 05        		.uleb128 0x5
 6051 02c6 02        		.byte	0x2
 6052 02c7 0000 0000 		.long	.LM71
 6053 02cb 17        		.byte	0x17
 6054 02cc 00        		.byte	0x0
 6055 02cd 05        		.uleb128 0x5
 6056 02ce 02        		.byte	0x2
 6057 02cf 0000 0000 		.long	.LM72
GAS LISTING C:\Users\ADMINI~1\AppData\Local\Temp/ccVnQtUk.s 			page 111


 6058 02d3 19        		.byte	0x19
 6059 02d4 00        		.byte	0x0
 6060 02d5 05        		.uleb128 0x5
 6061 02d6 02        		.byte	0x2
 6062 02d7 0000 0000 		.long	.LM73
 6063 02db 1B        		.byte	0x1b
 6064 02dc 00        		.byte	0x0
 6065 02dd 05        		.uleb128 0x5
 6066 02de 02        		.byte	0x2
 6067 02df 0000 0000 		.long	.LM74
 6068 02e3 16        		.byte	0x16
 6069 02e4 00        		.byte	0x0
 6070 02e5 05        		.uleb128 0x5
 6071 02e6 02        		.byte	0x2
 6072 02e7 0000 0000 		.long	.LM75
 6073 02eb 03        		.byte	0x3
 6074 02ec 58        		.sleb128 -40
 6075 02ed 01        		.byte	0x1
 6076 02ee 00        		.byte	0x0
 6077 02ef 05        		.uleb128 0x5
 6078 02f0 02        		.byte	0x2
 6079 02f1 0000 0000 		.long	.LM76
 6080 02f5 3F        		.byte	0x3f
 6081 02f6 00        		.byte	0x0
 6082 02f7 05        		.uleb128 0x5
 6083 02f8 02        		.byte	0x2
 6084 02f9 0000 0000 		.long	.LM77
 6085 02fd 18        		.byte	0x18
 6086 02fe 00        		.byte	0x0
 6087 02ff 05        		.uleb128 0x5
 6088 0300 02        		.byte	0x2
 6089 0301 0000 0000 		.long	.LM78
 6090 0305 15        		.byte	0x15
 6091 0306 00        		.byte	0x0
 6092 0307 05        		.uleb128 0x5
 6093 0308 02        		.byte	0x2
 6094 0309 0000 0000 		.long	.LM79
 6095 030d 16        		.byte	0x16
 6096 030e 00        		.byte	0x0
 6097 030f 05        		.uleb128 0x5
 6098 0310 02        		.byte	0x2
 6099 0311 0000 0000 		.long	.LM80
 6100 0315 19        		.byte	0x19
 6101 0316 00        		.byte	0x0
 6102 0317 05        		.uleb128 0x5
 6103 0318 02        		.byte	0x2
 6104 0319 0000 0000 		.long	.LM81
 6105 031d 17        		.byte	0x17
 6106 031e 00        		.byte	0x0
 6107 031f 05        		.uleb128 0x5
 6108 0320 02        		.byte	0x2
 6109 0321 0000 0000 		.long	.LM82
 6110 0325 15        		.byte	0x15
 6111 0326 00        		.byte	0x0
 6112 0327 05        		.uleb128 0x5
 6113 0328 02        		.byte	0x2
 6114 0329 0000 0000 		.long	.LM83
GAS LISTING C:\Users\ADMINI~1\AppData\Local\Temp/ccVnQtUk.s 			page 112


 6115 032d 0E        		.byte	0xe
 6116 032e 00        		.byte	0x0
 6117 032f 05        		.uleb128 0x5
 6118 0330 02        		.byte	0x2
 6119 0331 0000 0000 		.long	.LM84
 6120 0335 1D        		.byte	0x1d
 6121 0336 00        		.byte	0x0
 6122 0337 05        		.uleb128 0x5
 6123 0338 02        		.byte	0x2
 6124 0339 0000 0000 		.long	.LM85
 6125 033d 17        		.byte	0x17
 6126 033e 00        		.byte	0x0
 6127 033f 05        		.uleb128 0x5
 6128 0340 02        		.byte	0x2
 6129 0341 0000 0000 		.long	.LM86
 6130 0345 16        		.byte	0x16
 6131 0346 00        		.byte	0x0
 6132 0347 05        		.uleb128 0x5
 6133 0348 02        		.byte	0x2
 6134 0349 0000 0000 		.long	.LM87
 6135 034d 15        		.byte	0x15
 6136 034e 00        		.byte	0x0
 6137 034f 05        		.uleb128 0x5
 6138 0350 02        		.byte	0x2
 6139 0351 0000 0000 		.long	.LM88
 6140 0355 15        		.byte	0x15
 6141 0356 00        		.byte	0x0
 6142 0357 05        		.uleb128 0x5
 6143 0358 02        		.byte	0x2
 6144 0359 0000 0000 		.long	.LM89
 6145 035d 17        		.byte	0x17
 6146 035e 00        		.byte	0x0
 6147 035f 05        		.uleb128 0x5
 6148 0360 02        		.byte	0x2
 6149 0361 0000 0000 		.long	.LM90
 6150 0365 17        		.byte	0x17
 6151 0366 00        		.byte	0x0
 6152 0367 05        		.uleb128 0x5
 6153 0368 02        		.byte	0x2
 6154 0369 0000 0000 		.long	.LM91
 6155 036d 15        		.byte	0x15
 6156 036e 00        		.byte	0x0
 6157 036f 05        		.uleb128 0x5
 6158 0370 02        		.byte	0x2
 6159 0371 0000 0000 		.long	.LM92
 6160 0375 17        		.byte	0x17
 6161 0376 00        		.byte	0x0
 6162 0377 05        		.uleb128 0x5
 6163 0378 02        		.byte	0x2
 6164 0379 0000 0000 		.long	.LM93
 6165 037d 16        		.byte	0x16
 6166 037e 00        		.byte	0x0
 6167 037f 05        		.uleb128 0x5
 6168 0380 02        		.byte	0x2
 6169 0381 0000 0000 		.long	.LM94
 6170 0385 15        		.byte	0x15
 6171 0386 00        		.byte	0x0
GAS LISTING C:\Users\ADMINI~1\AppData\Local\Temp/ccVnQtUk.s 			page 113


 6172 0387 05        		.uleb128 0x5
 6173 0388 02        		.byte	0x2
 6174 0389 0000 0000 		.long	.LM95
 6175 038d 15        		.byte	0x15
 6176 038e 00        		.byte	0x0
 6177 038f 05        		.uleb128 0x5
 6178 0390 02        		.byte	0x2
 6179 0391 0000 0000 		.long	.LM96
 6180 0395 17        		.byte	0x17
 6181 0396 00        		.byte	0x0
 6182 0397 05        		.uleb128 0x5
 6183 0398 02        		.byte	0x2
 6184 0399 0000 0000 		.long	.LM97
 6185 039d 17        		.byte	0x17
 6186 039e 00        		.byte	0x0
 6187 039f 05        		.uleb128 0x5
 6188 03a0 02        		.byte	0x2
 6189 03a1 0000 0000 		.long	.LM98
 6190 03a5 15        		.byte	0x15
 6191 03a6 00        		.byte	0x0
 6192 03a7 05        		.uleb128 0x5
 6193 03a8 02        		.byte	0x2
 6194 03a9 0000 0000 		.long	.LM99
 6195 03ad 18        		.byte	0x18
 6196 03ae 00        		.byte	0x0
 6197 03af 05        		.uleb128 0x5
 6198 03b0 02        		.byte	0x2
 6199 03b1 0000 0000 		.long	.LM100
 6200 03b5 19        		.byte	0x19
 6201 03b6 00        		.byte	0x0
 6202 03b7 05        		.uleb128 0x5
 6203 03b8 02        		.byte	0x2
 6204 03b9 0000 0000 		.long	.LM101
 6205 03bd 16        		.byte	0x16
 6206 03be 00        		.byte	0x0
 6207 03bf 05        		.uleb128 0x5
 6208 03c0 02        		.byte	0x2
 6209 03c1 0000 0000 		.long	.LM102
 6210 03c5 15        		.byte	0x15
 6211 03c6 00        		.byte	0x0
 6212 03c7 05        		.uleb128 0x5
 6213 03c8 02        		.byte	0x2
 6214 03c9 0000 0000 		.long	.LM103
 6215 03cd 16        		.byte	0x16
 6216 03ce 00        		.byte	0x0
 6217 03cf 05        		.uleb128 0x5
 6218 03d0 02        		.byte	0x2
 6219 03d1 0000 0000 		.long	.LM104
 6220 03d5 16        		.byte	0x16
 6221 03d6 00        		.byte	0x0
 6222 03d7 05        		.uleb128 0x5
 6223 03d8 02        		.byte	0x2
 6224 03d9 0000 0000 		.long	.LM105
 6225 03dd 19        		.byte	0x19
 6226 03de 00        		.byte	0x0
 6227 03df 05        		.uleb128 0x5
 6228 03e0 02        		.byte	0x2
GAS LISTING C:\Users\ADMINI~1\AppData\Local\Temp/ccVnQtUk.s 			page 114


 6229 03e1 0000 0000 		.long	.LM106
 6230 03e5 15        		.byte	0x15
 6231 03e6 00        		.byte	0x0
 6232 03e7 05        		.uleb128 0x5
 6233 03e8 02        		.byte	0x2
 6234 03e9 0000 0000 		.long	.LM107
 6235 03ed 1A        		.byte	0x1a
 6236 03ee 00        		.byte	0x0
 6237 03ef 05        		.uleb128 0x5
 6238 03f0 02        		.byte	0x2
 6239 03f1 0000 0000 		.long	.LM108
 6240 03f5 16        		.byte	0x16
 6241 03f6 00        		.byte	0x0
 6242 03f7 05        		.uleb128 0x5
 6243 03f8 02        		.byte	0x2
 6244 03f9 0000 0000 		.long	.LM109
 6245 03fd 17        		.byte	0x17
 6246 03fe 00        		.byte	0x0
 6247 03ff 05        		.uleb128 0x5
 6248 0400 02        		.byte	0x2
 6249 0401 0000 0000 		.long	.LM110
 6250 0405 17        		.byte	0x17
 6251 0406 00        		.byte	0x0
 6252 0407 05        		.uleb128 0x5
 6253 0408 02        		.byte	0x2
 6254 0409 0000 0000 		.long	.LM111
 6255 040d 15        		.byte	0x15
 6256 040e 00        		.byte	0x0
 6257 040f 05        		.uleb128 0x5
 6258 0410 02        		.byte	0x2
 6259 0411 0000 0000 		.long	.LM112
 6260 0415 15        		.byte	0x15
 6261 0416 00        		.byte	0x0
 6262 0417 05        		.uleb128 0x5
 6263 0418 02        		.byte	0x2
 6264 0419 0000 0000 		.long	.LM113
 6265 041d 17        		.byte	0x17
 6266 041e 00        		.byte	0x0
 6267 041f 05        		.uleb128 0x5
 6268 0420 02        		.byte	0x2
 6269 0421 0000 0000 		.long	.LM114
 6270 0425 17        		.byte	0x17
 6271 0426 00        		.byte	0x0
 6272 0427 05        		.uleb128 0x5
 6273 0428 02        		.byte	0x2
 6274 0429 0000 0000 		.long	.LM115
 6275 042d 15        		.byte	0x15
 6276 042e 00        		.byte	0x0
 6277 042f 05        		.uleb128 0x5
 6278 0430 02        		.byte	0x2
 6279 0431 0000 0000 		.long	.LM116
 6280 0435 15        		.byte	0x15
 6281 0436 00        		.byte	0x0
 6282 0437 05        		.uleb128 0x5
 6283 0438 02        		.byte	0x2
 6284 0439 0000 0000 		.long	.LM117
 6285 043d 17        		.byte	0x17
GAS LISTING C:\Users\ADMINI~1\AppData\Local\Temp/ccVnQtUk.s 			page 115


 6286 043e 00        		.byte	0x0
 6287 043f 05        		.uleb128 0x5
 6288 0440 02        		.byte	0x2
 6289 0441 0000 0000 		.long	.LM118
 6290 0445 1A        		.byte	0x1a
 6291 0446 00        		.byte	0x0
 6292 0447 05        		.uleb128 0x5
 6293 0448 02        		.byte	0x2
 6294 0449 0000 0000 		.long	.LM119
 6295 044d 15        		.byte	0x15
 6296 044e 00        		.byte	0x0
 6297 044f 05        		.uleb128 0x5
 6298 0450 02        		.byte	0x2
 6299 0451 0000 0000 		.long	.LM120
 6300 0455 18        		.byte	0x18
 6301 0456 00        		.byte	0x0
 6302 0457 05        		.uleb128 0x5
 6303 0458 02        		.byte	0x2
 6304 0459 0000 0000 		.long	.LM121
 6305 045d 19        		.byte	0x19
 6306 045e 00        		.byte	0x0
 6307 045f 05        		.uleb128 0x5
 6308 0460 02        		.byte	0x2
 6309 0461 0000 0000 		.long	.LM122
 6310 0465 16        		.byte	0x16
 6311 0466 00        		.byte	0x0
 6312 0467 05        		.uleb128 0x5
 6313 0468 02        		.byte	0x2
 6314 0469 0000 0000 		.long	.LM123
 6315 046d 15        		.byte	0x15
 6316 046e 00        		.byte	0x0
 6317 046f 05        		.uleb128 0x5
 6318 0470 02        		.byte	0x2
 6319 0471 0000 0000 		.long	.LM124
 6320 0475 16        		.byte	0x16
 6321 0476 00        		.byte	0x0
 6322 0477 05        		.uleb128 0x5
 6323 0478 02        		.byte	0x2
 6324 0479 0000 0000 		.long	.LM125
 6325 047d 16        		.byte	0x16
 6326 047e 00        		.byte	0x0
 6327 047f 05        		.uleb128 0x5
 6328 0480 02        		.byte	0x2
 6329 0481 0000 0000 		.long	.LM126
 6330 0485 19        		.byte	0x19
 6331 0486 00        		.byte	0x0
 6332 0487 05        		.uleb128 0x5
 6333 0488 02        		.byte	0x2
 6334 0489 0000 0000 		.long	.LM127
 6335 048d 15        		.byte	0x15
 6336 048e 00        		.byte	0x0
 6337 048f 05        		.uleb128 0x5
 6338 0490 02        		.byte	0x2
 6339 0491 0000 0000 		.long	.LM128
 6340 0495 1A        		.byte	0x1a
 6341 0496 00        		.byte	0x0
 6342 0497 05        		.uleb128 0x5
GAS LISTING C:\Users\ADMINI~1\AppData\Local\Temp/ccVnQtUk.s 			page 116


 6343 0498 02        		.byte	0x2
 6344 0499 0000 0000 		.long	.LM129
 6345 049d 15        		.byte	0x15
 6346 049e 00        		.byte	0x0
 6347 049f 05        		.uleb128 0x5
 6348 04a0 02        		.byte	0x2
 6349 04a1 0000 0000 		.long	.LM130
 6350 04a5 16        		.byte	0x16
 6351 04a6 00        		.byte	0x0
 6352 04a7 05        		.uleb128 0x5
 6353 04a8 02        		.byte	0x2
 6354 04a9 0000 0000 		.long	.LM131
 6355 04ad 15        		.byte	0x15
 6356 04ae 00        		.byte	0x0
 6357 04af 05        		.uleb128 0x5
 6358 04b0 02        		.byte	0x2
 6359 04b1 0000 0000 		.long	.LM132
 6360 04b5 16        		.byte	0x16
 6361 04b6 00        		.byte	0x0
 6362 04b7 05        		.uleb128 0x5
 6363 04b8 02        		.byte	0x2
 6364 04b9 0000 0000 		.long	.LM133
 6365 04bd 15        		.byte	0x15
 6366 04be 00        		.byte	0x0
 6367 04bf 05        		.uleb128 0x5
 6368 04c0 02        		.byte	0x2
 6369 04c1 0000 0000 		.long	.LM134
 6370 04c5 15        		.byte	0x15
 6371 04c6 00        		.byte	0x0
 6372 04c7 05        		.uleb128 0x5
 6373 04c8 02        		.byte	0x2
 6374 04c9 0000 0000 		.long	.LM135
 6375 04cd 17        		.byte	0x17
 6376 04ce 00        		.byte	0x0
 6377 04cf 05        		.uleb128 0x5
 6378 04d0 02        		.byte	0x2
 6379 04d1 0000 0000 		.long	.LM136
 6380 04d5 16        		.byte	0x16
 6381 04d6 00        		.byte	0x0
 6382 04d7 05        		.uleb128 0x5
 6383 04d8 02        		.byte	0x2
 6384 04d9 0000 0000 		.long	.LM137
 6385 04dd 15        		.byte	0x15
 6386 04de 00        		.byte	0x0
 6387 04df 05        		.uleb128 0x5
 6388 04e0 02        		.byte	0x2
 6389 04e1 0000 0000 		.long	.LM138
 6390 04e5 15        		.byte	0x15
 6391 04e6 00        		.byte	0x0
 6392 04e7 05        		.uleb128 0x5
 6393 04e8 02        		.byte	0x2
 6394 04e9 0000 0000 		.long	.LM139
 6395 04ed 15        		.byte	0x15
 6396 04ee 00        		.byte	0x0
 6397 04ef 05        		.uleb128 0x5
 6398 04f0 02        		.byte	0x2
 6399 04f1 0000 0000 		.long	.LM140
GAS LISTING C:\Users\ADMINI~1\AppData\Local\Temp/ccVnQtUk.s 			page 117


 6400 04f5 17        		.byte	0x17
 6401 04f6 00        		.byte	0x0
 6402 04f7 05        		.uleb128 0x5
 6403 04f8 02        		.byte	0x2
 6404 04f9 0000 0000 		.long	.LM141
 6405 04fd 15        		.byte	0x15
 6406 04fe 00        		.byte	0x0
 6407 04ff 05        		.uleb128 0x5
 6408 0500 02        		.byte	0x2
 6409 0501 0000 0000 		.long	.LM142
 6410 0505 17        		.byte	0x17
 6411 0506 00        		.byte	0x0
 6412 0507 05        		.uleb128 0x5
 6413 0508 02        		.byte	0x2
 6414 0509 0000 0000 		.long	.LM143
 6415 050d 15        		.byte	0x15
 6416 050e 00        		.byte	0x0
 6417 050f 05        		.uleb128 0x5
 6418 0510 02        		.byte	0x2
 6419 0511 0000 0000 		.long	.LM144
 6420 0515 16        		.byte	0x16
 6421 0516 00        		.byte	0x0
 6422 0517 05        		.uleb128 0x5
 6423 0518 02        		.byte	0x2
 6424 0519 0000 0000 		.long	.LM145
 6425 051d 15        		.byte	0x15
 6426 051e 00        		.byte	0x0
 6427 051f 05        		.uleb128 0x5
 6428 0520 02        		.byte	0x2
 6429 0521 0000 0000 		.long	.LM146
 6430 0525 16        		.byte	0x16
 6431 0526 00        		.byte	0x0
 6432 0527 05        		.uleb128 0x5
 6433 0528 02        		.byte	0x2
 6434 0529 0000 0000 		.long	.LM147
 6435 052d 15        		.byte	0x15
 6436 052e 00        		.byte	0x0
 6437 052f 05        		.uleb128 0x5
 6438 0530 02        		.byte	0x2
 6439 0531 0000 0000 		.long	.LM148
 6440 0535 15        		.byte	0x15
 6441 0536 00        		.byte	0x0
 6442 0537 05        		.uleb128 0x5
 6443 0538 02        		.byte	0x2
 6444 0539 0000 0000 		.long	.LM149
 6445 053d 17        		.byte	0x17
 6446 053e 00        		.byte	0x0
 6447 053f 05        		.uleb128 0x5
 6448 0540 02        		.byte	0x2
 6449 0541 0000 0000 		.long	.LM150
 6450 0545 16        		.byte	0x16
 6451 0546 00        		.byte	0x0
 6452 0547 05        		.uleb128 0x5
 6453 0548 02        		.byte	0x2
 6454 0549 0000 0000 		.long	.LM151
 6455 054d 15        		.byte	0x15
 6456 054e 00        		.byte	0x0
GAS LISTING C:\Users\ADMINI~1\AppData\Local\Temp/ccVnQtUk.s 			page 118


 6457 054f 05        		.uleb128 0x5
 6458 0550 02        		.byte	0x2
 6459 0551 0000 0000 		.long	.LM152
 6460 0555 39        		.byte	0x39
 6461 0556 00        		.byte	0x0
 6462 0557 05        		.uleb128 0x5
 6463 0558 02        		.byte	0x2
 6464 0559 0000 0000 		.long	.LM153
 6465 055d 15        		.byte	0x15
 6466 055e 00        		.byte	0x0
 6467 055f 05        		.uleb128 0x5
 6468 0560 02        		.byte	0x2
 6469 0561 0000 0000 		.long	.LM154
 6470 0565 1B        		.byte	0x1b
 6471 0566 00        		.byte	0x0
 6472 0567 05        		.uleb128 0x5
 6473 0568 02        		.byte	0x2
 6474 0569 0000 0000 		.long	.LM155
 6475 056d 15        		.byte	0x15
 6476 056e 00        		.byte	0x0
 6477 056f 05        		.uleb128 0x5
 6478 0570 02        		.byte	0x2
 6479 0571 0000 0000 		.long	.LM156
 6480 0575 1B        		.byte	0x1b
 6481 0576 00        		.byte	0x0
 6482 0577 05        		.uleb128 0x5
 6483 0578 02        		.byte	0x2
 6484 0579 0000 0000 		.long	.LM157
 6485 057d 15        		.byte	0x15
 6486 057e 00        		.byte	0x0
 6487 057f 05        		.uleb128 0x5
 6488 0580 02        		.byte	0x2
 6489 0581 0000 0000 		.long	.LM158
 6490 0585 03        		.byte	0x3
 6491 0586 51        		.sleb128 -47
 6492 0587 01        		.byte	0x1
 6493 0588 00        		.byte	0x0
 6494 0589 05        		.uleb128 0x5
 6495 058a 02        		.byte	0x2
 6496 058b 0000 0000 		.long	.LM159
 6497 058f 17        		.byte	0x17
 6498 0590 00        		.byte	0x0
 6499 0591 05        		.uleb128 0x5
 6500 0592 02        		.byte	0x2
 6501 0593 0000 0000 		.long	.LM160
 6502 0597 17        		.byte	0x17
 6503 0598 00        		.byte	0x0
 6504 0599 05        		.uleb128 0x5
 6505 059a 02        		.byte	0x2
 6506 059b 0000 0000 		.long	.LM161
 6507 059f 15        		.byte	0x15
 6508 05a0 00        		.byte	0x0
 6509 05a1 05        		.uleb128 0x5
 6510 05a2 02        		.byte	0x2
 6511 05a3 0000 0000 		.long	.LM162
 6512 05a7 15        		.byte	0x15
 6513 05a8 00        		.byte	0x0
GAS LISTING C:\Users\ADMINI~1\AppData\Local\Temp/ccVnQtUk.s 			page 119


 6514 05a9 05        		.uleb128 0x5
 6515 05aa 02        		.byte	0x2
 6516 05ab 0000 0000 		.long	.LM163
 6517 05af 17        		.byte	0x17
 6518 05b0 00        		.byte	0x0
 6519 05b1 05        		.uleb128 0x5
 6520 05b2 02        		.byte	0x2
 6521 05b3 0000 0000 		.long	.LM164
 6522 05b7 17        		.byte	0x17
 6523 05b8 00        		.byte	0x0
 6524 05b9 05        		.uleb128 0x5
 6525 05ba 02        		.byte	0x2
 6526 05bb 0000 0000 		.long	.LM165
 6527 05bf 15        		.byte	0x15
 6528 05c0 00        		.byte	0x0
 6529 05c1 05        		.uleb128 0x5
 6530 05c2 02        		.byte	0x2
 6531 05c3 0000 0000 		.long	.LM166
 6532 05c7 15        		.byte	0x15
 6533 05c8 00        		.byte	0x0
 6534 05c9 05        		.uleb128 0x5
 6535 05ca 02        		.byte	0x2
 6536 05cb 0000 0000 		.long	.LM167
 6537 05cf 17        		.byte	0x17
 6538 05d0 00        		.byte	0x0
 6539 05d1 05        		.uleb128 0x5
 6540 05d2 02        		.byte	0x2
 6541 05d3 0000 0000 		.long	.LM168
 6542 05d7 17        		.byte	0x17
 6543 05d8 00        		.byte	0x0
 6544 05d9 05        		.uleb128 0x5
 6545 05da 02        		.byte	0x2
 6546 05db 0000 0000 		.long	.LM169
 6547 05df 15        		.byte	0x15
 6548 05e0 00        		.byte	0x0
 6549 05e1 05        		.uleb128 0x5
 6550 05e2 02        		.byte	0x2
 6551 05e3 0000 0000 		.long	.LM170
 6552 05e7 15        		.byte	0x15
 6553 05e8 00        		.byte	0x0
 6554 05e9 05        		.uleb128 0x5
 6555 05ea 02        		.byte	0x2
 6556 05eb 0000 0000 		.long	.LM171
 6557 05ef 17        		.byte	0x17
 6558 05f0 00        		.byte	0x0
 6559 05f1 05        		.uleb128 0x5
 6560 05f2 02        		.byte	0x2
 6561 05f3 0000 0000 		.long	.LM172
 6562 05f7 17        		.byte	0x17
 6563 05f8 00        		.byte	0x0
 6564 05f9 05        		.uleb128 0x5
 6565 05fa 02        		.byte	0x2
 6566 05fb 0000 0000 		.long	.LM173
 6567 05ff 15        		.byte	0x15
 6568 0600 00        		.byte	0x0
 6569 0601 05        		.uleb128 0x5
 6570 0602 02        		.byte	0x2
GAS LISTING C:\Users\ADMINI~1\AppData\Local\Temp/ccVnQtUk.s 			page 120


 6571 0603 0000 0000 		.long	.LM174
 6572 0607 15        		.byte	0x15
 6573 0608 00        		.byte	0x0
 6574 0609 05        		.uleb128 0x5
 6575 060a 02        		.byte	0x2
 6576 060b 0000 0000 		.long	.LM175
 6577 060f 17        		.byte	0x17
 6578 0610 00        		.byte	0x0
 6579 0611 05        		.uleb128 0x5
 6580 0612 02        		.byte	0x2
 6581 0613 0000 0000 		.long	.LM176
 6582 0617 17        		.byte	0x17
 6583 0618 00        		.byte	0x0
 6584 0619 05        		.uleb128 0x5
 6585 061a 02        		.byte	0x2
 6586 061b 0000 0000 		.long	.LM177
 6587 061f 15        		.byte	0x15
 6588 0620 00        		.byte	0x0
 6589 0621 05        		.uleb128 0x5
 6590 0622 02        		.byte	0x2
 6591 0623 0000 0000 		.long	.LM178
 6592 0627 15        		.byte	0x15
 6593 0628 00        		.byte	0x0
 6594 0629 05        		.uleb128 0x5
 6595 062a 02        		.byte	0x2
 6596 062b 0000 0000 		.long	.LM179
 6597 062f 17        		.byte	0x17
 6598 0630 00        		.byte	0x0
 6599 0631 05        		.uleb128 0x5
 6600 0632 02        		.byte	0x2
 6601 0633 0000 0000 		.long	.LM180
 6602 0637 17        		.byte	0x17
 6603 0638 00        		.byte	0x0
 6604 0639 05        		.uleb128 0x5
 6605 063a 02        		.byte	0x2
 6606 063b 0000 0000 		.long	.LM181
 6607 063f 15        		.byte	0x15
 6608 0640 00        		.byte	0x0
 6609 0641 05        		.uleb128 0x5
 6610 0642 02        		.byte	0x2
 6611 0643 0000 0000 		.long	.LM182
 6612 0647 15        		.byte	0x15
 6613 0648 00        		.byte	0x0
 6614 0649 05        		.uleb128 0x5
 6615 064a 02        		.byte	0x2
 6616 064b 0000 0000 		.long	.LM183
 6617 064f 17        		.byte	0x17
 6618 0650 00        		.byte	0x0
 6619 0651 05        		.uleb128 0x5
 6620 0652 02        		.byte	0x2
 6621 0653 0000 0000 		.long	.LM184
 6622 0657 1A        		.byte	0x1a
 6623 0658 00        		.byte	0x0
 6624 0659 05        		.uleb128 0x5
 6625 065a 02        		.byte	0x2
 6626 065b 0000 0000 		.long	.LM185
 6627 065f 15        		.byte	0x15
GAS LISTING C:\Users\ADMINI~1\AppData\Local\Temp/ccVnQtUk.s 			page 121


 6628 0660 00        		.byte	0x0
 6629 0661 05        		.uleb128 0x5
 6630 0662 02        		.byte	0x2
 6631 0663 0000 0000 		.long	.LM186
 6632 0667 15        		.byte	0x15
 6633 0668 00        		.byte	0x0
 6634 0669 05        		.uleb128 0x5
 6635 066a 02        		.byte	0x2
 6636 066b 0000 0000 		.long	.LM187
 6637 066f 17        		.byte	0x17
 6638 0670 00        		.byte	0x0
 6639 0671 05        		.uleb128 0x5
 6640 0672 02        		.byte	0x2
 6641 0673 0000 0000 		.long	.LM188
 6642 0677 1A        		.byte	0x1a
 6643 0678 00        		.byte	0x0
 6644 0679 05        		.uleb128 0x5
 6645 067a 02        		.byte	0x2
 6646 067b 0000 0000 		.long	.LM189
 6647 067f 15        		.byte	0x15
 6648 0680 00        		.byte	0x0
 6649 0681 05        		.uleb128 0x5
 6650 0682 02        		.byte	0x2
 6651 0683 0000 0000 		.long	.LM190
 6652 0687 15        		.byte	0x15
 6653 0688 00        		.byte	0x0
 6654 0689 05        		.uleb128 0x5
 6655 068a 02        		.byte	0x2
 6656 068b 0000 0000 		.long	.LM191
 6657 068f 17        		.byte	0x17
 6658 0690 00        		.byte	0x0
 6659 0691 05        		.uleb128 0x5
 6660 0692 02        		.byte	0x2
 6661 0693 0000 0000 		.long	.LM192
 6662 0697 1A        		.byte	0x1a
 6663 0698 00        		.byte	0x0
 6664 0699 05        		.uleb128 0x5
 6665 069a 02        		.byte	0x2
 6666 069b 0000 0000 		.long	.LM193
 6667 069f 15        		.byte	0x15
 6668 06a0 00        		.byte	0x0
 6669 06a1 05        		.uleb128 0x5
 6670 06a2 02        		.byte	0x2
 6671 06a3 0000 0000 		.long	.LM194
 6672 06a7 15        		.byte	0x15
 6673 06a8 00        		.byte	0x0
 6674 06a9 05        		.uleb128 0x5
 6675 06aa 02        		.byte	0x2
 6676 06ab 0000 0000 		.long	.LM195
 6677 06af 18        		.byte	0x18
 6678 06b0 00        		.byte	0x0
 6679 06b1 05        		.uleb128 0x5
 6680 06b2 02        		.byte	0x2
 6681 06b3 0000 0000 		.long	.LM196
 6682 06b7 19        		.byte	0x19
 6683 06b8 00        		.byte	0x0
 6684 06b9 05        		.uleb128 0x5
GAS LISTING C:\Users\ADMINI~1\AppData\Local\Temp/ccVnQtUk.s 			page 122


 6685 06ba 02        		.byte	0x2
 6686 06bb 0000 0000 		.long	.LM197
 6687 06bf 16        		.byte	0x16
 6688 06c0 00        		.byte	0x0
 6689 06c1 05        		.uleb128 0x5
 6690 06c2 02        		.byte	0x2
 6691 06c3 0000 0000 		.long	.LM198
 6692 06c7 15        		.byte	0x15
 6693 06c8 00        		.byte	0x0
 6694 06c9 05        		.uleb128 0x5
 6695 06ca 02        		.byte	0x2
 6696 06cb 0000 0000 		.long	.LM199
 6697 06cf 16        		.byte	0x16
 6698 06d0 00        		.byte	0x0
 6699 06d1 05        		.uleb128 0x5
 6700 06d2 02        		.byte	0x2
 6701 06d3 0000 0000 		.long	.LM200
 6702 06d7 16        		.byte	0x16
 6703 06d8 00        		.byte	0x0
 6704 06d9 05        		.uleb128 0x5
 6705 06da 02        		.byte	0x2
 6706 06db 0000 0000 		.long	.LM201
 6707 06df 19        		.byte	0x19
 6708 06e0 00        		.byte	0x0
 6709 06e1 05        		.uleb128 0x5
 6710 06e2 02        		.byte	0x2
 6711 06e3 0000 0000 		.long	.LM202
 6712 06e7 15        		.byte	0x15
 6713 06e8 00        		.byte	0x0
 6714 06e9 05        		.uleb128 0x5
 6715 06ea 02        		.byte	0x2
 6716 06eb 0000 0000 		.long	.LM203
 6717 06ef 1A        		.byte	0x1a
 6718 06f0 00        		.byte	0x0
 6719 06f1 05        		.uleb128 0x5
 6720 06f2 02        		.byte	0x2
 6721 06f3 0000 0000 		.long	.LM204
 6722 06f7 15        		.byte	0x15
 6723 06f8 00        		.byte	0x0
 6724 06f9 05        		.uleb128 0x5
 6725 06fa 02        		.byte	0x2
 6726 06fb 0000 0000 		.long	.LM205
 6727 06ff 16        		.byte	0x16
 6728 0700 00        		.byte	0x0
 6729 0701 05        		.uleb128 0x5
 6730 0702 02        		.byte	0x2
 6731 0703 0000 0000 		.long	.LM206
 6732 0707 15        		.byte	0x15
 6733 0708 00        		.byte	0x0
 6734 0709 05        		.uleb128 0x5
 6735 070a 02        		.byte	0x2
 6736 070b 0000 0000 		.long	.LM207
 6737 070f 16        		.byte	0x16
 6738 0710 00        		.byte	0x0
 6739 0711 05        		.uleb128 0x5
 6740 0712 02        		.byte	0x2
 6741 0713 0000 0000 		.long	.LM208
GAS LISTING C:\Users\ADMINI~1\AppData\Local\Temp/ccVnQtUk.s 			page 123


 6742 0717 15        		.byte	0x15
 6743 0718 00        		.byte	0x0
 6744 0719 05        		.uleb128 0x5
 6745 071a 02        		.byte	0x2
 6746 071b 0000 0000 		.long	.LM209
 6747 071f 15        		.byte	0x15
 6748 0720 00        		.byte	0x0
 6749 0721 05        		.uleb128 0x5
 6750 0722 02        		.byte	0x2
 6751 0723 0000 0000 		.long	.LM210
 6752 0727 17        		.byte	0x17
 6753 0728 00        		.byte	0x0
 6754 0729 05        		.uleb128 0x5
 6755 072a 02        		.byte	0x2
 6756 072b 0000 0000 		.long	.LM211
 6757 072f 16        		.byte	0x16
 6758 0730 00        		.byte	0x0
 6759 0731 05        		.uleb128 0x5
 6760 0732 02        		.byte	0x2
 6761 0733 0000 0000 		.long	.LM212
 6762 0737 15        		.byte	0x15
 6763 0738 00        		.byte	0x0
 6764 0739 05        		.uleb128 0x5
 6765 073a 02        		.byte	0x2
 6766 073b 0000 0000 		.long	.LM213
 6767 073f 15        		.byte	0x15
 6768 0740 00        		.byte	0x0
 6769 0741 05        		.uleb128 0x5
 6770 0742 02        		.byte	0x2
 6771 0743 0000 0000 		.long	.LM214
 6772 0747 15        		.byte	0x15
 6773 0748 00        		.byte	0x0
 6774 0749 05        		.uleb128 0x5
 6775 074a 02        		.byte	0x2
 6776 074b 0000 0000 		.long	.LM215
 6777 074f 17        		.byte	0x17
 6778 0750 00        		.byte	0x0
 6779 0751 05        		.uleb128 0x5
 6780 0752 02        		.byte	0x2
 6781 0753 0000 0000 		.long	.LM216
 6782 0757 15        		.byte	0x15
 6783 0758 00        		.byte	0x0
 6784 0759 05        		.uleb128 0x5
 6785 075a 02        		.byte	0x2
 6786 075b 0000 0000 		.long	.LM217
 6787 075f 17        		.byte	0x17
 6788 0760 00        		.byte	0x0
 6789 0761 05        		.uleb128 0x5
 6790 0762 02        		.byte	0x2
 6791 0763 0000 0000 		.long	.LM218
 6792 0767 15        		.byte	0x15
 6793 0768 00        		.byte	0x0
 6794 0769 05        		.uleb128 0x5
 6795 076a 02        		.byte	0x2
 6796 076b 0000 0000 		.long	.LM219
 6797 076f 16        		.byte	0x16
 6798 0770 00        		.byte	0x0
GAS LISTING C:\Users\ADMINI~1\AppData\Local\Temp/ccVnQtUk.s 			page 124


 6799 0771 05        		.uleb128 0x5
 6800 0772 02        		.byte	0x2
 6801 0773 0000 0000 		.long	.LM220
 6802 0777 15        		.byte	0x15
 6803 0778 00        		.byte	0x0
 6804 0779 05        		.uleb128 0x5
 6805 077a 02        		.byte	0x2
 6806 077b 0000 0000 		.long	.LM221
 6807 077f 16        		.byte	0x16
 6808 0780 00        		.byte	0x0
 6809 0781 05        		.uleb128 0x5
 6810 0782 02        		.byte	0x2
 6811 0783 0000 0000 		.long	.LM222
 6812 0787 15        		.byte	0x15
 6813 0788 00        		.byte	0x0
 6814 0789 05        		.uleb128 0x5
 6815 078a 02        		.byte	0x2
 6816 078b 0000 0000 		.long	.LM223
 6817 078f 15        		.byte	0x15
 6818 0790 00        		.byte	0x0
 6819 0791 05        		.uleb128 0x5
 6820 0792 02        		.byte	0x2
 6821 0793 0000 0000 		.long	.LM224
 6822 0797 17        		.byte	0x17
 6823 0798 00        		.byte	0x0
 6824 0799 05        		.uleb128 0x5
 6825 079a 02        		.byte	0x2
 6826 079b 0000 0000 		.long	.LM225
 6827 079f 16        		.byte	0x16
 6828 07a0 00        		.byte	0x0
 6829 07a1 05        		.uleb128 0x5
 6830 07a2 02        		.byte	0x2
 6831 07a3 0000 0000 		.long	.LM226
 6832 07a7 15        		.byte	0x15
 6833 07a8 00        		.byte	0x0
 6834 07a9 05        		.uleb128 0x5
 6835 07aa 02        		.byte	0x2
 6836 07ab 0000 0000 		.long	.LM227
 6837 07af 39        		.byte	0x39
 6838 07b0 00        		.byte	0x0
 6839 07b1 05        		.uleb128 0x5
 6840 07b2 02        		.byte	0x2
 6841 07b3 0000 0000 		.long	.LM228
 6842 07b7 15        		.byte	0x15
 6843 07b8 00        		.byte	0x0
 6844 07b9 05        		.uleb128 0x5
 6845 07ba 02        		.byte	0x2
 6846 07bb 0000 0000 		.long	.LM229
 6847 07bf 1B        		.byte	0x1b
 6848 07c0 00        		.byte	0x0
 6849 07c1 05        		.uleb128 0x5
 6850 07c2 02        		.byte	0x2
 6851 07c3 0000 0000 		.long	.LM230
 6852 07c7 15        		.byte	0x15
 6853 07c8 00        		.byte	0x0
 6854 07c9 05        		.uleb128 0x5
 6855 07ca 02        		.byte	0x2
GAS LISTING C:\Users\ADMINI~1\AppData\Local\Temp/ccVnQtUk.s 			page 125


 6856 07cb 0000 0000 		.long	.LM231
 6857 07cf 1B        		.byte	0x1b
 6858 07d0 00        		.byte	0x0
 6859 07d1 05        		.uleb128 0x5
 6860 07d2 02        		.byte	0x2
 6861 07d3 0000 0000 		.long	.LM232
 6862 07d7 15        		.byte	0x15
 6863 07d8 00        		.byte	0x0
 6864 07d9 05        		.uleb128 0x5
 6865 07da 02        		.byte	0x2
 6866 07db 0000 0000 		.long	.LM233
 6867 07df 03        		.byte	0x3
 6868 07e0 51        		.sleb128 -47
 6869 07e1 01        		.byte	0x1
 6870 07e2 00        		.byte	0x0
 6871 07e3 05        		.uleb128 0x5
 6872 07e4 02        		.byte	0x2
 6873 07e5 0000 0000 		.long	.LM234
 6874 07e9 17        		.byte	0x17
 6875 07ea 00        		.byte	0x0
 6876 07eb 05        		.uleb128 0x5
 6877 07ec 02        		.byte	0x2
 6878 07ed 0000 0000 		.long	.LM235
 6879 07f1 17        		.byte	0x17
 6880 07f2 00        		.byte	0x0
 6881 07f3 05        		.uleb128 0x5
 6882 07f4 02        		.byte	0x2
 6883 07f5 0000 0000 		.long	.LM236
 6884 07f9 15        		.byte	0x15
 6885 07fa 00        		.byte	0x0
 6886 07fb 05        		.uleb128 0x5
 6887 07fc 02        		.byte	0x2
 6888 07fd 0000 0000 		.long	.LM237
 6889 0801 15        		.byte	0x15
 6890 0802 00        		.byte	0x0
 6891 0803 05        		.uleb128 0x5
 6892 0804 02        		.byte	0x2
 6893 0805 0000 0000 		.long	.LM238
 6894 0809 17        		.byte	0x17
 6895 080a 00        		.byte	0x0
 6896 080b 05        		.uleb128 0x5
 6897 080c 02        		.byte	0x2
 6898 080d 0000 0000 		.long	.LM239
 6899 0811 17        		.byte	0x17
 6900 0812 00        		.byte	0x0
 6901 0813 05        		.uleb128 0x5
 6902 0814 02        		.byte	0x2
 6903 0815 0000 0000 		.long	.LM240
 6904 0819 15        		.byte	0x15
 6905 081a 00        		.byte	0x0
 6906 081b 05        		.uleb128 0x5
 6907 081c 02        		.byte	0x2
 6908 081d 0000 0000 		.long	.LM241
 6909 0821 15        		.byte	0x15
 6910 0822 00        		.byte	0x0
 6911 0823 05        		.uleb128 0x5
 6912 0824 02        		.byte	0x2
GAS LISTING C:\Users\ADMINI~1\AppData\Local\Temp/ccVnQtUk.s 			page 126


 6913 0825 0000 0000 		.long	.LM242
 6914 0829 17        		.byte	0x17
 6915 082a 00        		.byte	0x0
 6916 082b 05        		.uleb128 0x5
 6917 082c 02        		.byte	0x2
 6918 082d 0000 0000 		.long	.LM243
 6919 0831 17        		.byte	0x17
 6920 0832 00        		.byte	0x0
 6921 0833 05        		.uleb128 0x5
 6922 0834 02        		.byte	0x2
 6923 0835 0000 0000 		.long	.LM244
 6924 0839 15        		.byte	0x15
 6925 083a 00        		.byte	0x0
 6926 083b 05        		.uleb128 0x5
 6927 083c 02        		.byte	0x2
 6928 083d 0000 0000 		.long	.LM245
 6929 0841 15        		.byte	0x15
 6930 0842 00        		.byte	0x0
 6931 0843 05        		.uleb128 0x5
 6932 0844 02        		.byte	0x2
 6933 0845 0000 0000 		.long	.LM246
 6934 0849 17        		.byte	0x17
 6935 084a 00        		.byte	0x0
 6936 084b 05        		.uleb128 0x5
 6937 084c 02        		.byte	0x2
 6938 084d 0000 0000 		.long	.LM247
 6939 0851 17        		.byte	0x17
 6940 0852 00        		.byte	0x0
 6941 0853 05        		.uleb128 0x5
 6942 0854 02        		.byte	0x2
 6943 0855 0000 0000 		.long	.LM248
 6944 0859 15        		.byte	0x15
 6945 085a 00        		.byte	0x0
 6946 085b 05        		.uleb128 0x5
 6947 085c 02        		.byte	0x2
 6948 085d 0000 0000 		.long	.LM249
 6949 0861 15        		.byte	0x15
 6950 0862 00        		.byte	0x0
 6951 0863 05        		.uleb128 0x5
 6952 0864 02        		.byte	0x2
 6953 0865 0000 0000 		.long	.LM250
 6954 0869 17        		.byte	0x17
 6955 086a 00        		.byte	0x0
 6956 086b 05        		.uleb128 0x5
 6957 086c 02        		.byte	0x2
 6958 086d 0000 0000 		.long	.LM251
 6959 0871 17        		.byte	0x17
 6960 0872 00        		.byte	0x0
 6961 0873 05        		.uleb128 0x5
 6962 0874 02        		.byte	0x2
 6963 0875 0000 0000 		.long	.LM252
 6964 0879 15        		.byte	0x15
 6965 087a 00        		.byte	0x0
 6966 087b 05        		.uleb128 0x5
 6967 087c 02        		.byte	0x2
 6968 087d 0000 0000 		.long	.LM253
 6969 0881 15        		.byte	0x15
GAS LISTING C:\Users\ADMINI~1\AppData\Local\Temp/ccVnQtUk.s 			page 127


 6970 0882 00        		.byte	0x0
 6971 0883 05        		.uleb128 0x5
 6972 0884 02        		.byte	0x2
 6973 0885 0000 0000 		.long	.LM254
 6974 0889 17        		.byte	0x17
 6975 088a 00        		.byte	0x0
 6976 088b 05        		.uleb128 0x5
 6977 088c 02        		.byte	0x2
 6978 088d 0000 0000 		.long	.LM255
 6979 0891 17        		.byte	0x17
 6980 0892 00        		.byte	0x0
 6981 0893 05        		.uleb128 0x5
 6982 0894 02        		.byte	0x2
 6983 0895 0000 0000 		.long	.LM256
 6984 0899 15        		.byte	0x15
 6985 089a 00        		.byte	0x0
 6986 089b 05        		.uleb128 0x5
 6987 089c 02        		.byte	0x2
 6988 089d 0000 0000 		.long	.LM257
 6989 08a1 15        		.byte	0x15
 6990 08a2 00        		.byte	0x0
 6991 08a3 05        		.uleb128 0x5
 6992 08a4 02        		.byte	0x2
 6993 08a5 0000 0000 		.long	.LM258
 6994 08a9 17        		.byte	0x17
 6995 08aa 00        		.byte	0x0
 6996 08ab 05        		.uleb128 0x5
 6997 08ac 02        		.byte	0x2
 6998 08ad 0000 0000 		.long	.LM259
 6999 08b1 1A        		.byte	0x1a
 7000 08b2 00        		.byte	0x0
 7001 08b3 05        		.uleb128 0x5
 7002 08b4 02        		.byte	0x2
 7003 08b5 0000 0000 		.long	.LM260
 7004 08b9 15        		.byte	0x15
 7005 08ba 00        		.byte	0x0
 7006 08bb 05        		.uleb128 0x5
 7007 08bc 02        		.byte	0x2
 7008 08bd 0000 0000 		.long	.LM261
 7009 08c1 15        		.byte	0x15
 7010 08c2 00        		.byte	0x0
 7011 08c3 05        		.uleb128 0x5
 7012 08c4 02        		.byte	0x2
 7013 08c5 0000 0000 		.long	.LM262
 7014 08c9 17        		.byte	0x17
 7015 08ca 00        		.byte	0x0
 7016 08cb 05        		.uleb128 0x5
 7017 08cc 02        		.byte	0x2
 7018 08cd 0000 0000 		.long	.LM263
 7019 08d1 1A        		.byte	0x1a
 7020 08d2 00        		.byte	0x0
 7021 08d3 05        		.uleb128 0x5
 7022 08d4 02        		.byte	0x2
 7023 08d5 0000 0000 		.long	.LM264
 7024 08d9 15        		.byte	0x15
 7025 08da 00        		.byte	0x0
 7026 08db 05        		.uleb128 0x5
GAS LISTING C:\Users\ADMINI~1\AppData\Local\Temp/ccVnQtUk.s 			page 128


 7027 08dc 02        		.byte	0x2
 7028 08dd 0000 0000 		.long	.LM265
 7029 08e1 15        		.byte	0x15
 7030 08e2 00        		.byte	0x0
 7031 08e3 05        		.uleb128 0x5
 7032 08e4 02        		.byte	0x2
 7033 08e5 0000 0000 		.long	.LM266
 7034 08e9 17        		.byte	0x17
 7035 08ea 00        		.byte	0x0
 7036 08eb 05        		.uleb128 0x5
 7037 08ec 02        		.byte	0x2
 7038 08ed 0000 0000 		.long	.LM267
 7039 08f1 1A        		.byte	0x1a
 7040 08f2 00        		.byte	0x0
 7041 08f3 05        		.uleb128 0x5
 7042 08f4 02        		.byte	0x2
 7043 08f5 0000 0000 		.long	.LM268
 7044 08f9 15        		.byte	0x15
 7045 08fa 00        		.byte	0x0
 7046 08fb 05        		.uleb128 0x5
 7047 08fc 02        		.byte	0x2
 7048 08fd 0000 0000 		.long	.LM269
 7049 0901 15        		.byte	0x15
 7050 0902 00        		.byte	0x0
 7051 0903 05        		.uleb128 0x5
 7052 0904 02        		.byte	0x2
 7053 0905 0000 0000 		.long	.LM270
 7054 0909 19        		.byte	0x19
 7055 090a 00        		.byte	0x0
 7056 090b 05        		.uleb128 0x5
 7057 090c 02        		.byte	0x2
 7058 090d 0000 0000 		.long	.LM271
 7059 0911 15        		.byte	0x15
 7060 0912 00        		.byte	0x0
 7061 0913 05        		.uleb128 0x5
 7062 0914 02        		.byte	0x2
 7063 0915 0000 0000 		.long	.LM272
 7064 0919 15        		.byte	0x15
 7065 091a 00        		.byte	0x0
 7066 091b 05        		.uleb128 0x5
 7067 091c 02        		.byte	0x2
 7068 091d 0000 0000 		.long	.LM273
 7069 0921 15        		.byte	0x15
 7070 0922 00        		.byte	0x0
 7071 0923 05        		.uleb128 0x5
 7072 0924 02        		.byte	0x2
 7073 0925 0000 0000 		.long	.LM274
 7074 0929 17        		.byte	0x17
 7075 092a 00        		.byte	0x0
 7076 092b 05        		.uleb128 0x5
 7077 092c 02        		.byte	0x2
 7078 092d 0000 0000 		.long	.LM275
 7079 0931 15        		.byte	0x15
 7080 0932 00        		.byte	0x0
 7081 0933 05        		.uleb128 0x5
 7082 0934 02        		.byte	0x2
 7083 0935 0000 0000 		.long	.LM276
GAS LISTING C:\Users\ADMINI~1\AppData\Local\Temp/ccVnQtUk.s 			page 129


 7084 0939 15        		.byte	0x15
 7085 093a 00        		.byte	0x0
 7086 093b 05        		.uleb128 0x5
 7087 093c 02        		.byte	0x2
 7088 093d 0000 0000 		.long	.LM277
 7089 0941 18        		.byte	0x18
 7090 0942 00        		.byte	0x0
 7091 0943 05        		.uleb128 0x5
 7092 0944 02        		.byte	0x2
 7093 0945 0000 0000 		.long	.LM278
 7094 0949 16        		.byte	0x16
 7095 094a 00        		.byte	0x0
 7096 094b 05        		.uleb128 0x5
 7097 094c 02        		.byte	0x2
 7098 094d 0000 0000 		.long	.LM279
 7099 0951 15        		.byte	0x15
 7100 0952 00        		.byte	0x0
 7101 0953 05        		.uleb128 0x5
 7102 0954 02        		.byte	0x2
 7103 0955 0000 0000 		.long	.LM280
 7104 0959 15        		.byte	0x15
 7105 095a 00        		.byte	0x0
 7106 095b 05        		.uleb128 0x5
 7107 095c 02        		.byte	0x2
 7108 095d 0000 0000 		.long	.LM281
 7109 0961 18        		.byte	0x18
 7110 0962 00        		.byte	0x0
 7111 0963 05        		.uleb128 0x5
 7112 0964 02        		.byte	0x2
 7113 0965 0000 0000 		.long	.LM282
 7114 0969 15        		.byte	0x15
 7115 096a 00        		.byte	0x0
 7116 096b 05        		.uleb128 0x5
 7117 096c 02        		.byte	0x2
 7118 096d 0000 0000 		.long	.LM283
 7119 0971 15        		.byte	0x15
 7120 0972 00        		.byte	0x0
 7121 0973 05        		.uleb128 0x5
 7122 0974 02        		.byte	0x2
 7123 0975 0000 0000 		.long	.LM284
 7124 0979 15        		.byte	0x15
 7125 097a 00        		.byte	0x0
 7126 097b 05        		.uleb128 0x5
 7127 097c 02        		.byte	0x2
 7128 097d 0000 0000 		.long	.LM285
 7129 0981 17        		.byte	0x17
 7130 0982 00        		.byte	0x0
 7131 0983 05        		.uleb128 0x5
 7132 0984 02        		.byte	0x2
 7133 0985 0000 0000 		.long	.LM286
 7134 0989 17        		.byte	0x17
 7135 098a 00        		.byte	0x0
 7136 098b 05        		.uleb128 0x5
 7137 098c 02        		.byte	0x2
 7138 098d 0000 0000 		.long	.LM287
 7139 0991 15        		.byte	0x15
 7140 0992 00        		.byte	0x0
GAS LISTING C:\Users\ADMINI~1\AppData\Local\Temp/ccVnQtUk.s 			page 130


 7141 0993 05        		.uleb128 0x5
 7142 0994 02        		.byte	0x2
 7143 0995 0000 0000 		.long	.LM288
 7144 0999 15        		.byte	0x15
 7145 099a 00        		.byte	0x0
 7146 099b 05        		.uleb128 0x5
 7147 099c 02        		.byte	0x2
 7148 099d 0000 0000 		.long	.LM289
 7149 09a1 18        		.byte	0x18
 7150 09a2 00        		.byte	0x0
 7151 09a3 05        		.uleb128 0x5
 7152 09a4 02        		.byte	0x2
 7153 09a5 0000 0000 		.long	.LM290
 7154 09a9 16        		.byte	0x16
 7155 09aa 00        		.byte	0x0
 7156 09ab 05        		.uleb128 0x5
 7157 09ac 02        		.byte	0x2
 7158 09ad 0000 0000 		.long	.LM291
 7159 09b1 15        		.byte	0x15
 7160 09b2 00        		.byte	0x0
 7161 09b3 05        		.uleb128 0x5
 7162 09b4 02        		.byte	0x2
 7163 09b5 0000 0000 		.long	.LM292
 7164 09b9 15        		.byte	0x15
 7165 09ba 00        		.byte	0x0
 7166 09bb 05        		.uleb128 0x5
 7167 09bc 02        		.byte	0x2
 7168 09bd 0000 0000 		.long	.LM293
 7169 09c1 18        		.byte	0x18
 7170 09c2 00        		.byte	0x0
 7171 09c3 05        		.uleb128 0x5
 7172 09c4 02        		.byte	0x2
 7173 09c5 0000 0000 		.long	.LM294
 7174 09c9 16        		.byte	0x16
 7175 09ca 00        		.byte	0x0
 7176 09cb 05        		.uleb128 0x5
 7177 09cc 02        		.byte	0x2
 7178 09cd 0000 0000 		.long	.LM295
 7179 09d1 15        		.byte	0x15
 7180 09d2 00        		.byte	0x0
 7181 09d3 05        		.uleb128 0x5
 7182 09d4 02        		.byte	0x2
 7183 09d5 0000 0000 		.long	.LM296
 7184 09d9 15        		.byte	0x15
 7185 09da 00        		.byte	0x0
 7186 09db 05        		.uleb128 0x5
 7187 09dc 02        		.byte	0x2
 7188 09dd 0000 0000 		.long	.LM297
 7189 09e1 18        		.byte	0x18
 7190 09e2 00        		.byte	0x0
 7191 09e3 05        		.uleb128 0x5
 7192 09e4 02        		.byte	0x2
 7193 09e5 0000 0000 		.long	.LM298
 7194 09e9 16        		.byte	0x16
 7195 09ea 00        		.byte	0x0
 7196 09eb 05        		.uleb128 0x5
 7197 09ec 02        		.byte	0x2
GAS LISTING C:\Users\ADMINI~1\AppData\Local\Temp/ccVnQtUk.s 			page 131


 7198 09ed 0000 0000 		.long	.LM299
 7199 09f1 15        		.byte	0x15
 7200 09f2 00        		.byte	0x0
 7201 09f3 05        		.uleb128 0x5
 7202 09f4 02        		.byte	0x2
 7203 09f5 0000 0000 		.long	.LM300
 7204 09f9 15        		.byte	0x15
 7205 09fa 00        		.byte	0x0
 7206 09fb 05        		.uleb128 0x5
 7207 09fc 02        		.byte	0x2
 7208 09fd 0000 0000 		.long	.LM301
 7209 0a01 18        		.byte	0x18
 7210 0a02 00        		.byte	0x0
 7211 0a03 05        		.uleb128 0x5
 7212 0a04 02        		.byte	0x2
 7213 0a05 0000 0000 		.long	.LM302
 7214 0a09 16        		.byte	0x16
 7215 0a0a 00        		.byte	0x0
 7216 0a0b 05        		.uleb128 0x5
 7217 0a0c 02        		.byte	0x2
 7218 0a0d 0000 0000 		.long	.LM303
 7219 0a11 15        		.byte	0x15
 7220 0a12 00        		.byte	0x0
 7221 0a13 05        		.uleb128 0x5
 7222 0a14 02        		.byte	0x2
 7223 0a15 0000 0000 		.long	.LM304
 7224 0a19 15        		.byte	0x15
 7225 0a1a 00        		.byte	0x0
 7226 0a1b 05        		.uleb128 0x5
 7227 0a1c 02        		.byte	0x2
 7228 0a1d 0000 0000 		.long	.LM305
 7229 0a21 18        		.byte	0x18
 7230 0a22 00        		.byte	0x0
 7231 0a23 05        		.uleb128 0x5
 7232 0a24 02        		.byte	0x2
 7233 0a25 0000 0000 		.long	.LM306
 7234 0a29 16        		.byte	0x16
 7235 0a2a 00        		.byte	0x0
 7236 0a2b 05        		.uleb128 0x5
 7237 0a2c 02        		.byte	0x2
 7238 0a2d 0000 0000 		.long	.LM307
 7239 0a31 15        		.byte	0x15
 7240 0a32 00        		.byte	0x0
 7241 0a33 05        		.uleb128 0x5
 7242 0a34 02        		.byte	0x2
 7243 0a35 0000 0000 		.long	.LM308
 7244 0a39 15        		.byte	0x15
 7245 0a3a 00        		.byte	0x0
 7246 0a3b 05        		.uleb128 0x5
 7247 0a3c 02        		.byte	0x2
 7248 0a3d 0000 0000 		.long	.LM309
 7249 0a41 18        		.byte	0x18
 7250 0a42 00        		.byte	0x0
 7251 0a43 05        		.uleb128 0x5
 7252 0a44 02        		.byte	0x2
 7253 0a45 0000 0000 		.long	.LM310
 7254 0a49 16        		.byte	0x16
GAS LISTING C:\Users\ADMINI~1\AppData\Local\Temp/ccVnQtUk.s 			page 132


 7255 0a4a 00        		.byte	0x0
 7256 0a4b 05        		.uleb128 0x5
 7257 0a4c 02        		.byte	0x2
 7258 0a4d 0000 0000 		.long	.LM311
 7259 0a51 15        		.byte	0x15
 7260 0a52 00        		.byte	0x0
 7261 0a53 05        		.uleb128 0x5
 7262 0a54 02        		.byte	0x2
 7263 0a55 0000 0000 		.long	.LM312
 7264 0a59 15        		.byte	0x15
 7265 0a5a 00        		.byte	0x0
 7266 0a5b 05        		.uleb128 0x5
 7267 0a5c 02        		.byte	0x2
 7268 0a5d 0000 0000 		.long	.LM313
 7269 0a61 18        		.byte	0x18
 7270 0a62 00        		.byte	0x0
 7271 0a63 05        		.uleb128 0x5
 7272 0a64 02        		.byte	0x2
 7273 0a65 0000 0000 		.long	.LM314
 7274 0a69 16        		.byte	0x16
 7275 0a6a 00        		.byte	0x0
 7276 0a6b 05        		.uleb128 0x5
 7277 0a6c 02        		.byte	0x2
 7278 0a6d 0000 0000 		.long	.LM315
 7279 0a71 15        		.byte	0x15
 7280 0a72 00        		.byte	0x0
 7281 0a73 05        		.uleb128 0x5
 7282 0a74 02        		.byte	0x2
 7283 0a75 0000 0000 		.long	.LM316
 7284 0a79 15        		.byte	0x15
 7285 0a7a 00        		.byte	0x0
 7286 0a7b 05        		.uleb128 0x5
 7287 0a7c 02        		.byte	0x2
 7288 0a7d 0000 0000 		.long	.LM317
 7289 0a81 18        		.byte	0x18
 7290 0a82 00        		.byte	0x0
 7291 0a83 05        		.uleb128 0x5
 7292 0a84 02        		.byte	0x2
 7293 0a85 0000 0000 		.long	.LM318
 7294 0a89 16        		.byte	0x16
 7295 0a8a 00        		.byte	0x0
 7296 0a8b 05        		.uleb128 0x5
 7297 0a8c 02        		.byte	0x2
 7298 0a8d 0000 0000 		.long	.LM319
 7299 0a91 15        		.byte	0x15
 7300 0a92 00        		.byte	0x0
 7301 0a93 05        		.uleb128 0x5
 7302 0a94 02        		.byte	0x2
 7303 0a95 0000 0000 		.long	.LM320
 7304 0a99 15        		.byte	0x15
 7305 0a9a 00        		.byte	0x0
 7306 0a9b 05        		.uleb128 0x5
 7307 0a9c 02        		.byte	0x2
 7308 0a9d 0000 0000 		.long	.LM321
 7309 0aa1 18        		.byte	0x18
 7310 0aa2 00        		.byte	0x0
 7311 0aa3 05        		.uleb128 0x5
GAS LISTING C:\Users\ADMINI~1\AppData\Local\Temp/ccVnQtUk.s 			page 133


 7312 0aa4 02        		.byte	0x2
 7313 0aa5 0000 0000 		.long	.LM322
 7314 0aa9 16        		.byte	0x16
 7315 0aaa 00        		.byte	0x0
 7316 0aab 05        		.uleb128 0x5
 7317 0aac 02        		.byte	0x2
 7318 0aad 0000 0000 		.long	.LM323
 7319 0ab1 15        		.byte	0x15
 7320 0ab2 00        		.byte	0x0
 7321 0ab3 05        		.uleb128 0x5
 7322 0ab4 02        		.byte	0x2
 7323 0ab5 0000 0000 		.long	.LM324
 7324 0ab9 15        		.byte	0x15
 7325 0aba 00        		.byte	0x0
 7326 0abb 05        		.uleb128 0x5
 7327 0abc 02        		.byte	0x2
 7328 0abd 0000 0000 		.long	.LM325
 7329 0ac1 18        		.byte	0x18
 7330 0ac2 00        		.byte	0x0
 7331 0ac3 05        		.uleb128 0x5
 7332 0ac4 02        		.byte	0x2
 7333 0ac5 0000 0000 		.long	.LM326
 7334 0ac9 16        		.byte	0x16
 7335 0aca 00        		.byte	0x0
 7336 0acb 05        		.uleb128 0x5
 7337 0acc 02        		.byte	0x2
 7338 0acd 0000 0000 		.long	.LM327
 7339 0ad1 15        		.byte	0x15
 7340 0ad2 00        		.byte	0x0
 7341 0ad3 05        		.uleb128 0x5
 7342 0ad4 02        		.byte	0x2
 7343 0ad5 0000 0000 		.long	.LM328
 7344 0ad9 15        		.byte	0x15
 7345 0ada 00        		.byte	0x0
 7346 0adb 05        		.uleb128 0x5
 7347 0adc 02        		.byte	0x2
 7348 0add 0000 0000 		.long	.LM329
 7349 0ae1 18        		.byte	0x18
 7350 0ae2 00        		.byte	0x0
 7351 0ae3 05        		.uleb128 0x5
 7352 0ae4 02        		.byte	0x2
 7353 0ae5 0000 0000 		.long	.LM330
 7354 0ae9 16        		.byte	0x16
 7355 0aea 00        		.byte	0x0
 7356 0aeb 05        		.uleb128 0x5
 7357 0aec 02        		.byte	0x2
 7358 0aed 0000 0000 		.long	.LM331
 7359 0af1 15        		.byte	0x15
 7360 0af2 00        		.byte	0x0
 7361 0af3 05        		.uleb128 0x5
 7362 0af4 02        		.byte	0x2
 7363 0af5 0000 0000 		.long	.LM332
 7364 0af9 15        		.byte	0x15
 7365 0afa 00        		.byte	0x0
 7366 0afb 05        		.uleb128 0x5
 7367 0afc 02        		.byte	0x2
 7368 0afd 0000 0000 		.long	.Letext0
GAS LISTING C:\Users\ADMINI~1\AppData\Local\Temp/ccVnQtUk.s 			page 134


 7369 0b01 00        		.byte	0x0
 7370 0b02 01        		.uleb128 0x1
 7371 0b03 01        		.byte	0x1
 7372               	.LELT0:
 7373 0b04 1600 0000 		.section	.debug_str,"MS",@progbits,1
 7373      0200 1000 
 7373      0000 0101 
 7373      FB0E 0A00 
 7373      0101 0101 
 7374               	.LASF37:
 7375 0000 7469 6D65 		.string	"timer0GetPrescaler"
 7375      7230 4765 
 7375      7450 7265 
 7375      7363 616C 
 7375      6572 00
 7376               	.LASF47:
 7377 0013 7061 7573 		.string	"pause"
 7377      6500 
 7378               	.LASF89:
 7379 0019 5F5F 7665 		.string	"__vector_25"
 7379      6374 6F72 
 7379      5F32 3500 
 7380               	.LASF86:
 7381 0025 5F5F 7665 		.string	"__vector_26"
 7381      6374 6F72 
 7381      5F32 3600 
 7382               	.LASF98:
 7383 0031 474E 5520 		.string	"GNU C 4.3.3"
 7383      4320 342E 
 7383      332E 3300 
 7384               	.LASF88:
 7385 003d 5F5F 7665 		.string	"__vector_28"
 7385      6374 6F72 
 7385      5F32 3800 
 7386               	.LASF79:
 7387 0049 5F5F 7665 		.string	"__vector_29"
 7387      6374 6F72 
 7387      5F32 3900 
 7388               	.LASF62:
 7389 0055 7469 6D65 		.string	"timer1PWMBOn"
 7389      7231 5057 
 7389      4D42 4F6E 
 7389      00
 7390               	.LASF9:
 7391 0062 7368 6F72 		.string	"short int"
 7391      7420 696E 
 7391      7400 
 7392               	.LASF41:
 7393 006c 7469 6D65 		.string	"time_us"
 7393      5F75 7300 
 7394               	.LASF46:
 7395 0074 7469 6352 		.string	"ticRateHz"
 7395      6174 6548 
 7395      7A00 
 7396               	.LASF96:
 7397 007e 5469 6D65 		.string	"Timer2Reg0"
 7397      7232 5265 
GAS LISTING C:\Users\ADMINI~1\AppData\Local\Temp/ccVnQtUk.s 			page 135


 7397      6730 00
 7398               	.LASF72:
 7399 0089 7469 6D65 		.string	"timer3PWMCOn"
 7399      7233 5057 
 7399      4D43 4F6E 
 7399      00
 7400               	.LASF66:
 7401 0096 7469 6D65 		.string	"timer1PWMCSet"
 7401      7231 5057 
 7401      4D43 5365 
 7401      7400 
 7402               	.LASF34:
 7403 00a4 7469 6D65 		.string	"timer2Init"
 7403      7232 496E 
 7403      6974 00
 7404               	.LASF87:
 7405 00af 5F5F 7665 		.string	"__vector_27"
 7405      6374 6F72 
 7405      5F32 3700 
 7406               	.LASF32:
 7407 00bb 6465 6C61 		.string	"delay_us"
 7407      795F 7573 
 7407      00
 7408               	.LASF52:
 7409 00c4 7469 6D65 		.string	"timer2IntEnable"
 7409      7232 496E 
 7409      7445 6E61 
 7409      626C 6500 
 7410               	.LASF54:
 7411 00d4 7469 6D65 		.string	"timer0PWMOff"
 7411      7230 5057 
 7411      4D4F 6666 
 7411      00
 7412               	.LASF56:
 7413 00e1 7077 6D44 		.string	"pwmDuty"
 7413      7574 7900 
 7414               	.LASF13:
 7415 00e9 7469 6D65 		.string	"timer3SetPrescaler"
 7415      7233 5365 
 7415      7450 7265 
 7415      7363 616C 
 7415      6572 00
 7416               	.LASF21:
 7417 00fc 7469 6D65 		.string	"timerDetach"
 7417      7244 6574 
 7417      6163 6800 
 7418               	.LASF29:
 7419 0108 7469 6D65 		.string	"timer3PWMBOff"
 7419      7233 5057 
 7419      4D42 4F66 
 7419      6600 
 7420               	.LASF94:
 7421 0116 5469 6D65 		.string	"Timer0Reg0"
 7421      7230 5265 
 7421      6730 00
 7422               	.LASF59:
 7423 0121 746F 7063 		.string	"topcount"
GAS LISTING C:\Users\ADMINI~1\AppData\Local\Temp/ccVnQtUk.s 			page 136


 7423      6F75 6E74 
 7423      00
 7424               	.LASF58:
 7425 012a 7469 6D65 		.string	"timer1PWMInitICR"
 7425      7231 5057 
 7425      4D49 6E69 
 7425      7449 4352 
 7425      00
 7426               	.LASF38:
 7427 013b 7469 6D65 		.string	"timer1GetPrescaler"
 7427      7231 4765 
 7427      7450 7265 
 7427      7363 616C 
 7427      6572 00
 7428               	.LASF69:
 7429 014e 7469 6D65 		.string	"timer3PWMOff"
 7429      7233 5057 
 7429      4D4F 6666 
 7429      00
 7430               	.LASF15:
 7431 015b 5F5F 6164 		.string	"__addr16"
 7431      6472 3136 
 7431      00
 7432               	.LASF25:
 7433 0164 7469 6D65 		.string	"timer1PWMAOff"
 7433      7231 5057 
 7433      4D41 4F66 
 7433      6600 
 7434               	.LASF50:
 7435 0172 7469 6D65 		.string	"timer0PWMInit"
 7435      7230 5057 
 7435      4D49 6E69 
 7435      7400 
 7436               	.LASF73:
 7437 0180 7469 6D65 		.string	"timer3PWMASet"
 7437      7233 5057 
 7437      4D41 5365 
 7437      7400 
 7438               	.LASF39:
 7439 018e 7469 6D65 		.string	"timer3GetPrescaler"
 7439      7233 4765 
 7439      7450 7265 
 7439      7363 616C 
 7439      6572 00
 7440               	.LASF85:
 7441 01a1 5F5F 7665 		.string	"__vector_9"
 7441      6374 6F72 
 7441      5F39 00
 7442               	.LASF67:
 7443 01ac 7469 6D65 		.string	"timer3PWMInit"
 7443      7233 5057 
 7443      4D49 6E69 
 7443      7400 
 7444               	.LASF5:
 7445 01ba 6C6F 6E67 		.string	"long long int"
 7445      206C 6F6E 
 7445      6720 696E 
GAS LISTING C:\Users\ADMINI~1\AppData\Local\Temp/ccVnQtUk.s 			page 137


 7445      7400 
 7446               	.LASF19:
 7447 01c8 7469 6D65 		.string	"timer0ClearOverflowCount"
 7447      7230 436C 
 7447      6561 724F 
 7447      7665 7266 
 7447      6C6F 7743 
 7448               	.LASF3:
 7449 01e1 6C6F 6E67 		.string	"long int"
 7449      2069 6E74 
 7449      00
 7450               	.LASF36:
 7451 01ea 696E 744E 		.string	"intNum"
 7451      756D 00
 7452               	.LASF99:
 7453 01f1 6176 726C 		.string	"avrlib/timer128.c"
 7453      6962 2F74 
 7453      696D 6572 
 7453      3132 382E 
 7453      6300 
 7454               	.LASF31:
 7455 0203 6465 6C61 		.string	"delay_loops"
 7455      795F 6C6F 
 7455      6F70 7300 
 7456               	.LASF42:
 7457 020f 7573 6572 		.string	"userFunc"
 7457      4675 6E63 
 7457      00
 7458               	.LASF83:
 7459 0218 5F5F 7665 		.string	"__vector_24"
 7459      6374 6F72 
 7459      5F32 3400 
 7460               	.LASF55:
 7461 0224 7469 6D65 		.string	"timer0PWMSet"
 7461      7230 5057 
 7461      4D53 6574 
 7461      00
 7462               	.LASF74:
 7463 0231 7469 6D65 		.string	"timer3PWMBSet"
 7463      7233 5057 
 7463      4D42 5365 
 7463      7400 
 7464               	.LASF1:
 7465 023f 756E 7369 		.string	"unsigned char"
 7465      676E 6564 
 7465      2063 6861 
 7465      7200 
 7466               	.LASF30:
 7467 024d 7469 6D65 		.string	"timer3PWMCOff"
 7467      7233 5057 
 7467      4D43 4F66 
 7467      6600 
 7468               	.LASF40:
 7469 025b 7469 6D65 		.string	"timerAttach"
 7469      7241 7474 
 7469      6163 6800 
 7470               	.LASF90:
GAS LISTING C:\Users\ADMINI~1\AppData\Local\Temp/ccVnQtUk.s 			page 138


 7471 0267 5469 6D65 		.string	"TimerIntFunc"
 7471      7249 6E74 
 7471      4675 6E63 
 7471      00
 7472               	.LASF97:
 7473 0274 5469 6D65 		.string	"Timer2Reg1"
 7473      7232 5265 
 7473      6731 00
 7474               	.LASF0:
 7475 027f 7369 676E 		.string	"signed char"
 7475      6564 2063 
 7475      6861 7200 
 7476               	.LASF6:
 7477 028b 6C6F 6E67 		.string	"long long unsigned int"
 7477      206C 6F6E 
 7477      6720 756E 
 7477      7369 676E 
 7477      6564 2069 
 7478               	.LASF11:
 7479 02a2 766F 6964 		.string	"voidFuncPtr"
 7479      4675 6E63 
 7479      5074 7200 
 7480               	.LASF2:
 7481 02ae 756E 7369 		.string	"unsigned int"
 7481      676E 6564 
 7481      2069 6E74 
 7481      00
 7482               	.LASF26:
 7483 02bb 7469 6D65 		.string	"timer1PWMBOff"
 7483      7231 5057 
 7483      4D42 4F66 
 7483      6600 
 7484               	.LASF7:
 7485 02c9 7569 6E74 		.string	"uint16_t"
 7485      3136 5F74 
 7485      00
 7486               	.LASF44:
 7487 02d2 7061 7573 		.string	"pause_ms"
 7487      655F 6D73 
 7487      00
 7488               	.LASF16:
 7489 02db 5F5F 7265 		.string	"__result"
 7489      7375 6C74 
 7489      00
 7490               	.LASF20:
 7491 02e4 7469 6D65 		.string	"timer2ClearOverflowCount"
 7491      7232 436C 
 7491      6561 724F 
 7491      7665 7266 
 7491      6C6F 7743 
 7492               	.LASF100:
 7493 02fd 5A3A 5C44 		.string	"Z:\\Documents\\GitHub\\kbdmod\\source"
 7493      6F63 756D 
 7493      656E 7473 
 7493      5C47 6974 
 7493      4875 625C 
 7494               	.LASF61:
GAS LISTING C:\Users\ADMINI~1\AppData\Local\Temp/ccVnQtUk.s 			page 139


 7495 031f 7469 6D65 		.string	"timer1PWMAOn"
 7495      7231 5057 
 7495      4D41 4F6E 
 7495      00
 7496               	.LASF33:
 7497 032c 7469 6D65 		.string	"timer0Init"
 7497      7230 496E 
 7497      6974 00
 7498               	.LASF8:
 7499 0337 7368 6F72 		.string	"short unsigned int"
 7499      7420 756E 
 7499      7369 676E 
 7499      6564 2069 
 7499      6E74 00
 7500               	.LASF64:
 7501 034a 7469 6D65 		.string	"timer1PWMASet"
 7501      7231 5057 
 7501      4D41 5365 
 7501      7400 
 7502               	.LASF10:
 7503 0358 6368 6172 		.string	"char"
 7503      00
 7504               	.LASF57:
 7505 035d 7469 6D65 		.string	"timer1PWMInit"
 7505      7231 5057 
 7505      4D49 6E69 
 7505      7400 
 7506               	.LASF24:
 7507 036b 7469 6D65 		.string	"timer3Init"
 7507      7233 496E 
 7507      6974 00
 7508               	.LASF22:
 7509 0376 696E 7465 		.string	"interruptNum"
 7509      7272 7570 
 7509      744E 756D 
 7509      00
 7510               	.LASF71:
 7511 0383 7469 6D65 		.string	"timer3PWMBOn"
 7511      7233 5057 
 7511      4D42 4F6E 
 7511      00
 7512               	.LASF12:
 7513 0390 7469 6D65 		.string	"timer1SetPrescaler"
 7513      7231 5365 
 7513      7450 7265 
 7513      7363 616C 
 7513      6572 00
 7514               	.LASF60:
 7515 03a3 7469 6D65 		.string	"timer1PWMOff"
 7515      7231 5057 
 7515      4D4F 6666 
 7515      00
 7516               	.LASF92:
 7517 03b0 5469 6D65 		.string	"TimerRTCPrescaleFactor"
 7517      7252 5443 
 7517      5072 6573 
 7517      6361 6C65 
GAS LISTING C:\Users\ADMINI~1\AppData\Local\Temp/ccVnQtUk.s 			page 140


 7517      4661 6374 
 7518               	.LASF68:
 7519 03c7 7469 6D65 		.string	"timer3PWMInitICR"
 7519      7233 5057 
 7519      4D49 6E69 
 7519      7449 4352 
 7519      00
 7520               	.LASF45:
 7521 03d8 7469 6D65 		.string	"timerThres"
 7521      7254 6872 
 7521      6573 00
 7522               	.LASF84:
 7523 03e3 5F5F 7665 		.string	"__vector_11"
 7523      6374 6F72 
 7523      5F31 3100 
 7524               	.LASF81:
 7525 03ef 5F5F 7665 		.string	"__vector_12"
 7525      6374 6F72 
 7525      5F31 3200 
 7526               	.LASF82:
 7527 03fb 5F5F 7665 		.string	"__vector_13"
 7527      6374 6F72 
 7527      5F31 3300 
 7528               	.LASF4:
 7529 0407 6C6F 6E67 		.string	"long unsigned int"
 7529      2075 6E73 
 7529      6967 6E65 
 7529      6420 696E 
 7529      7400 
 7530               	.LASF80:
 7531 0419 5F5F 7665 		.string	"__vector_15"
 7531      6374 6F72 
 7531      5F31 3500 
 7532               	.LASF76:
 7533 0425 5F5F 7665 		.string	"__vector_16"
 7533      6374 6F72 
 7533      5F31 3600 
 7534               	.LASF101:
 7535 0431 7469 6D65 		.string	"timer2GetPrescaler"
 7535      7232 4765 
 7535      7450 7265 
 7535      7363 616C 
 7535      6572 00
 7536               	.LASF70:
 7537 0444 7469 6D65 		.string	"timer3PWMAOn"
 7537      7233 5057 
 7537      4D41 4F6E 
 7537      00
 7538               	.LASF93:
 7539 0451 5469 6D65 		.string	"TimerPauseReg"
 7539      7250 6175 
 7539      7365 5265 
 7539      6700 
 7540               	.LASF27:
 7541 045f 7469 6D65 		.string	"timer1PWMCOff"
 7541      7231 5057 
 7541      4D43 4F66 
GAS LISTING C:\Users\ADMINI~1\AppData\Local\Temp/ccVnQtUk.s 			page 141


 7541      6600 
 7542               	.LASF95:
 7543 046d 5469 6D65 		.string	"Timer0Reg1"
 7543      7230 5265 
 7543      6731 00
 7544               	.LASF14:
 7545 0478 7072 6573 		.string	"prescale"
 7545      6361 6C65 
 7545      00
 7546               	.LASF75:
 7547 0481 7469 6D65 		.string	"timer3PWMCSet"
 7547      7233 5057 
 7547      4D43 5365 
 7547      7400 
 7548               	.LASF43:
 7549 048f 7469 6D65 		.string	"timerPause"
 7549      7250 6175 
 7549      7365 00
 7550               	.LASF48:
 7551 049a 7469 6D65 		.string	"timer0GetOverflowCount"
 7551      7230 4765 
 7551      744F 7665 
 7551      7266 6C6F 
 7551      7743 6F75 
 7552               	.LASF78:
 7553 04b1 5F5F 7665 		.string	"__vector_10"
 7553      6374 6F72 
 7553      5F31 3000 
 7554               	.LASF65:
 7555 04bd 7469 6D65 		.string	"timer1PWMBSet"
 7555      7231 5057 
 7555      4D42 5365 
 7555      7400 
 7556               	.LASF51:
 7557 04cb 6269 7452 		.string	"bitRes"
 7557      6573 00
 7558               	.LASF77:
 7559 04d2 5F5F 7665 		.string	"__vector_14"
 7559      6374 6F72 
 7559      5F31 3400 
 7560               	.LASF91:
 7561 04de 5469 6D65 		.string	"TimerPrescaleFactor"
 7561      7250 7265 
 7561      7363 616C 
 7561      6546 6163 
 7561      746F 7200 
 7562               	.LASF17:
 7563 04f2 7469 6D65 		.string	"timer0SetPrescaler"
 7563      7230 5365 
 7563      7450 7265 
 7563      7363 616C 
 7563      6572 00
 7564               	.LASF23:
 7565 0505 7469 6D65 		.string	"timer1Init"
 7565      7231 496E 
 7565      6974 00
 7566               	.LASF18:
GAS LISTING C:\Users\ADMINI~1\AppData\Local\Temp/ccVnQtUk.s 			page 142


 7567 0510 7469 6D65 		.string	"timer2SetPrescaler"
 7567      7232 5365 
 7567      7450 7265 
 7567      7363 616C 
 7567      6572 00
 7568               	.LASF49:
 7569 0523 7469 6D65 		.string	"timer2GetOverflowCount"
 7569      7232 4765 
 7569      744F 7665 
 7569      7266 6C6F 
 7569      7743 6F75 
 7570               	.LASF63:
 7571 053a 7469 6D65 		.string	"timer1PWMCOn"
 7571      7231 5057 
 7571      4D43 4F6E 
 7571      00
 7572               	.LASF53:
 7573 0547 7469 6D65 		.string	"timer0PWMOn"
 7573      7230 5057 
 7573      4D4F 6E00 
 7574               	.LASF28:
 7575 0553 7469 6D65 		.string	"timer3PWMAOff"
 7575      7233 5057 
 7575      4D41 4F66 
 7575      6600 
 7576               	.LASF35:
 7577 0561 7469 6D65 		.string	"timerInit"
 7577      7249 6E69 
 7577      7400 
 7578               	.global __do_clear_bss
GAS LISTING C:\Users\ADMINI~1\AppData\Local\Temp/ccVnQtUk.s 			page 143


DEFINED SYMBOLS
                            *ABS*:00000000 timer128.c
C:\Users\ADMINI~1\AppData\Local\Temp/ccVnQtUk.s:2      *ABS*:0000003f __SREG__
C:\Users\ADMINI~1\AppData\Local\Temp/ccVnQtUk.s:3      *ABS*:0000003e __SP_H__
C:\Users\ADMINI~1\AppData\Local\Temp/ccVnQtUk.s:4      *ABS*:0000003d __SP_L__
C:\Users\ADMINI~1\AppData\Local\Temp/ccVnQtUk.s:5      *ABS*:00000034 __CCP__
C:\Users\ADMINI~1\AppData\Local\Temp/ccVnQtUk.s:6      *ABS*:00000000 __tmp_reg__
C:\Users\ADMINI~1\AppData\Local\Temp/ccVnQtUk.s:7      *ABS*:00000001 __zero_reg__
C:\Users\ADMINI~1\AppData\Local\Temp/ccVnQtUk.s:18     .text:00000000 delay_us
C:\Users\ADMINI~1\AppData\Local\Temp/ccVnQtUk.s:31     .text:00000002 timer0Init
                            *COM*:00000004 Timer0Reg0
                            *COM*:00000004 Timer0Reg1
C:\Users\ADMINI~1\AppData\Local\Temp/ccVnQtUk.s:68     .text:0000002e timer1Init
C:\Users\ADMINI~1\AppData\Local\Temp/ccVnQtUk.s:93     .text:0000003c timer2Init
                            *COM*:00000004 Timer2Reg0
                            *COM*:00000004 Timer2Reg1
C:\Users\ADMINI~1\AppData\Local\Temp/ccVnQtUk.s:130    .text:00000068 timerInit
                             .bss:00000000 TimerIntFunc
C:\Users\ADMINI~1\AppData\Local\Temp/ccVnQtUk.s:207    .text:000000ae timer2IntEnable
C:\Users\ADMINI~1\AppData\Local\Temp/ccVnQtUk.s:223    .text:000000b6 timer3Init
C:\Users\ADMINI~1\AppData\Local\Temp/ccVnQtUk.s:250    .text:000000cc timer0SetPrescaler
C:\Users\ADMINI~1\AppData\Local\Temp/ccVnQtUk.s:268    .text:000000d6 timer1SetPrescaler
C:\Users\ADMINI~1\AppData\Local\Temp/ccVnQtUk.s:286    .text:000000e0 timer2SetPrescaler
C:\Users\ADMINI~1\AppData\Local\Temp/ccVnQtUk.s:304    .text:000000ea timer3SetPrescaler
C:\Users\ADMINI~1\AppData\Local\Temp/ccVnQtUk.s:324    .text:000000f8 timer0GetPrescaler
C:\Users\ADMINI~1\AppData\Local\Temp/ccVnQtUk.s:2490   .progmem.data:00000000 TimerPrescaleFactor
C:\Users\ADMINI~1\AppData\Local\Temp/ccVnQtUk.s:361    .text:00000112 timer1GetPrescaler
C:\Users\ADMINI~1\AppData\Local\Temp/ccVnQtUk.s:398    .text:0000012c timer2GetPrescaler
C:\Users\ADMINI~1\AppData\Local\Temp/ccVnQtUk.s:435    .text:00000146 timer3GetPrescaler
C:\Users\ADMINI~1\AppData\Local\Temp/ccVnQtUk.s:472    .text:00000162 timerAttach
C:\Users\ADMINI~1\AppData\Local\Temp/ccVnQtUk.s:496    .text:00000178 timerDetach
C:\Users\ADMINI~1\AppData\Local\Temp/ccVnQtUk.s:520    .text:0000018e timerPause
                            *COM*:00000004 TimerPauseReg
C:\Users\ADMINI~1\AppData\Local\Temp/ccVnQtUk.s:705    .text:000002a2 timer0ClearOverflowCount
C:\Users\ADMINI~1\AppData\Local\Temp/ccVnQtUk.s:727    .text:000002c4 timer0GetOverflowCount
C:\Users\ADMINI~1\AppData\Local\Temp/ccVnQtUk.s:746    .text:000002da timer2ClearOverflowCount
C:\Users\ADMINI~1\AppData\Local\Temp/ccVnQtUk.s:768    .text:000002fc timer2GetOverflowCount
C:\Users\ADMINI~1\AppData\Local\Temp/ccVnQtUk.s:787    .text:00000312 timer0PWMInit
C:\Users\ADMINI~1\AppData\Local\Temp/ccVnQtUk.s:837    .text:0000033c timer0PWMOn
C:\Users\ADMINI~1\AppData\Local\Temp/ccVnQtUk.s:857    .text:0000034a timer0PWMOff
C:\Users\ADMINI~1\AppData\Local\Temp/ccVnQtUk.s:877    .text:00000358 timer0PWMSet
C:\Users\ADMINI~1\AppData\Local\Temp/ccVnQtUk.s:892    .text:0000035c timer1PWMInit
C:\Users\ADMINI~1\AppData\Local\Temp/ccVnQtUk.s:952    .text:00000394 timer1PWMInitICR
C:\Users\ADMINI~1\AppData\Local\Temp/ccVnQtUk.s:998    .text:000003c2 timer1PWMOff
C:\Users\ADMINI~1\AppData\Local\Temp/ccVnQtUk.s:1054   .text:000003f4 timer1PWMAOn
C:\Users\ADMINI~1\AppData\Local\Temp/ccVnQtUk.s:1074   .text:00000402 timer1PWMBOn
C:\Users\ADMINI~1\AppData\Local\Temp/ccVnQtUk.s:1094   .text:00000410 timer1PWMCOn
C:\Users\ADMINI~1\AppData\Local\Temp/ccVnQtUk.s:1114   .text:0000041e timer1PWMAOff
C:\Users\ADMINI~1\AppData\Local\Temp/ccVnQtUk.s:1134   .text:0000042c timer1PWMBOff
C:\Users\ADMINI~1\AppData\Local\Temp/ccVnQtUk.s:1154   .text:0000043a timer1PWMCOff
C:\Users\ADMINI~1\AppData\Local\Temp/ccVnQtUk.s:1174   .text:00000448 timer1PWMASet
C:\Users\ADMINI~1\AppData\Local\Temp/ccVnQtUk.s:1192   .text:0000044e timer1PWMBSet
C:\Users\ADMINI~1\AppData\Local\Temp/ccVnQtUk.s:1210   .text:00000454 timer1PWMCSet
C:\Users\ADMINI~1\AppData\Local\Temp/ccVnQtUk.s:1228   .text:0000045e timer3PWMInit
C:\Users\ADMINI~1\AppData\Local\Temp/ccVnQtUk.s:1288   .text:000004ae timer3PWMInitICR
C:\Users\ADMINI~1\AppData\Local\Temp/ccVnQtUk.s:1338   .text:000004f0 timer3PWMOff
C:\Users\ADMINI~1\AppData\Local\Temp/ccVnQtUk.s:1396   .text:00000526 timer3PWMAOn
GAS LISTING C:\Users\ADMINI~1\AppData\Local\Temp/ccVnQtUk.s 			page 144


C:\Users\ADMINI~1\AppData\Local\Temp/ccVnQtUk.s:1418   .text:00000538 timer3PWMBOn
C:\Users\ADMINI~1\AppData\Local\Temp/ccVnQtUk.s:1440   .text:0000054a timer3PWMCOn
C:\Users\ADMINI~1\AppData\Local\Temp/ccVnQtUk.s:1462   .text:0000055c timer3PWMAOff
C:\Users\ADMINI~1\AppData\Local\Temp/ccVnQtUk.s:1484   .text:0000056e timer3PWMBOff
C:\Users\ADMINI~1\AppData\Local\Temp/ccVnQtUk.s:1506   .text:00000580 timer3PWMCOff
C:\Users\ADMINI~1\AppData\Local\Temp/ccVnQtUk.s:1528   .text:00000592 timer3PWMASet
C:\Users\ADMINI~1\AppData\Local\Temp/ccVnQtUk.s:1546   .text:0000059c timer3PWMBSet
C:\Users\ADMINI~1\AppData\Local\Temp/ccVnQtUk.s:1564   .text:000005a6 timer3PWMCSet
C:\Users\ADMINI~1\AppData\Local\Temp/ccVnQtUk.s:1582   .text:000005b0 __vector_16
C:\Users\ADMINI~1\AppData\Local\Temp/ccVnQtUk.s:1675   .text:00000676 __vector_14
C:\Users\ADMINI~1\AppData\Local\Temp/ccVnQtUk.s:1734   .text:000006d8 __vector_10
C:\Users\ADMINI~1\AppData\Local\Temp/ccVnQtUk.s:1839   .text:000007c4 __vector_29
C:\Users\ADMINI~1\AppData\Local\Temp/ccVnQtUk.s:1898   .text:00000826 __vector_15
C:\Users\ADMINI~1\AppData\Local\Temp/ccVnQtUk.s:1957   .text:00000888 __vector_12
C:\Users\ADMINI~1\AppData\Local\Temp/ccVnQtUk.s:2016   .text:000008ea __vector_13
C:\Users\ADMINI~1\AppData\Local\Temp/ccVnQtUk.s:2075   .text:0000094c __vector_24
C:\Users\ADMINI~1\AppData\Local\Temp/ccVnQtUk.s:2134   .text:000009ae __vector_11
C:\Users\ADMINI~1\AppData\Local\Temp/ccVnQtUk.s:2193   .text:00000a10 __vector_9
C:\Users\ADMINI~1\AppData\Local\Temp/ccVnQtUk.s:2252   .text:00000a72 __vector_26
C:\Users\ADMINI~1\AppData\Local\Temp/ccVnQtUk.s:2311   .text:00000ad4 __vector_27
C:\Users\ADMINI~1\AppData\Local\Temp/ccVnQtUk.s:2370   .text:00000b36 __vector_28
C:\Users\ADMINI~1\AppData\Local\Temp/ccVnQtUk.s:2429   .text:00000b98 __vector_25
C:\Users\ADMINI~1\AppData\Local\Temp/ccVnQtUk.s:2500   .progmem.data:0000000c TimerRTCPrescaleFactor

UNDEFINED SYMBOLS
__udivmodsi4
__mulsi3
__do_clear_bss
